
Sensor_Final_Project_Proteus.elf:     file format elf32-littlearm

Sections:
Idx Name          Size      VMA       LMA       File off  Algn
  0 .isr_vector   0000010c  08000000  08000000  00001000  2**0
                  CONTENTS, ALLOC, LOAD, READONLY, DATA
  1 .text         00005ae4  0800010c  0800010c  0000110c  2**2
                  CONTENTS, ALLOC, LOAD, READONLY, CODE
  2 .rodata       000018c8  08005bf0  08005bf0  00006bf0  2**2
                  CONTENTS, ALLOC, LOAD, READONLY, DATA
  3 .ARM.extab    00000000  080074b8  080074b8  00009080  2**0
                  CONTENTS
  4 .ARM          00000000  080074b8  080074b8  00009080  2**0
                  CONTENTS
  5 .preinit_array 00000000  080074b8  080074b8  00009080  2**0
                  CONTENTS, ALLOC, LOAD, DATA
  6 .init_array   00000004  080074b8  080074b8  000084b8  2**2
                  CONTENTS, ALLOC, LOAD, READONLY, DATA
  7 .fini_array   00000004  080074bc  080074bc  000084bc  2**2
                  CONTENTS, ALLOC, LOAD, READONLY, DATA
  8 .data         00000080  20000000  080074c0  00009000  2**2
                  CONTENTS, ALLOC, LOAD, DATA
  9 .bss          00000640  20000080  08007540  00009080  2**2
                  ALLOC
 10 ._user_heap_stack 00000600  200006c0  08007540  000096c0  2**0
                  ALLOC
 11 .ARM.attributes 00000029  00000000  00000000  00009080  2**0
                  CONTENTS, READONLY
 12 .debug_info   000108d9  00000000  00000000  000090a9  2**0
                  CONTENTS, READONLY, DEBUGGING, OCTETS
 13 .debug_abbrev 00003601  00000000  00000000  00019982  2**0
                  CONTENTS, READONLY, DEBUGGING, OCTETS
 14 .debug_aranges 00001090  00000000  00000000  0001cf88  2**3
                  CONTENTS, READONLY, DEBUGGING, OCTETS
 15 .debug_rnglists 00000ca7  00000000  00000000  0001e018  2**0
                  CONTENTS, READONLY, DEBUGGING, OCTETS
 16 .debug_macro  0001a79e  00000000  00000000  0001ecbf  2**0
                  CONTENTS, READONLY, DEBUGGING, OCTETS
 17 .debug_line   00015fbd  00000000  00000000  0003945d  2**0
                  CONTENTS, READONLY, DEBUGGING, OCTETS
 18 .debug_str    000901aa  00000000  00000000  0004f41a  2**0
                  CONTENTS, READONLY, DEBUGGING, OCTETS
 19 .comment      00000043  00000000  00000000  000df5c4  2**0
                  CONTENTS, READONLY
 20 .debug_frame  00004c00  00000000  00000000  000df608  2**2
                  CONTENTS, READONLY, DEBUGGING, OCTETS
 21 .debug_line_str 00000065  00000000  00000000  000e4208  2**0
                  CONTENTS, READONLY, DEBUGGING, OCTETS

Disassembly of section .text:

0800010c <__do_global_dtors_aux>:
 800010c:	b510      	push	{r4, lr}
 800010e:	4c05      	ldr	r4, [pc, #20]	@ (8000124 <__do_global_dtors_aux+0x18>)
 8000110:	7823      	ldrb	r3, [r4, #0]
 8000112:	b933      	cbnz	r3, 8000122 <__do_global_dtors_aux+0x16>
 8000114:	4b04      	ldr	r3, [pc, #16]	@ (8000128 <__do_global_dtors_aux+0x1c>)
 8000116:	b113      	cbz	r3, 800011e <__do_global_dtors_aux+0x12>
 8000118:	4804      	ldr	r0, [pc, #16]	@ (800012c <__do_global_dtors_aux+0x20>)
 800011a:	f3af 8000 	nop.w
 800011e:	2301      	movs	r3, #1
 8000120:	7023      	strb	r3, [r4, #0]
 8000122:	bd10      	pop	{r4, pc}
 8000124:	20000080 	.word	0x20000080
 8000128:	00000000 	.word	0x00000000
 800012c:	08005bd8 	.word	0x08005bd8

08000130 <frame_dummy>:
 8000130:	b508      	push	{r3, lr}
 8000132:	4b03      	ldr	r3, [pc, #12]	@ (8000140 <frame_dummy+0x10>)
 8000134:	b11b      	cbz	r3, 800013e <frame_dummy+0xe>
 8000136:	4903      	ldr	r1, [pc, #12]	@ (8000144 <frame_dummy+0x14>)
 8000138:	4803      	ldr	r0, [pc, #12]	@ (8000148 <frame_dummy+0x18>)
 800013a:	f3af 8000 	nop.w
 800013e:	bd08      	pop	{r3, pc}
 8000140:	00000000 	.word	0x00000000
 8000144:	20000084 	.word	0x20000084
 8000148:	08005bd8 	.word	0x08005bd8

0800014c <__aeabi_frsub>:
 800014c:	f080 4000 	eor.w	r0, r0, #2147483648	@ 0x80000000
 8000150:	e002      	b.n	8000158 <__addsf3>
 8000152:	bf00      	nop

08000154 <__aeabi_fsub>:
 8000154:	f081 4100 	eor.w	r1, r1, #2147483648	@ 0x80000000

08000158 <__addsf3>:
 8000158:	0042      	lsls	r2, r0, #1
 800015a:	bf1f      	itttt	ne
 800015c:	ea5f 0341 	movsne.w	r3, r1, lsl #1
 8000160:	ea92 0f03 	teqne	r2, r3
 8000164:	ea7f 6c22 	mvnsne.w	ip, r2, asr #24
 8000168:	ea7f 6c23 	mvnsne.w	ip, r3, asr #24
 800016c:	d06a      	beq.n	8000244 <__addsf3+0xec>
 800016e:	ea4f 6212 	mov.w	r2, r2, lsr #24
 8000172:	ebd2 6313 	rsbs	r3, r2, r3, lsr #24
 8000176:	bfc1      	itttt	gt
 8000178:	18d2      	addgt	r2, r2, r3
 800017a:	4041      	eorgt	r1, r0
 800017c:	4048      	eorgt	r0, r1
 800017e:	4041      	eorgt	r1, r0
 8000180:	bfb8      	it	lt
 8000182:	425b      	neglt	r3, r3
 8000184:	2b19      	cmp	r3, #25
 8000186:	bf88      	it	hi
 8000188:	4770      	bxhi	lr
 800018a:	f010 4f00 	tst.w	r0, #2147483648	@ 0x80000000
 800018e:	f440 0000 	orr.w	r0, r0, #8388608	@ 0x800000
 8000192:	f020 407f 	bic.w	r0, r0, #4278190080	@ 0xff000000
 8000196:	bf18      	it	ne
 8000198:	4240      	negne	r0, r0
 800019a:	f011 4f00 	tst.w	r1, #2147483648	@ 0x80000000
 800019e:	f441 0100 	orr.w	r1, r1, #8388608	@ 0x800000
 80001a2:	f021 417f 	bic.w	r1, r1, #4278190080	@ 0xff000000
 80001a6:	bf18      	it	ne
 80001a8:	4249      	negne	r1, r1
 80001aa:	ea92 0f03 	teq	r2, r3
 80001ae:	d03f      	beq.n	8000230 <__addsf3+0xd8>
 80001b0:	f1a2 0201 	sub.w	r2, r2, #1
 80001b4:	fa41 fc03 	asr.w	ip, r1, r3
 80001b8:	eb10 000c 	adds.w	r0, r0, ip
 80001bc:	f1c3 0320 	rsb	r3, r3, #32
 80001c0:	fa01 f103 	lsl.w	r1, r1, r3
 80001c4:	f000 4300 	and.w	r3, r0, #2147483648	@ 0x80000000
 80001c8:	d502      	bpl.n	80001d0 <__addsf3+0x78>
 80001ca:	4249      	negs	r1, r1
 80001cc:	eb60 0040 	sbc.w	r0, r0, r0, lsl #1
 80001d0:	f5b0 0f00 	cmp.w	r0, #8388608	@ 0x800000
 80001d4:	d313      	bcc.n	80001fe <__addsf3+0xa6>
 80001d6:	f1b0 7f80 	cmp.w	r0, #16777216	@ 0x1000000
 80001da:	d306      	bcc.n	80001ea <__addsf3+0x92>
 80001dc:	0840      	lsrs	r0, r0, #1
 80001de:	ea4f 0131 	mov.w	r1, r1, rrx
 80001e2:	f102 0201 	add.w	r2, r2, #1
 80001e6:	2afe      	cmp	r2, #254	@ 0xfe
 80001e8:	d251      	bcs.n	800028e <__addsf3+0x136>
 80001ea:	f1b1 4f00 	cmp.w	r1, #2147483648	@ 0x80000000
 80001ee:	eb40 50c2 	adc.w	r0, r0, r2, lsl #23
 80001f2:	bf08      	it	eq
 80001f4:	f020 0001 	biceq.w	r0, r0, #1
 80001f8:	ea40 0003 	orr.w	r0, r0, r3
 80001fc:	4770      	bx	lr
 80001fe:	0049      	lsls	r1, r1, #1
 8000200:	eb40 0000 	adc.w	r0, r0, r0
 8000204:	3a01      	subs	r2, #1
 8000206:	bf28      	it	cs
 8000208:	f5b0 0f00 	cmpcs.w	r0, #8388608	@ 0x800000
 800020c:	d2ed      	bcs.n	80001ea <__addsf3+0x92>
 800020e:	fab0 fc80 	clz	ip, r0
 8000212:	f1ac 0c08 	sub.w	ip, ip, #8
 8000216:	ebb2 020c 	subs.w	r2, r2, ip
 800021a:	fa00 f00c 	lsl.w	r0, r0, ip
 800021e:	bfaa      	itet	ge
 8000220:	eb00 50c2 	addge.w	r0, r0, r2, lsl #23
 8000224:	4252      	neglt	r2, r2
 8000226:	4318      	orrge	r0, r3
 8000228:	bfbc      	itt	lt
 800022a:	40d0      	lsrlt	r0, r2
 800022c:	4318      	orrlt	r0, r3
 800022e:	4770      	bx	lr
 8000230:	f092 0f00 	teq	r2, #0
 8000234:	f481 0100 	eor.w	r1, r1, #8388608	@ 0x800000
 8000238:	bf06      	itte	eq
 800023a:	f480 0000 	eoreq.w	r0, r0, #8388608	@ 0x800000
 800023e:	3201      	addeq	r2, #1
 8000240:	3b01      	subne	r3, #1
 8000242:	e7b5      	b.n	80001b0 <__addsf3+0x58>
 8000244:	ea4f 0341 	mov.w	r3, r1, lsl #1
 8000248:	ea7f 6c22 	mvns.w	ip, r2, asr #24
 800024c:	bf18      	it	ne
 800024e:	ea7f 6c23 	mvnsne.w	ip, r3, asr #24
 8000252:	d021      	beq.n	8000298 <__addsf3+0x140>
 8000254:	ea92 0f03 	teq	r2, r3
 8000258:	d004      	beq.n	8000264 <__addsf3+0x10c>
 800025a:	f092 0f00 	teq	r2, #0
 800025e:	bf08      	it	eq
 8000260:	4608      	moveq	r0, r1
 8000262:	4770      	bx	lr
 8000264:	ea90 0f01 	teq	r0, r1
 8000268:	bf1c      	itt	ne
 800026a:	2000      	movne	r0, #0
 800026c:	4770      	bxne	lr
 800026e:	f012 4f7f 	tst.w	r2, #4278190080	@ 0xff000000
 8000272:	d104      	bne.n	800027e <__addsf3+0x126>
 8000274:	0040      	lsls	r0, r0, #1
 8000276:	bf28      	it	cs
 8000278:	f040 4000 	orrcs.w	r0, r0, #2147483648	@ 0x80000000
 800027c:	4770      	bx	lr
 800027e:	f112 7200 	adds.w	r2, r2, #33554432	@ 0x2000000
 8000282:	bf3c      	itt	cc
 8000284:	f500 0000 	addcc.w	r0, r0, #8388608	@ 0x800000
 8000288:	4770      	bxcc	lr
 800028a:	f000 4300 	and.w	r3, r0, #2147483648	@ 0x80000000
 800028e:	f043 40fe 	orr.w	r0, r3, #2130706432	@ 0x7f000000
 8000292:	f440 0000 	orr.w	r0, r0, #8388608	@ 0x800000
 8000296:	4770      	bx	lr
 8000298:	ea7f 6222 	mvns.w	r2, r2, asr #24
 800029c:	bf16      	itet	ne
 800029e:	4608      	movne	r0, r1
 80002a0:	ea7f 6323 	mvnseq.w	r3, r3, asr #24
 80002a4:	4601      	movne	r1, r0
 80002a6:	0242      	lsls	r2, r0, #9
 80002a8:	bf06      	itte	eq
 80002aa:	ea5f 2341 	movseq.w	r3, r1, lsl #9
 80002ae:	ea90 0f01 	teqeq	r0, r1
 80002b2:	f440 0080 	orrne.w	r0, r0, #4194304	@ 0x400000
 80002b6:	4770      	bx	lr

080002b8 <__aeabi_ui2f>:
 80002b8:	f04f 0300 	mov.w	r3, #0
 80002bc:	e004      	b.n	80002c8 <__aeabi_i2f+0x8>
 80002be:	bf00      	nop

080002c0 <__aeabi_i2f>:
 80002c0:	f010 4300 	ands.w	r3, r0, #2147483648	@ 0x80000000
 80002c4:	bf48      	it	mi
 80002c6:	4240      	negmi	r0, r0
 80002c8:	ea5f 0c00 	movs.w	ip, r0
 80002cc:	bf08      	it	eq
 80002ce:	4770      	bxeq	lr
 80002d0:	f043 4396 	orr.w	r3, r3, #1258291200	@ 0x4b000000
 80002d4:	4601      	mov	r1, r0
 80002d6:	f04f 0000 	mov.w	r0, #0
 80002da:	e01c      	b.n	8000316 <__aeabi_l2f+0x2a>

080002dc <__aeabi_ul2f>:
 80002dc:	ea50 0201 	orrs.w	r2, r0, r1
 80002e0:	bf08      	it	eq
 80002e2:	4770      	bxeq	lr
 80002e4:	f04f 0300 	mov.w	r3, #0
 80002e8:	e00a      	b.n	8000300 <__aeabi_l2f+0x14>
 80002ea:	bf00      	nop

080002ec <__aeabi_l2f>:
 80002ec:	ea50 0201 	orrs.w	r2, r0, r1
 80002f0:	bf08      	it	eq
 80002f2:	4770      	bxeq	lr
 80002f4:	f011 4300 	ands.w	r3, r1, #2147483648	@ 0x80000000
 80002f8:	d502      	bpl.n	8000300 <__aeabi_l2f+0x14>
 80002fa:	4240      	negs	r0, r0
 80002fc:	eb61 0141 	sbc.w	r1, r1, r1, lsl #1
 8000300:	ea5f 0c01 	movs.w	ip, r1
 8000304:	bf02      	ittt	eq
 8000306:	4684      	moveq	ip, r0
 8000308:	4601      	moveq	r1, r0
 800030a:	2000      	moveq	r0, #0
 800030c:	f043 43b6 	orr.w	r3, r3, #1526726656	@ 0x5b000000
 8000310:	bf08      	it	eq
 8000312:	f1a3 5380 	subeq.w	r3, r3, #268435456	@ 0x10000000
 8000316:	f5a3 0300 	sub.w	r3, r3, #8388608	@ 0x800000
 800031a:	fabc f28c 	clz	r2, ip
 800031e:	3a08      	subs	r2, #8
 8000320:	eba3 53c2 	sub.w	r3, r3, r2, lsl #23
 8000324:	db10      	blt.n	8000348 <__aeabi_l2f+0x5c>
 8000326:	fa01 fc02 	lsl.w	ip, r1, r2
 800032a:	4463      	add	r3, ip
 800032c:	fa00 fc02 	lsl.w	ip, r0, r2
 8000330:	f1c2 0220 	rsb	r2, r2, #32
 8000334:	f1bc 4f00 	cmp.w	ip, #2147483648	@ 0x80000000
 8000338:	fa20 f202 	lsr.w	r2, r0, r2
 800033c:	eb43 0002 	adc.w	r0, r3, r2
 8000340:	bf08      	it	eq
 8000342:	f020 0001 	biceq.w	r0, r0, #1
 8000346:	4770      	bx	lr
 8000348:	f102 0220 	add.w	r2, r2, #32
 800034c:	fa01 fc02 	lsl.w	ip, r1, r2
 8000350:	f1c2 0220 	rsb	r2, r2, #32
 8000354:	ea50 004c 	orrs.w	r0, r0, ip, lsl #1
 8000358:	fa21 f202 	lsr.w	r2, r1, r2
 800035c:	eb43 0002 	adc.w	r0, r3, r2
 8000360:	bf08      	it	eq
 8000362:	ea20 70dc 	biceq.w	r0, r0, ip, lsr #31
 8000366:	4770      	bx	lr

08000368 <__aeabi_fmul>:
 8000368:	f04f 0cff 	mov.w	ip, #255	@ 0xff
 800036c:	ea1c 52d0 	ands.w	r2, ip, r0, lsr #23
 8000370:	bf1e      	ittt	ne
 8000372:	ea1c 53d1 	andsne.w	r3, ip, r1, lsr #23
 8000376:	ea92 0f0c 	teqne	r2, ip
 800037a:	ea93 0f0c 	teqne	r3, ip
 800037e:	d06f      	beq.n	8000460 <__aeabi_fmul+0xf8>
 8000380:	441a      	add	r2, r3
 8000382:	ea80 0c01 	eor.w	ip, r0, r1
 8000386:	0240      	lsls	r0, r0, #9
 8000388:	bf18      	it	ne
 800038a:	ea5f 2141 	movsne.w	r1, r1, lsl #9
 800038e:	d01e      	beq.n	80003ce <__aeabi_fmul+0x66>
 8000390:	f04f 6300 	mov.w	r3, #134217728	@ 0x8000000
 8000394:	ea43 1050 	orr.w	r0, r3, r0, lsr #5
 8000398:	ea43 1151 	orr.w	r1, r3, r1, lsr #5
 800039c:	fba0 3101 	umull	r3, r1, r0, r1
 80003a0:	f00c 4000 	and.w	r0, ip, #2147483648	@ 0x80000000
 80003a4:	f5b1 0f00 	cmp.w	r1, #8388608	@ 0x800000
 80003a8:	bf3e      	ittt	cc
 80003aa:	0049      	lslcc	r1, r1, #1
 80003ac:	ea41 71d3 	orrcc.w	r1, r1, r3, lsr #31
 80003b0:	005b      	lslcc	r3, r3, #1
 80003b2:	ea40 0001 	orr.w	r0, r0, r1
 80003b6:	f162 027f 	sbc.w	r2, r2, #127	@ 0x7f
 80003ba:	2afd      	cmp	r2, #253	@ 0xfd
 80003bc:	d81d      	bhi.n	80003fa <__aeabi_fmul+0x92>
 80003be:	f1b3 4f00 	cmp.w	r3, #2147483648	@ 0x80000000
 80003c2:	eb40 50c2 	adc.w	r0, r0, r2, lsl #23
 80003c6:	bf08      	it	eq
 80003c8:	f020 0001 	biceq.w	r0, r0, #1
 80003cc:	4770      	bx	lr
 80003ce:	f090 0f00 	teq	r0, #0
 80003d2:	f00c 4c00 	and.w	ip, ip, #2147483648	@ 0x80000000
 80003d6:	bf08      	it	eq
 80003d8:	0249      	lsleq	r1, r1, #9
 80003da:	ea4c 2050 	orr.w	r0, ip, r0, lsr #9
 80003de:	ea40 2051 	orr.w	r0, r0, r1, lsr #9
 80003e2:	3a7f      	subs	r2, #127	@ 0x7f
 80003e4:	bfc2      	ittt	gt
 80003e6:	f1d2 03ff 	rsbsgt	r3, r2, #255	@ 0xff
 80003ea:	ea40 50c2 	orrgt.w	r0, r0, r2, lsl #23
 80003ee:	4770      	bxgt	lr
 80003f0:	f440 0000 	orr.w	r0, r0, #8388608	@ 0x800000
 80003f4:	f04f 0300 	mov.w	r3, #0
 80003f8:	3a01      	subs	r2, #1
 80003fa:	dc5d      	bgt.n	80004b8 <__aeabi_fmul+0x150>
 80003fc:	f112 0f19 	cmn.w	r2, #25
 8000400:	bfdc      	itt	le
 8000402:	f000 4000 	andle.w	r0, r0, #2147483648	@ 0x80000000
 8000406:	4770      	bxle	lr
 8000408:	f1c2 0200 	rsb	r2, r2, #0
 800040c:	0041      	lsls	r1, r0, #1
 800040e:	fa21 f102 	lsr.w	r1, r1, r2
 8000412:	f1c2 0220 	rsb	r2, r2, #32
 8000416:	fa00 fc02 	lsl.w	ip, r0, r2
 800041a:	ea5f 0031 	movs.w	r0, r1, rrx
 800041e:	f140 0000 	adc.w	r0, r0, #0
 8000422:	ea53 034c 	orrs.w	r3, r3, ip, lsl #1
 8000426:	bf08      	it	eq
 8000428:	ea20 70dc 	biceq.w	r0, r0, ip, lsr #31
 800042c:	4770      	bx	lr
 800042e:	f092 0f00 	teq	r2, #0
 8000432:	f000 4c00 	and.w	ip, r0, #2147483648	@ 0x80000000
 8000436:	bf02      	ittt	eq
 8000438:	0040      	lsleq	r0, r0, #1
 800043a:	f410 0f00 	tsteq.w	r0, #8388608	@ 0x800000
 800043e:	3a01      	subeq	r2, #1
 8000440:	d0f9      	beq.n	8000436 <__aeabi_fmul+0xce>
 8000442:	ea40 000c 	orr.w	r0, r0, ip
 8000446:	f093 0f00 	teq	r3, #0
 800044a:	f001 4c00 	and.w	ip, r1, #2147483648	@ 0x80000000
 800044e:	bf02      	ittt	eq
 8000450:	0049      	lsleq	r1, r1, #1
 8000452:	f411 0f00 	tsteq.w	r1, #8388608	@ 0x800000
 8000456:	3b01      	subeq	r3, #1
 8000458:	d0f9      	beq.n	800044e <__aeabi_fmul+0xe6>
 800045a:	ea41 010c 	orr.w	r1, r1, ip
 800045e:	e78f      	b.n	8000380 <__aeabi_fmul+0x18>
 8000460:	ea0c 53d1 	and.w	r3, ip, r1, lsr #23
 8000464:	ea92 0f0c 	teq	r2, ip
 8000468:	bf18      	it	ne
 800046a:	ea93 0f0c 	teqne	r3, ip
 800046e:	d00a      	beq.n	8000486 <__aeabi_fmul+0x11e>
 8000470:	f030 4c00 	bics.w	ip, r0, #2147483648	@ 0x80000000
 8000474:	bf18      	it	ne
 8000476:	f031 4c00 	bicsne.w	ip, r1, #2147483648	@ 0x80000000
 800047a:	d1d8      	bne.n	800042e <__aeabi_fmul+0xc6>
 800047c:	ea80 0001 	eor.w	r0, r0, r1
 8000480:	f000 4000 	and.w	r0, r0, #2147483648	@ 0x80000000
 8000484:	4770      	bx	lr
 8000486:	f090 0f00 	teq	r0, #0
 800048a:	bf17      	itett	ne
 800048c:	f090 4f00 	teqne	r0, #2147483648	@ 0x80000000
 8000490:	4608      	moveq	r0, r1
 8000492:	f091 0f00 	teqne	r1, #0
 8000496:	f091 4f00 	teqne	r1, #2147483648	@ 0x80000000
 800049a:	d014      	beq.n	80004c6 <__aeabi_fmul+0x15e>
 800049c:	ea92 0f0c 	teq	r2, ip
 80004a0:	d101      	bne.n	80004a6 <__aeabi_fmul+0x13e>
 80004a2:	0242      	lsls	r2, r0, #9
 80004a4:	d10f      	bne.n	80004c6 <__aeabi_fmul+0x15e>
 80004a6:	ea93 0f0c 	teq	r3, ip
 80004aa:	d103      	bne.n	80004b4 <__aeabi_fmul+0x14c>
 80004ac:	024b      	lsls	r3, r1, #9
 80004ae:	bf18      	it	ne
 80004b0:	4608      	movne	r0, r1
 80004b2:	d108      	bne.n	80004c6 <__aeabi_fmul+0x15e>
 80004b4:	ea80 0001 	eor.w	r0, r0, r1
 80004b8:	f000 4000 	and.w	r0, r0, #2147483648	@ 0x80000000
 80004bc:	f040 40fe 	orr.w	r0, r0, #2130706432	@ 0x7f000000
 80004c0:	f440 0000 	orr.w	r0, r0, #8388608	@ 0x800000
 80004c4:	4770      	bx	lr
 80004c6:	f040 40fe 	orr.w	r0, r0, #2130706432	@ 0x7f000000
 80004ca:	f440 0040 	orr.w	r0, r0, #12582912	@ 0xc00000
 80004ce:	4770      	bx	lr

080004d0 <__aeabi_fdiv>:
 80004d0:	f04f 0cff 	mov.w	ip, #255	@ 0xff
 80004d4:	ea1c 52d0 	ands.w	r2, ip, r0, lsr #23
 80004d8:	bf1e      	ittt	ne
 80004da:	ea1c 53d1 	andsne.w	r3, ip, r1, lsr #23
 80004de:	ea92 0f0c 	teqne	r2, ip
 80004e2:	ea93 0f0c 	teqne	r3, ip
 80004e6:	d069      	beq.n	80005bc <__aeabi_fdiv+0xec>
 80004e8:	eba2 0203 	sub.w	r2, r2, r3
 80004ec:	ea80 0c01 	eor.w	ip, r0, r1
 80004f0:	0249      	lsls	r1, r1, #9
 80004f2:	ea4f 2040 	mov.w	r0, r0, lsl #9
 80004f6:	d037      	beq.n	8000568 <__aeabi_fdiv+0x98>
 80004f8:	f04f 5380 	mov.w	r3, #268435456	@ 0x10000000
 80004fc:	ea43 1111 	orr.w	r1, r3, r1, lsr #4
 8000500:	ea43 1310 	orr.w	r3, r3, r0, lsr #4
 8000504:	f00c 4000 	and.w	r0, ip, #2147483648	@ 0x80000000
 8000508:	428b      	cmp	r3, r1
 800050a:	bf38      	it	cc
 800050c:	005b      	lslcc	r3, r3, #1
 800050e:	f142 027d 	adc.w	r2, r2, #125	@ 0x7d
 8000512:	f44f 0c00 	mov.w	ip, #8388608	@ 0x800000
 8000516:	428b      	cmp	r3, r1
 8000518:	bf24      	itt	cs
 800051a:	1a5b      	subcs	r3, r3, r1
 800051c:	ea40 000c 	orrcs.w	r0, r0, ip
 8000520:	ebb3 0f51 	cmp.w	r3, r1, lsr #1
 8000524:	bf24      	itt	cs
 8000526:	eba3 0351 	subcs.w	r3, r3, r1, lsr #1
 800052a:	ea40 005c 	orrcs.w	r0, r0, ip, lsr #1
 800052e:	ebb3 0f91 	cmp.w	r3, r1, lsr #2
 8000532:	bf24      	itt	cs
 8000534:	eba3 0391 	subcs.w	r3, r3, r1, lsr #2
 8000538:	ea40 009c 	orrcs.w	r0, r0, ip, lsr #2
 800053c:	ebb3 0fd1 	cmp.w	r3, r1, lsr #3
 8000540:	bf24      	itt	cs
 8000542:	eba3 03d1 	subcs.w	r3, r3, r1, lsr #3
 8000546:	ea40 00dc 	orrcs.w	r0, r0, ip, lsr #3
 800054a:	011b      	lsls	r3, r3, #4
 800054c:	bf18      	it	ne
 800054e:	ea5f 1c1c 	movsne.w	ip, ip, lsr #4
 8000552:	d1e0      	bne.n	8000516 <__aeabi_fdiv+0x46>
 8000554:	2afd      	cmp	r2, #253	@ 0xfd
 8000556:	f63f af50 	bhi.w	80003fa <__aeabi_fmul+0x92>
 800055a:	428b      	cmp	r3, r1
 800055c:	eb40 50c2 	adc.w	r0, r0, r2, lsl #23
 8000560:	bf08      	it	eq
 8000562:	f020 0001 	biceq.w	r0, r0, #1
 8000566:	4770      	bx	lr
 8000568:	f00c 4c00 	and.w	ip, ip, #2147483648	@ 0x80000000
 800056c:	ea4c 2050 	orr.w	r0, ip, r0, lsr #9
 8000570:	327f      	adds	r2, #127	@ 0x7f
 8000572:	bfc2      	ittt	gt
 8000574:	f1d2 03ff 	rsbsgt	r3, r2, #255	@ 0xff
 8000578:	ea40 50c2 	orrgt.w	r0, r0, r2, lsl #23
 800057c:	4770      	bxgt	lr
 800057e:	f440 0000 	orr.w	r0, r0, #8388608	@ 0x800000
 8000582:	f04f 0300 	mov.w	r3, #0
 8000586:	3a01      	subs	r2, #1
 8000588:	e737      	b.n	80003fa <__aeabi_fmul+0x92>
 800058a:	f092 0f00 	teq	r2, #0
 800058e:	f000 4c00 	and.w	ip, r0, #2147483648	@ 0x80000000
 8000592:	bf02      	ittt	eq
 8000594:	0040      	lsleq	r0, r0, #1
 8000596:	f410 0f00 	tsteq.w	r0, #8388608	@ 0x800000
 800059a:	3a01      	subeq	r2, #1
 800059c:	d0f9      	beq.n	8000592 <__aeabi_fdiv+0xc2>
 800059e:	ea40 000c 	orr.w	r0, r0, ip
 80005a2:	f093 0f00 	teq	r3, #0
 80005a6:	f001 4c00 	and.w	ip, r1, #2147483648	@ 0x80000000
 80005aa:	bf02      	ittt	eq
 80005ac:	0049      	lsleq	r1, r1, #1
 80005ae:	f411 0f00 	tsteq.w	r1, #8388608	@ 0x800000
 80005b2:	3b01      	subeq	r3, #1
 80005b4:	d0f9      	beq.n	80005aa <__aeabi_fdiv+0xda>
 80005b6:	ea41 010c 	orr.w	r1, r1, ip
 80005ba:	e795      	b.n	80004e8 <__aeabi_fdiv+0x18>
 80005bc:	ea0c 53d1 	and.w	r3, ip, r1, lsr #23
 80005c0:	ea92 0f0c 	teq	r2, ip
 80005c4:	d108      	bne.n	80005d8 <__aeabi_fdiv+0x108>
 80005c6:	0242      	lsls	r2, r0, #9
 80005c8:	f47f af7d 	bne.w	80004c6 <__aeabi_fmul+0x15e>
 80005cc:	ea93 0f0c 	teq	r3, ip
 80005d0:	f47f af70 	bne.w	80004b4 <__aeabi_fmul+0x14c>
 80005d4:	4608      	mov	r0, r1
 80005d6:	e776      	b.n	80004c6 <__aeabi_fmul+0x15e>
 80005d8:	ea93 0f0c 	teq	r3, ip
 80005dc:	d104      	bne.n	80005e8 <__aeabi_fdiv+0x118>
 80005de:	024b      	lsls	r3, r1, #9
 80005e0:	f43f af4c 	beq.w	800047c <__aeabi_fmul+0x114>
 80005e4:	4608      	mov	r0, r1
 80005e6:	e76e      	b.n	80004c6 <__aeabi_fmul+0x15e>
 80005e8:	f030 4c00 	bics.w	ip, r0, #2147483648	@ 0x80000000
 80005ec:	bf18      	it	ne
 80005ee:	f031 4c00 	bicsne.w	ip, r1, #2147483648	@ 0x80000000
 80005f2:	d1ca      	bne.n	800058a <__aeabi_fdiv+0xba>
 80005f4:	f030 4200 	bics.w	r2, r0, #2147483648	@ 0x80000000
 80005f8:	f47f af5c 	bne.w	80004b4 <__aeabi_fmul+0x14c>
 80005fc:	f031 4300 	bics.w	r3, r1, #2147483648	@ 0x80000000
 8000600:	f47f af3c 	bne.w	800047c <__aeabi_fmul+0x114>
 8000604:	e75f      	b.n	80004c6 <__aeabi_fmul+0x15e>
 8000606:	bf00      	nop

08000608 <__gesf2>:
 8000608:	f04f 3cff 	mov.w	ip, #4294967295
 800060c:	e006      	b.n	800061c <__cmpsf2+0x4>
 800060e:	bf00      	nop

08000610 <__lesf2>:
 8000610:	f04f 0c01 	mov.w	ip, #1
 8000614:	e002      	b.n	800061c <__cmpsf2+0x4>
 8000616:	bf00      	nop

08000618 <__cmpsf2>:
 8000618:	f04f 0c01 	mov.w	ip, #1
 800061c:	f84d cd04 	str.w	ip, [sp, #-4]!
 8000620:	ea4f 0240 	mov.w	r2, r0, lsl #1
 8000624:	ea4f 0341 	mov.w	r3, r1, lsl #1
 8000628:	ea7f 6c22 	mvns.w	ip, r2, asr #24
 800062c:	bf18      	it	ne
 800062e:	ea7f 6c23 	mvnsne.w	ip, r3, asr #24
 8000632:	d011      	beq.n	8000658 <__cmpsf2+0x40>
 8000634:	b001      	add	sp, #4
 8000636:	ea52 0c53 	orrs.w	ip, r2, r3, lsr #1
 800063a:	bf18      	it	ne
 800063c:	ea90 0f01 	teqne	r0, r1
 8000640:	bf58      	it	pl
 8000642:	ebb2 0003 	subspl.w	r0, r2, r3
 8000646:	bf88      	it	hi
 8000648:	17c8      	asrhi	r0, r1, #31
 800064a:	bf38      	it	cc
 800064c:	ea6f 70e1 	mvncc.w	r0, r1, asr #31
 8000650:	bf18      	it	ne
 8000652:	f040 0001 	orrne.w	r0, r0, #1
 8000656:	4770      	bx	lr
 8000658:	ea7f 6c22 	mvns.w	ip, r2, asr #24
 800065c:	d102      	bne.n	8000664 <__cmpsf2+0x4c>
 800065e:	ea5f 2c40 	movs.w	ip, r0, lsl #9
 8000662:	d105      	bne.n	8000670 <__cmpsf2+0x58>
 8000664:	ea7f 6c23 	mvns.w	ip, r3, asr #24
 8000668:	d1e4      	bne.n	8000634 <__cmpsf2+0x1c>
 800066a:	ea5f 2c41 	movs.w	ip, r1, lsl #9
 800066e:	d0e1      	beq.n	8000634 <__cmpsf2+0x1c>
 8000670:	f85d 0b04 	ldr.w	r0, [sp], #4
 8000674:	4770      	bx	lr
 8000676:	bf00      	nop

08000678 <__aeabi_cfrcmple>:
 8000678:	4684      	mov	ip, r0
 800067a:	4608      	mov	r0, r1
 800067c:	4661      	mov	r1, ip
 800067e:	e7ff      	b.n	8000680 <__aeabi_cfcmpeq>

08000680 <__aeabi_cfcmpeq>:
 8000680:	b50f      	push	{r0, r1, r2, r3, lr}
 8000682:	f7ff ffc9 	bl	8000618 <__cmpsf2>
 8000686:	2800      	cmp	r0, #0
 8000688:	bf48      	it	mi
 800068a:	f110 0f00 	cmnmi.w	r0, #0
 800068e:	bd0f      	pop	{r0, r1, r2, r3, pc}

08000690 <__aeabi_fcmpeq>:
 8000690:	f84d ed08 	str.w	lr, [sp, #-8]!
 8000694:	f7ff fff4 	bl	8000680 <__aeabi_cfcmpeq>
 8000698:	bf0c      	ite	eq
 800069a:	2001      	moveq	r0, #1
 800069c:	2000      	movne	r0, #0
 800069e:	f85d fb08 	ldr.w	pc, [sp], #8
 80006a2:	bf00      	nop

080006a4 <__aeabi_fcmplt>:
 80006a4:	f84d ed08 	str.w	lr, [sp, #-8]!
 80006a8:	f7ff ffea 	bl	8000680 <__aeabi_cfcmpeq>
 80006ac:	bf34      	ite	cc
 80006ae:	2001      	movcc	r0, #1
 80006b0:	2000      	movcs	r0, #0
 80006b2:	f85d fb08 	ldr.w	pc, [sp], #8
 80006b6:	bf00      	nop

080006b8 <__aeabi_fcmple>:
 80006b8:	f84d ed08 	str.w	lr, [sp, #-8]!
 80006bc:	f7ff ffe0 	bl	8000680 <__aeabi_cfcmpeq>
 80006c0:	bf94      	ite	ls
 80006c2:	2001      	movls	r0, #1
 80006c4:	2000      	movhi	r0, #0
 80006c6:	f85d fb08 	ldr.w	pc, [sp], #8
 80006ca:	bf00      	nop

080006cc <__aeabi_fcmpge>:
 80006cc:	f84d ed08 	str.w	lr, [sp, #-8]!
 80006d0:	f7ff ffd2 	bl	8000678 <__aeabi_cfrcmple>
 80006d4:	bf94      	ite	ls
 80006d6:	2001      	movls	r0, #1
 80006d8:	2000      	movhi	r0, #0
 80006da:	f85d fb08 	ldr.w	pc, [sp], #8
 80006de:	bf00      	nop

080006e0 <__aeabi_fcmpgt>:
 80006e0:	f84d ed08 	str.w	lr, [sp, #-8]!
 80006e4:	f7ff ffc8 	bl	8000678 <__aeabi_cfrcmple>
 80006e8:	bf34      	ite	cc
 80006ea:	2001      	movcc	r0, #1
 80006ec:	2000      	movcs	r0, #0
 80006ee:	f85d fb08 	ldr.w	pc, [sp], #8
 80006f2:	bf00      	nop

080006f4 <__aeabi_f2iz>:
 80006f4:	ea4f 0240 	mov.w	r2, r0, lsl #1
 80006f8:	f1b2 4ffe 	cmp.w	r2, #2130706432	@ 0x7f000000
 80006fc:	d30f      	bcc.n	800071e <__aeabi_f2iz+0x2a>
 80006fe:	f04f 039e 	mov.w	r3, #158	@ 0x9e
 8000702:	ebb3 6212 	subs.w	r2, r3, r2, lsr #24
 8000706:	d90d      	bls.n	8000724 <__aeabi_f2iz+0x30>
 8000708:	ea4f 2300 	mov.w	r3, r0, lsl #8
 800070c:	f043 4300 	orr.w	r3, r3, #2147483648	@ 0x80000000
 8000710:	f010 4f00 	tst.w	r0, #2147483648	@ 0x80000000
 8000714:	fa23 f002 	lsr.w	r0, r3, r2
 8000718:	bf18      	it	ne
 800071a:	4240      	negne	r0, r0
 800071c:	4770      	bx	lr
 800071e:	f04f 0000 	mov.w	r0, #0
 8000722:	4770      	bx	lr
 8000724:	f112 0f61 	cmn.w	r2, #97	@ 0x61
 8000728:	d101      	bne.n	800072e <__aeabi_f2iz+0x3a>
 800072a:	0242      	lsls	r2, r0, #9
 800072c:	d105      	bne.n	800073a <__aeabi_f2iz+0x46>
 800072e:	f010 4000 	ands.w	r0, r0, #2147483648	@ 0x80000000
 8000732:	bf08      	it	eq
 8000734:	f06f 4000 	mvneq.w	r0, #2147483648	@ 0x80000000
 8000738:	4770      	bx	lr
 800073a:	f04f 0000 	mov.w	r0, #0
 800073e:	4770      	bx	lr

08000740 <MX_ADC1_Init>:

ADC_HandleTypeDef hadc1;

/* ADC1 init function */
void MX_ADC1_Init(void)
{
 8000740:	b580      	push	{r7, lr}
 8000742:	b084      	sub	sp, #16
 8000744:	af00      	add	r7, sp, #0

  /* USER CODE BEGIN ADC1_Init 0 */

  /* USER CODE END ADC1_Init 0 */

  ADC_ChannelConfTypeDef sConfig = {0};
 8000746:	1d3b      	adds	r3, r7, #4
 8000748:	2200      	movs	r2, #0
 800074a:	601a      	str	r2, [r3, #0]
 800074c:	605a      	str	r2, [r3, #4]
 800074e:	609a      	str	r2, [r3, #8]

  /* USER CODE END ADC1_Init 1 */

  /** Common config
  */
  hadc1.Instance = ADC1;
 8000750:	4b18      	ldr	r3, [pc, #96]	@ (80007b4 <MX_ADC1_Init+0x74>)
 8000752:	4a19      	ldr	r2, [pc, #100]	@ (80007b8 <MX_ADC1_Init+0x78>)
 8000754:	601a      	str	r2, [r3, #0]
  hadc1.Init.ScanConvMode = ADC_SCAN_DISABLE;
 8000756:	4b17      	ldr	r3, [pc, #92]	@ (80007b4 <MX_ADC1_Init+0x74>)
 8000758:	2200      	movs	r2, #0
 800075a:	609a      	str	r2, [r3, #8]
  hadc1.Init.ContinuousConvMode = DISABLE;
 800075c:	4b15      	ldr	r3, [pc, #84]	@ (80007b4 <MX_ADC1_Init+0x74>)
 800075e:	2200      	movs	r2, #0
 8000760:	731a      	strb	r2, [r3, #12]
  hadc1.Init.DiscontinuousConvMode = DISABLE;
 8000762:	4b14      	ldr	r3, [pc, #80]	@ (80007b4 <MX_ADC1_Init+0x74>)
 8000764:	2200      	movs	r2, #0
 8000766:	751a      	strb	r2, [r3, #20]
  hadc1.Init.ExternalTrigConv = ADC_SOFTWARE_START;
 8000768:	4b12      	ldr	r3, [pc, #72]	@ (80007b4 <MX_ADC1_Init+0x74>)
 800076a:	f44f 2260 	mov.w	r2, #917504	@ 0xe0000
 800076e:	61da      	str	r2, [r3, #28]
  hadc1.Init.DataAlign = ADC_DATAALIGN_RIGHT;
 8000770:	4b10      	ldr	r3, [pc, #64]	@ (80007b4 <MX_ADC1_Init+0x74>)
 8000772:	2200      	movs	r2, #0
 8000774:	605a      	str	r2, [r3, #4]
  hadc1.Init.NbrOfConversion = 1;
 8000776:	4b0f      	ldr	r3, [pc, #60]	@ (80007b4 <MX_ADC1_Init+0x74>)
 8000778:	2201      	movs	r2, #1
 800077a:	611a      	str	r2, [r3, #16]
  if (HAL_ADC_Init(&hadc1) != HAL_OK)
 800077c:	480d      	ldr	r0, [pc, #52]	@ (80007b4 <MX_ADC1_Init+0x74>)
 800077e:	f001 fdcb 	bl	8002318 <HAL_ADC_Init>
 8000782:	4603      	mov	r3, r0
 8000784:	2b00      	cmp	r3, #0
 8000786:	d001      	beq.n	800078c <MX_ADC1_Init+0x4c>
  {
    Error_Handler();
 8000788:	f000 f95c 	bl	8000a44 <Error_Handler>
  }

  /** Configure Regular Channel
  */
  sConfig.Channel = ADC_CHANNEL_1;
 800078c:	2301      	movs	r3, #1
 800078e:	607b      	str	r3, [r7, #4]
  sConfig.Rank = ADC_REGULAR_RANK_1;
 8000790:	2301      	movs	r3, #1
 8000792:	60bb      	str	r3, [r7, #8]
  sConfig.SamplingTime = ADC_SAMPLETIME_239CYCLES_5;
 8000794:	2307      	movs	r3, #7
 8000796:	60fb      	str	r3, [r7, #12]
  if (HAL_ADC_ConfigChannel(&hadc1, &sConfig) != HAL_OK)
 8000798:	1d3b      	adds	r3, r7, #4
 800079a:	4619      	mov	r1, r3
 800079c:	4805      	ldr	r0, [pc, #20]	@ (80007b4 <MX_ADC1_Init+0x74>)
 800079e:	f002 f87f 	bl	80028a0 <HAL_ADC_ConfigChannel>
 80007a2:	4603      	mov	r3, r0
 80007a4:	2b00      	cmp	r3, #0
 80007a6:	d001      	beq.n	80007ac <MX_ADC1_Init+0x6c>
  {
    Error_Handler();
 80007a8:	f000 f94c 	bl	8000a44 <Error_Handler>
  }
  /* USER CODE BEGIN ADC1_Init 2 */

  /* USER CODE END ADC1_Init 2 */

}
 80007ac:	bf00      	nop
 80007ae:	3710      	adds	r7, #16
 80007b0:	46bd      	mov	sp, r7
 80007b2:	bd80      	pop	{r7, pc}
 80007b4:	2000009c 	.word	0x2000009c
 80007b8:	40012400 	.word	0x40012400

080007bc <HAL_ADC_MspInit>:

void HAL_ADC_MspInit(ADC_HandleTypeDef* adcHandle)
{
 80007bc:	b580      	push	{r7, lr}
 80007be:	b088      	sub	sp, #32
 80007c0:	af00      	add	r7, sp, #0
 80007c2:	6078      	str	r0, [r7, #4]

  GPIO_InitTypeDef GPIO_InitStruct = {0};
 80007c4:	f107 0310 	add.w	r3, r7, #16
 80007c8:	2200      	movs	r2, #0
 80007ca:	601a      	str	r2, [r3, #0]
 80007cc:	605a      	str	r2, [r3, #4]
 80007ce:	609a      	str	r2, [r3, #8]
 80007d0:	60da      	str	r2, [r3, #12]
  if(adcHandle->Instance==ADC1)
 80007d2:	687b      	ldr	r3, [r7, #4]
 80007d4:	681b      	ldr	r3, [r3, #0]
 80007d6:	4a14      	ldr	r2, [pc, #80]	@ (8000828 <HAL_ADC_MspInit+0x6c>)
 80007d8:	4293      	cmp	r3, r2
 80007da:	d121      	bne.n	8000820 <HAL_ADC_MspInit+0x64>
  {
  /* USER CODE BEGIN ADC1_MspInit 0 */

  /* USER CODE END ADC1_MspInit 0 */
    /* ADC1 clock enable */
    __HAL_RCC_ADC1_CLK_ENABLE();
 80007dc:	4b13      	ldr	r3, [pc, #76]	@ (800082c <HAL_ADC_MspInit+0x70>)
 80007de:	699b      	ldr	r3, [r3, #24]
 80007e0:	4a12      	ldr	r2, [pc, #72]	@ (800082c <HAL_ADC_MspInit+0x70>)
 80007e2:	f443 7300 	orr.w	r3, r3, #512	@ 0x200
 80007e6:	6193      	str	r3, [r2, #24]
 80007e8:	4b10      	ldr	r3, [pc, #64]	@ (800082c <HAL_ADC_MspInit+0x70>)
 80007ea:	699b      	ldr	r3, [r3, #24]
 80007ec:	f403 7300 	and.w	r3, r3, #512	@ 0x200
 80007f0:	60fb      	str	r3, [r7, #12]
 80007f2:	68fb      	ldr	r3, [r7, #12]

    __HAL_RCC_GPIOA_CLK_ENABLE();
 80007f4:	4b0d      	ldr	r3, [pc, #52]	@ (800082c <HAL_ADC_MspInit+0x70>)
 80007f6:	699b      	ldr	r3, [r3, #24]
 80007f8:	4a0c      	ldr	r2, [pc, #48]	@ (800082c <HAL_ADC_MspInit+0x70>)
 80007fa:	f043 0304 	orr.w	r3, r3, #4
 80007fe:	6193      	str	r3, [r2, #24]
 8000800:	4b0a      	ldr	r3, [pc, #40]	@ (800082c <HAL_ADC_MspInit+0x70>)
 8000802:	699b      	ldr	r3, [r3, #24]
 8000804:	f003 0304 	and.w	r3, r3, #4
 8000808:	60bb      	str	r3, [r7, #8]
 800080a:	68bb      	ldr	r3, [r7, #8]
    /**ADC1 GPIO Configuration
    PA1     ------> ADC1_IN1
    */
    GPIO_InitStruct.Pin = GPIO_PIN_1;
 800080c:	2302      	movs	r3, #2
 800080e:	613b      	str	r3, [r7, #16]
    GPIO_InitStruct.Mode = GPIO_MODE_ANALOG;
 8000810:	2303      	movs	r3, #3
 8000812:	617b      	str	r3, [r7, #20]
    HAL_GPIO_Init(GPIOA, &GPIO_InitStruct);
 8000814:	f107 0310 	add.w	r3, r7, #16
 8000818:	4619      	mov	r1, r3
 800081a:	4805      	ldr	r0, [pc, #20]	@ (8000830 <HAL_ADC_MspInit+0x74>)
 800081c:	f002 fb90 	bl	8002f40 <HAL_GPIO_Init>

  /* USER CODE BEGIN ADC1_MspInit 1 */

  /* USER CODE END ADC1_MspInit 1 */
  }
}
 8000820:	bf00      	nop
 8000822:	3720      	adds	r7, #32
 8000824:	46bd      	mov	sp, r7
 8000826:	bd80      	pop	{r7, pc}
 8000828:	40012400 	.word	0x40012400
 800082c:	40021000 	.word	0x40021000
 8000830:	40010800 	.word	0x40010800

08000834 <MX_GPIO_Init>:
        * Output
        * EVENT_OUT
        * EXTI
*/
void MX_GPIO_Init(void)
{
 8000834:	b580      	push	{r7, lr}
 8000836:	b086      	sub	sp, #24
 8000838:	af00      	add	r7, sp, #0

  GPIO_InitTypeDef GPIO_InitStruct = {0};
 800083a:	f107 0308 	add.w	r3, r7, #8
 800083e:	2200      	movs	r2, #0
 8000840:	601a      	str	r2, [r3, #0]
 8000842:	605a      	str	r2, [r3, #4]
 8000844:	609a      	str	r2, [r3, #8]
 8000846:	60da      	str	r2, [r3, #12]

  /* GPIO Ports Clock Enable */
  __HAL_RCC_GPIOA_CLK_ENABLE();
 8000848:	4b2a      	ldr	r3, [pc, #168]	@ (80008f4 <MX_GPIO_Init+0xc0>)
 800084a:	699b      	ldr	r3, [r3, #24]
 800084c:	4a29      	ldr	r2, [pc, #164]	@ (80008f4 <MX_GPIO_Init+0xc0>)
 800084e:	f043 0304 	orr.w	r3, r3, #4
 8000852:	6193      	str	r3, [r2, #24]
 8000854:	4b27      	ldr	r3, [pc, #156]	@ (80008f4 <MX_GPIO_Init+0xc0>)
 8000856:	699b      	ldr	r3, [r3, #24]
 8000858:	f003 0304 	and.w	r3, r3, #4
 800085c:	607b      	str	r3, [r7, #4]
 800085e:	687b      	ldr	r3, [r7, #4]
  __HAL_RCC_GPIOB_CLK_ENABLE();
 8000860:	4b24      	ldr	r3, [pc, #144]	@ (80008f4 <MX_GPIO_Init+0xc0>)
 8000862:	699b      	ldr	r3, [r3, #24]
 8000864:	4a23      	ldr	r2, [pc, #140]	@ (80008f4 <MX_GPIO_Init+0xc0>)
 8000866:	f043 0308 	orr.w	r3, r3, #8
 800086a:	6193      	str	r3, [r2, #24]
 800086c:	4b21      	ldr	r3, [pc, #132]	@ (80008f4 <MX_GPIO_Init+0xc0>)
 800086e:	699b      	ldr	r3, [r3, #24]
 8000870:	f003 0308 	and.w	r3, r3, #8
 8000874:	603b      	str	r3, [r7, #0]
 8000876:	683b      	ldr	r3, [r7, #0]

  /*Configure GPIO pin Output Level */
  HAL_GPIO_WritePin(DS18B20_DQ_GPIO_Port, DS18B20_DQ_Pin, GPIO_PIN_RESET);
 8000878:	2200      	movs	r2, #0
 800087a:	f44f 7180 	mov.w	r1, #256	@ 0x100
 800087e:	481e      	ldr	r0, [pc, #120]	@ (80008f8 <MX_GPIO_Init+0xc4>)
 8000880:	f002 fcf1 	bl	8003266 <HAL_GPIO_WritePin>

  /*Configure GPIO pin Output Level */
  HAL_GPIO_WritePin(OLED_SA0_GPIO_Port, OLED_SA0_Pin, GPIO_PIN_RESET);
 8000884:	2200      	movs	r2, #0
 8000886:	2110      	movs	r1, #16
 8000888:	481c      	ldr	r0, [pc, #112]	@ (80008fc <MX_GPIO_Init+0xc8>)
 800088a:	f002 fcec 	bl	8003266 <HAL_GPIO_WritePin>

  /*Configure GPIO pin Output Level */
  HAL_GPIO_WritePin(GPIOB, OLED_RST_Pin|OLED_SCL_Pin|OLED_SDAIN_Pin, GPIO_PIN_SET);
 800088e:	2201      	movs	r2, #1
 8000890:	21e0      	movs	r1, #224	@ 0xe0
 8000892:	481a      	ldr	r0, [pc, #104]	@ (80008fc <MX_GPIO_Init+0xc8>)
 8000894:	f002 fce7 	bl	8003266 <HAL_GPIO_WritePin>

  /*Configure GPIO pin : PtPin */
  GPIO_InitStruct.Pin = DS18B20_DQ_Pin;
 8000898:	f44f 7380 	mov.w	r3, #256	@ 0x100
 800089c:	60bb      	str	r3, [r7, #8]
  GPIO_InitStruct.Mode = GPIO_MODE_OUTPUT_OD;
 800089e:	2311      	movs	r3, #17
 80008a0:	60fb      	str	r3, [r7, #12]
  GPIO_InitStruct.Pull = GPIO_NOPULL;
 80008a2:	2300      	movs	r3, #0
 80008a4:	613b      	str	r3, [r7, #16]
  GPIO_InitStruct.Speed = GPIO_SPEED_FREQ_LOW;
 80008a6:	2302      	movs	r3, #2
 80008a8:	617b      	str	r3, [r7, #20]
  HAL_GPIO_Init(DS18B20_DQ_GPIO_Port, &GPIO_InitStruct);
 80008aa:	f107 0308 	add.w	r3, r7, #8
 80008ae:	4619      	mov	r1, r3
 80008b0:	4811      	ldr	r0, [pc, #68]	@ (80008f8 <MX_GPIO_Init+0xc4>)
 80008b2:	f002 fb45 	bl	8002f40 <HAL_GPIO_Init>

  /*Configure GPIO pin : PtPin */
  GPIO_InitStruct.Pin = OLED_SDAOUT_Pin;
 80008b6:	2308      	movs	r3, #8
 80008b8:	60bb      	str	r3, [r7, #8]
  GPIO_InitStruct.Mode = GPIO_MODE_INPUT;
 80008ba:	2300      	movs	r3, #0
 80008bc:	60fb      	str	r3, [r7, #12]
  GPIO_InitStruct.Pull = GPIO_PULLUP;
 80008be:	2301      	movs	r3, #1
 80008c0:	613b      	str	r3, [r7, #16]
  HAL_GPIO_Init(OLED_SDAOUT_GPIO_Port, &GPIO_InitStruct);
 80008c2:	f107 0308 	add.w	r3, r7, #8
 80008c6:	4619      	mov	r1, r3
 80008c8:	480c      	ldr	r0, [pc, #48]	@ (80008fc <MX_GPIO_Init+0xc8>)
 80008ca:	f002 fb39 	bl	8002f40 <HAL_GPIO_Init>

  /*Configure GPIO pins : PBPin PBPin PBPin PBPin */
  GPIO_InitStruct.Pin = OLED_SA0_Pin|OLED_RST_Pin|OLED_SCL_Pin|OLED_SDAIN_Pin;
 80008ce:	23f0      	movs	r3, #240	@ 0xf0
 80008d0:	60bb      	str	r3, [r7, #8]
  GPIO_InitStruct.Mode = GPIO_MODE_OUTPUT_PP;
 80008d2:	2301      	movs	r3, #1
 80008d4:	60fb      	str	r3, [r7, #12]
  GPIO_InitStruct.Pull = GPIO_NOPULL;
 80008d6:	2300      	movs	r3, #0
 80008d8:	613b      	str	r3, [r7, #16]
  GPIO_InitStruct.Speed = GPIO_SPEED_FREQ_HIGH;
 80008da:	2303      	movs	r3, #3
 80008dc:	617b      	str	r3, [r7, #20]
  HAL_GPIO_Init(GPIOB, &GPIO_InitStruct);
 80008de:	f107 0308 	add.w	r3, r7, #8
 80008e2:	4619      	mov	r1, r3
 80008e4:	4805      	ldr	r0, [pc, #20]	@ (80008fc <MX_GPIO_Init+0xc8>)
 80008e6:	f002 fb2b 	bl	8002f40 <HAL_GPIO_Init>

}
 80008ea:	bf00      	nop
 80008ec:	3718      	adds	r7, #24
 80008ee:	46bd      	mov	sp, r7
 80008f0:	bd80      	pop	{r7, pc}
 80008f2:	bf00      	nop
 80008f4:	40021000 	.word	0x40021000
 80008f8:	40010800 	.word	0x40010800
 80008fc:	40010c00 	.word	0x40010c00

08000900 <main>:
/**
  * @brief  The application entry point.
  * @retval int
  */
int main(void)
{
 8000900:	b580      	push	{r7, lr}
 8000902:	b084      	sub	sp, #16
 8000904:	af00      	add	r7, sp, #0
  /* USER CODE END 1 */

  /* MCU Configuration--------------------------------------------------------*/

  /* Reset of all peripherals, Initializes the Flash interface and the Systick. */
  HAL_Init();
 8000906:	f001 fc81 	bl	800220c <HAL_Init>
  /* USER CODE BEGIN Init */

  /* USER CODE END Init */

  /* Configure the system clock */
  SystemClock_Config();
 800090a:	f000 f82f 	bl	800096c <SystemClock_Config>
  /* USER CODE BEGIN SysInit */

  /* USER CODE END SysInit */

  /* Initialize all configured peripherals */
  MX_GPIO_Init();
 800090e:	f7ff ff91 	bl	8000834 <MX_GPIO_Init>
  MX_ADC1_Init();
 8000912:	f7ff ff15 	bl	8000740 <MX_ADC1_Init>
  MX_TIM2_Init();
 8000916:	f000 f9a9 	bl	8000c6c <MX_TIM2_Init>
  MX_USART1_UART_Init();
 800091a:	f000 fa19 	bl	8000d50 <MX_USART1_UART_Init>
  /* USER CODE BEGIN 2 */
  const char msg1[] = "UART1_OK\r\n";
 800091e:	4a0f      	ldr	r2, [pc, #60]	@ (800095c <main+0x5c>)
 8000920:	1d3b      	adds	r3, r7, #4
 8000922:	ca07      	ldmia	r2, {r0, r1, r2}
 8000924:	c303      	stmia	r3!, {r0, r1}
 8000926:	801a      	strh	r2, [r3, #0]
 8000928:	3302      	adds	r3, #2
 800092a:	0c12      	lsrs	r2, r2, #16
 800092c:	701a      	strb	r2, [r3, #0]
  HAL_UART_Transmit(&huart1, (uint8_t *)msg1, sizeof(msg1) - 1, 100);
 800092e:	1d39      	adds	r1, r7, #4
 8000930:	2364      	movs	r3, #100	@ 0x64
 8000932:	220a      	movs	r2, #10
 8000934:	480a      	ldr	r0, [pc, #40]	@ (8000960 <main+0x60>)
 8000936:	f003 fe57 	bl	80045e8 <HAL_UART_Transmit>
  APP_UserInit();
 800093a:	f000 fb1f 	bl	8000f7c <APP_UserInit>
  HAL_TIM_Base_Start_IT(&htim2);
 800093e:	4809      	ldr	r0, [pc, #36]	@ (8000964 <main+0x64>)
 8000940:	f003 fa76 	bl	8003e30 <HAL_TIM_Base_Start_IT>
  /* Infinite loop */
  /* USER CODE BEGIN WHILE */
  while (1)
  {
    /* USER CODE END WHILE */
      if (g_task_1s_flag)
 8000944:	4b08      	ldr	r3, [pc, #32]	@ (8000968 <main+0x68>)
 8000946:	781b      	ldrb	r3, [r3, #0]
 8000948:	b2db      	uxtb	r3, r3
 800094a:	2b00      	cmp	r3, #0
 800094c:	d0fa      	beq.n	8000944 <main+0x44>
      {
          g_task_1s_flag = 0;
 800094e:	4b06      	ldr	r3, [pc, #24]	@ (8000968 <main+0x68>)
 8000950:	2200      	movs	r2, #0
 8000952:	701a      	strb	r2, [r3, #0]
          APP_Task1s();
 8000954:	f000 fb4a 	bl	8000fec <APP_Task1s>
      if (g_task_1s_flag)
 8000958:	e7f4      	b.n	8000944 <main+0x44>
 800095a:	bf00      	nop
 800095c:	08005bf0 	.word	0x08005bf0
 8000960:	2000011c 	.word	0x2000011c
 8000964:	200000d4 	.word	0x200000d4
 8000968:	200000cc 	.word	0x200000cc

0800096c <SystemClock_Config>:
/**
  * @brief System Clock Configuration
  * @retval None
  */
void SystemClock_Config(void)
{
 800096c:	b580      	push	{r7, lr}
 800096e:	b094      	sub	sp, #80	@ 0x50
 8000970:	af00      	add	r7, sp, #0
  RCC_OscInitTypeDef RCC_OscInitStruct = {0};
 8000972:	f107 0328 	add.w	r3, r7, #40	@ 0x28
 8000976:	2228      	movs	r2, #40	@ 0x28
 8000978:	2100      	movs	r1, #0
 800097a:	4618      	mov	r0, r3
 800097c:	f004 f953 	bl	8004c26 <memset>
  RCC_ClkInitTypeDef RCC_ClkInitStruct = {0};
 8000980:	f107 0314 	add.w	r3, r7, #20
 8000984:	2200      	movs	r2, #0
 8000986:	601a      	str	r2, [r3, #0]
 8000988:	605a      	str	r2, [r3, #4]
 800098a:	609a      	str	r2, [r3, #8]
 800098c:	60da      	str	r2, [r3, #12]
 800098e:	611a      	str	r2, [r3, #16]
  RCC_PeriphCLKInitTypeDef PeriphClkInit = {0};
 8000990:	1d3b      	adds	r3, r7, #4
 8000992:	2200      	movs	r2, #0
 8000994:	601a      	str	r2, [r3, #0]
 8000996:	605a      	str	r2, [r3, #4]
 8000998:	609a      	str	r2, [r3, #8]
 800099a:	60da      	str	r2, [r3, #12]

  /** Initializes the RCC Oscillators according to the specified parameters
  * in the RCC_OscInitTypeDef structure.
  */
  RCC_OscInitStruct.OscillatorType = RCC_OSCILLATORTYPE_HSI;
 800099c:	2302      	movs	r3, #2
 800099e:	62bb      	str	r3, [r7, #40]	@ 0x28
  RCC_OscInitStruct.HSIState = RCC_HSI_ON;
 80009a0:	2301      	movs	r3, #1
 80009a2:	63bb      	str	r3, [r7, #56]	@ 0x38
  RCC_OscInitStruct.HSICalibrationValue = RCC_HSICALIBRATION_DEFAULT;
 80009a4:	2310      	movs	r3, #16
 80009a6:	63fb      	str	r3, [r7, #60]	@ 0x3c
  RCC_OscInitStruct.PLL.PLLState = RCC_PLL_ON;
 80009a8:	2302      	movs	r3, #2
 80009aa:	647b      	str	r3, [r7, #68]	@ 0x44
  RCC_OscInitStruct.PLL.PLLSource = RCC_PLLSOURCE_HSI_DIV2;
 80009ac:	2300      	movs	r3, #0
 80009ae:	64bb      	str	r3, [r7, #72]	@ 0x48
  RCC_OscInitStruct.PLL.PLLMUL = RCC_PLL_MUL16;
 80009b0:	f44f 1360 	mov.w	r3, #3670016	@ 0x380000
 80009b4:	64fb      	str	r3, [r7, #76]	@ 0x4c
  if (HAL_RCC_OscConfig(&RCC_OscInitStruct) != HAL_OK)
 80009b6:	f107 0328 	add.w	r3, r7, #40	@ 0x28
 80009ba:	4618      	mov	r0, r3
 80009bc:	f002 fc6c 	bl	8003298 <HAL_RCC_OscConfig>
 80009c0:	4603      	mov	r3, r0
 80009c2:	2b00      	cmp	r3, #0
 80009c4:	d001      	beq.n	80009ca <SystemClock_Config+0x5e>
  {
    Error_Handler();
 80009c6:	f000 f83d 	bl	8000a44 <Error_Handler>
  }

  /** Initializes the CPU, AHB and APB buses clocks
  */
  RCC_ClkInitStruct.ClockType = RCC_CLOCKTYPE_HCLK|RCC_CLOCKTYPE_SYSCLK
 80009ca:	230f      	movs	r3, #15
 80009cc:	617b      	str	r3, [r7, #20]
                              |RCC_CLOCKTYPE_PCLK1|RCC_CLOCKTYPE_PCLK2;
  RCC_ClkInitStruct.SYSCLKSource = RCC_SYSCLKSOURCE_PLLCLK;
 80009ce:	2302      	movs	r3, #2
 80009d0:	61bb      	str	r3, [r7, #24]
  RCC_ClkInitStruct.AHBCLKDivider = RCC_SYSCLK_DIV1;
 80009d2:	2300      	movs	r3, #0
 80009d4:	61fb      	str	r3, [r7, #28]
  RCC_ClkInitStruct.APB1CLKDivider = RCC_HCLK_DIV2;
 80009d6:	f44f 6380 	mov.w	r3, #1024	@ 0x400
 80009da:	623b      	str	r3, [r7, #32]
  RCC_ClkInitStruct.APB2CLKDivider = RCC_HCLK_DIV1;
 80009dc:	2300      	movs	r3, #0
 80009de:	627b      	str	r3, [r7, #36]	@ 0x24

  if (HAL_RCC_ClockConfig(&RCC_ClkInitStruct, FLASH_LATENCY_2) != HAL_OK)
 80009e0:	f107 0314 	add.w	r3, r7, #20
 80009e4:	2102      	movs	r1, #2
 80009e6:	4618      	mov	r0, r3
 80009e8:	f002 fed8 	bl	800379c <HAL_RCC_ClockConfig>
 80009ec:	4603      	mov	r3, r0
 80009ee:	2b00      	cmp	r3, #0
 80009f0:	d001      	beq.n	80009f6 <SystemClock_Config+0x8a>
  {
    Error_Handler();
 80009f2:	f000 f827 	bl	8000a44 <Error_Handler>
  }
  PeriphClkInit.PeriphClockSelection = RCC_PERIPHCLK_ADC;
 80009f6:	2302      	movs	r3, #2
 80009f8:	607b      	str	r3, [r7, #4]
  PeriphClkInit.AdcClockSelection = RCC_ADCPCLK2_DIV6;
 80009fa:	f44f 4300 	mov.w	r3, #32768	@ 0x8000
 80009fe:	60fb      	str	r3, [r7, #12]
  if (HAL_RCCEx_PeriphCLKConfig(&PeriphClkInit) != HAL_OK)
 8000a00:	1d3b      	adds	r3, r7, #4
 8000a02:	4618      	mov	r0, r3
 8000a04:	f003 f858 	bl	8003ab8 <HAL_RCCEx_PeriphCLKConfig>
 8000a08:	4603      	mov	r3, r0
 8000a0a:	2b00      	cmp	r3, #0
 8000a0c:	d001      	beq.n	8000a12 <SystemClock_Config+0xa6>
  {
    Error_Handler();
 8000a0e:	f000 f819 	bl	8000a44 <Error_Handler>
  }
}
 8000a12:	bf00      	nop
 8000a14:	3750      	adds	r7, #80	@ 0x50
 8000a16:	46bd      	mov	sp, r7
 8000a18:	bd80      	pop	{r7, pc}
	...

08000a1c <HAL_TIM_PeriodElapsedCallback>:
        APP_Timer1sISR();
        g_task_1s_flag = 1;
    }
}*/
void HAL_TIM_PeriodElapsedCallback(TIM_HandleTypeDef *htim)
{
 8000a1c:	b580      	push	{r7, lr}
 8000a1e:	b082      	sub	sp, #8
 8000a20:	af00      	add	r7, sp, #0
 8000a22:	6078      	str	r0, [r7, #4]
    if (htim->Instance == TIM2)
 8000a24:	687b      	ldr	r3, [r7, #4]
 8000a26:	681b      	ldr	r3, [r3, #0]
 8000a28:	f1b3 4f80 	cmp.w	r3, #1073741824	@ 0x40000000
 8000a2c:	d104      	bne.n	8000a38 <HAL_TIM_PeriodElapsedCallback+0x1c>
    {
        APP_Timer1sISR();
 8000a2e:	f000 fad7 	bl	8000fe0 <APP_Timer1sISR>
        g_task_1s_flag = 1;
 8000a32:	4b03      	ldr	r3, [pc, #12]	@ (8000a40 <HAL_TIM_PeriodElapsedCallback+0x24>)
 8000a34:	2201      	movs	r2, #1
 8000a36:	701a      	strb	r2, [r3, #0]
    }
}
 8000a38:	bf00      	nop
 8000a3a:	3708      	adds	r7, #8
 8000a3c:	46bd      	mov	sp, r7
 8000a3e:	bd80      	pop	{r7, pc}
 8000a40:	200000cc 	.word	0x200000cc

08000a44 <Error_Handler>:
/**
  * @brief  This function is executed in case of error occurrence.
  * @retval None
  */
void Error_Handler(void)
{
 8000a44:	b480      	push	{r7}
 8000a46:	af00      	add	r7, sp, #0
  \details Disables IRQ interrupts by setting the I-bit in the CPSR.
           Can only be executed in Privileged modes.
 */
__STATIC_FORCEINLINE void __disable_irq(void)
{
  __ASM volatile ("cpsid i" : : : "memory");
 8000a48:	b672      	cpsid	i
}
 8000a4a:	bf00      	nop
  /* USER CODE BEGIN Error_Handler_Debug */
  /* User can add his own implementation to report the HAL error return state */
  __disable_irq();
  while (1)
 8000a4c:	bf00      	nop
 8000a4e:	e7fd      	b.n	8000a4c <Error_Handler+0x8>

08000a50 <HAL_MspInit>:
/* USER CODE END 0 */
/**
  * Initializes the Global MSP.
  */
void HAL_MspInit(void)
{
 8000a50:	b480      	push	{r7}
 8000a52:	b085      	sub	sp, #20
 8000a54:	af00      	add	r7, sp, #0

  /* USER CODE BEGIN MspInit 0 */

  /* USER CODE END MspInit 0 */

  __HAL_RCC_AFIO_CLK_ENABLE();
 8000a56:	4b15      	ldr	r3, [pc, #84]	@ (8000aac <HAL_MspInit+0x5c>)
 8000a58:	699b      	ldr	r3, [r3, #24]
 8000a5a:	4a14      	ldr	r2, [pc, #80]	@ (8000aac <HAL_MspInit+0x5c>)
 8000a5c:	f043 0301 	orr.w	r3, r3, #1
 8000a60:	6193      	str	r3, [r2, #24]
 8000a62:	4b12      	ldr	r3, [pc, #72]	@ (8000aac <HAL_MspInit+0x5c>)
 8000a64:	699b      	ldr	r3, [r3, #24]
 8000a66:	f003 0301 	and.w	r3, r3, #1
 8000a6a:	60bb      	str	r3, [r7, #8]
 8000a6c:	68bb      	ldr	r3, [r7, #8]
  __HAL_RCC_PWR_CLK_ENABLE();
 8000a6e:	4b0f      	ldr	r3, [pc, #60]	@ (8000aac <HAL_MspInit+0x5c>)
 8000a70:	69db      	ldr	r3, [r3, #28]
 8000a72:	4a0e      	ldr	r2, [pc, #56]	@ (8000aac <HAL_MspInit+0x5c>)
 8000a74:	f043 5380 	orr.w	r3, r3, #268435456	@ 0x10000000
 8000a78:	61d3      	str	r3, [r2, #28]
 8000a7a:	4b0c      	ldr	r3, [pc, #48]	@ (8000aac <HAL_MspInit+0x5c>)
 8000a7c:	69db      	ldr	r3, [r3, #28]
 8000a7e:	f003 5380 	and.w	r3, r3, #268435456	@ 0x10000000
 8000a82:	607b      	str	r3, [r7, #4]
 8000a84:	687b      	ldr	r3, [r7, #4]

  /* System interrupt init*/

  /** NOJTAG: JTAG-DP Disabled and SW-DP Enabled
  */
  __HAL_AFIO_REMAP_SWJ_NOJTAG();
 8000a86:	4b0a      	ldr	r3, [pc, #40]	@ (8000ab0 <HAL_MspInit+0x60>)
 8000a88:	685b      	ldr	r3, [r3, #4]
 8000a8a:	60fb      	str	r3, [r7, #12]
 8000a8c:	68fb      	ldr	r3, [r7, #12]
 8000a8e:	f023 63e0 	bic.w	r3, r3, #117440512	@ 0x7000000
 8000a92:	60fb      	str	r3, [r7, #12]
 8000a94:	68fb      	ldr	r3, [r7, #12]
 8000a96:	f043 7300 	orr.w	r3, r3, #33554432	@ 0x2000000
 8000a9a:	60fb      	str	r3, [r7, #12]
 8000a9c:	4a04      	ldr	r2, [pc, #16]	@ (8000ab0 <HAL_MspInit+0x60>)
 8000a9e:	68fb      	ldr	r3, [r7, #12]
 8000aa0:	6053      	str	r3, [r2, #4]

  /* USER CODE BEGIN MspInit 1 */

  /* USER CODE END MspInit 1 */
}
 8000aa2:	bf00      	nop
 8000aa4:	3714      	adds	r7, #20
 8000aa6:	46bd      	mov	sp, r7
 8000aa8:	bc80      	pop	{r7}
 8000aaa:	4770      	bx	lr
 8000aac:	40021000 	.word	0x40021000
 8000ab0:	40010000 	.word	0x40010000

08000ab4 <NMI_Handler>:
/******************************************************************************/
/**
  * @brief This function handles Non maskable interrupt.
  */
void NMI_Handler(void)
{
 8000ab4:	b480      	push	{r7}
 8000ab6:	af00      	add	r7, sp, #0
  /* USER CODE BEGIN NonMaskableInt_IRQn 0 */

  /* USER CODE END NonMaskableInt_IRQn 0 */
  /* USER CODE BEGIN NonMaskableInt_IRQn 1 */
   while (1)
 8000ab8:	bf00      	nop
 8000aba:	e7fd      	b.n	8000ab8 <NMI_Handler+0x4>

08000abc <HardFault_Handler>:

/**
  * @brief This function handles Hard fault interrupt.
  */
void HardFault_Handler(void)
{
 8000abc:	b480      	push	{r7}
 8000abe:	af00      	add	r7, sp, #0
  /* USER CODE BEGIN HardFault_IRQn 0 */

  /* USER CODE END HardFault_IRQn 0 */
  while (1)
 8000ac0:	bf00      	nop
 8000ac2:	e7fd      	b.n	8000ac0 <HardFault_Handler+0x4>

08000ac4 <MemManage_Handler>:

/**
  * @brief This function handles Memory management fault.
  */
void MemManage_Handler(void)
{
 8000ac4:	b480      	push	{r7}
 8000ac6:	af00      	add	r7, sp, #0
  /* USER CODE BEGIN MemoryManagement_IRQn 0 */

  /* USER CODE END MemoryManagement_IRQn 0 */
  while (1)
 8000ac8:	bf00      	nop
 8000aca:	e7fd      	b.n	8000ac8 <MemManage_Handler+0x4>

08000acc <BusFault_Handler>:

/**
  * @brief This function handles Prefetch fault, memory access fault.
  */
void BusFault_Handler(void)
{
 8000acc:	b480      	push	{r7}
 8000ace:	af00      	add	r7, sp, #0
  /* USER CODE BEGIN BusFault_IRQn 0 */

  /* USER CODE END BusFault_IRQn 0 */
  while (1)
 8000ad0:	bf00      	nop
 8000ad2:	e7fd      	b.n	8000ad0 <BusFault_Handler+0x4>

08000ad4 <UsageFault_Handler>:

/**
  * @brief This function handles Undefined instruction or illegal state.
  */
void UsageFault_Handler(void)
{
 8000ad4:	b480      	push	{r7}
 8000ad6:	af00      	add	r7, sp, #0
  /* USER CODE BEGIN UsageFault_IRQn 0 */

  /* USER CODE END UsageFault_IRQn 0 */
  while (1)
 8000ad8:	bf00      	nop
 8000ada:	e7fd      	b.n	8000ad8 <UsageFault_Handler+0x4>

08000adc <SVC_Handler>:

/**
  * @brief This function handles System service call via SWI instruction.
  */
void SVC_Handler(void)
{
 8000adc:	b480      	push	{r7}
 8000ade:	af00      	add	r7, sp, #0

  /* USER CODE END SVCall_IRQn 0 */
  /* USER CODE BEGIN SVCall_IRQn 1 */

  /* USER CODE END SVCall_IRQn 1 */
}
 8000ae0:	bf00      	nop
 8000ae2:	46bd      	mov	sp, r7
 8000ae4:	bc80      	pop	{r7}
 8000ae6:	4770      	bx	lr

08000ae8 <DebugMon_Handler>:

/**
  * @brief This function handles Debug monitor.
  */
void DebugMon_Handler(void)
{
 8000ae8:	b480      	push	{r7}
 8000aea:	af00      	add	r7, sp, #0

  /* USER CODE END DebugMonitor_IRQn 0 */
  /* USER CODE BEGIN DebugMonitor_IRQn 1 */

  /* USER CODE END DebugMonitor_IRQn 1 */
}
 8000aec:	bf00      	nop
 8000aee:	46bd      	mov	sp, r7
 8000af0:	bc80      	pop	{r7}
 8000af2:	4770      	bx	lr

08000af4 <PendSV_Handler>:

/**
  * @brief This function handles Pendable request for system service.
  */
void PendSV_Handler(void)
{
 8000af4:	b480      	push	{r7}
 8000af6:	af00      	add	r7, sp, #0

  /* USER CODE END PendSV_IRQn 0 */
  /* USER CODE BEGIN PendSV_IRQn 1 */

  /* USER CODE END PendSV_IRQn 1 */
}
 8000af8:	bf00      	nop
 8000afa:	46bd      	mov	sp, r7
 8000afc:	bc80      	pop	{r7}
 8000afe:	4770      	bx	lr

08000b00 <SysTick_Handler>:

/**
  * @brief This function handles System tick timer.
  */
void SysTick_Handler(void)
{
 8000b00:	b580      	push	{r7, lr}
 8000b02:	af00      	add	r7, sp, #0
  /* USER CODE BEGIN SysTick_IRQn 0 */

  /* USER CODE END SysTick_IRQn 0 */
  HAL_IncTick();
 8000b04:	f001 fbc8 	bl	8002298 <HAL_IncTick>
  /* USER CODE BEGIN SysTick_IRQn 1 */

  /* USER CODE END SysTick_IRQn 1 */
}
 8000b08:	bf00      	nop
 8000b0a:	bd80      	pop	{r7, pc}

08000b0c <TIM2_IRQHandler>:

/**
  * @brief This function handles TIM2 global interrupt.
  */
void TIM2_IRQHandler(void)
{
 8000b0c:	b580      	push	{r7, lr}
 8000b0e:	af00      	add	r7, sp, #0
  /* USER CODE BEGIN TIM2_IRQn 0 */

  /* USER CODE END TIM2_IRQn 0 */
  HAL_TIM_IRQHandler(&htim2);
 8000b10:	4802      	ldr	r0, [pc, #8]	@ (8000b1c <TIM2_IRQHandler+0x10>)
 8000b12:	f003 f9d9 	bl	8003ec8 <HAL_TIM_IRQHandler>
  /* USER CODE BEGIN TIM2_IRQn 1 */

  /* USER CODE END TIM2_IRQn 1 */
}
 8000b16:	bf00      	nop
 8000b18:	bd80      	pop	{r7, pc}
 8000b1a:	bf00      	nop
 8000b1c:	200000d4 	.word	0x200000d4

08000b20 <_read>:
  _kill(status, -1);
  while (1) {}    /* Make sure we hang here */
}

__attribute__((weak)) int _read(int file, char *ptr, int len)
{
 8000b20:	b580      	push	{r7, lr}
 8000b22:	b086      	sub	sp, #24
 8000b24:	af00      	add	r7, sp, #0
 8000b26:	60f8      	str	r0, [r7, #12]
 8000b28:	60b9      	str	r1, [r7, #8]
 8000b2a:	607a      	str	r2, [r7, #4]
  (void)file;
  int DataIdx;

  for (DataIdx = 0; DataIdx < len; DataIdx++)
 8000b2c:	2300      	movs	r3, #0
 8000b2e:	617b      	str	r3, [r7, #20]
 8000b30:	e00a      	b.n	8000b48 <_read+0x28>
  {
    *ptr++ = __io_getchar();
 8000b32:	f3af 8000 	nop.w
 8000b36:	4601      	mov	r1, r0
 8000b38:	68bb      	ldr	r3, [r7, #8]
 8000b3a:	1c5a      	adds	r2, r3, #1
 8000b3c:	60ba      	str	r2, [r7, #8]
 8000b3e:	b2ca      	uxtb	r2, r1
 8000b40:	701a      	strb	r2, [r3, #0]
  for (DataIdx = 0; DataIdx < len; DataIdx++)
 8000b42:	697b      	ldr	r3, [r7, #20]
 8000b44:	3301      	adds	r3, #1
 8000b46:	617b      	str	r3, [r7, #20]
 8000b48:	697a      	ldr	r2, [r7, #20]
 8000b4a:	687b      	ldr	r3, [r7, #4]
 8000b4c:	429a      	cmp	r2, r3
 8000b4e:	dbf0      	blt.n	8000b32 <_read+0x12>
  }

  return len;
 8000b50:	687b      	ldr	r3, [r7, #4]
}
 8000b52:	4618      	mov	r0, r3
 8000b54:	3718      	adds	r7, #24
 8000b56:	46bd      	mov	sp, r7
 8000b58:	bd80      	pop	{r7, pc}

08000b5a <_write>:

__attribute__((weak)) int _write(int file, char *ptr, int len)
{
 8000b5a:	b580      	push	{r7, lr}
 8000b5c:	b086      	sub	sp, #24
 8000b5e:	af00      	add	r7, sp, #0
 8000b60:	60f8      	str	r0, [r7, #12]
 8000b62:	60b9      	str	r1, [r7, #8]
 8000b64:	607a      	str	r2, [r7, #4]
  (void)file;
  int DataIdx;

  for (DataIdx = 0; DataIdx < len; DataIdx++)
 8000b66:	2300      	movs	r3, #0
 8000b68:	617b      	str	r3, [r7, #20]
 8000b6a:	e009      	b.n	8000b80 <_write+0x26>
  {
    __io_putchar(*ptr++);
 8000b6c:	68bb      	ldr	r3, [r7, #8]
 8000b6e:	1c5a      	adds	r2, r3, #1
 8000b70:	60ba      	str	r2, [r7, #8]
 8000b72:	781b      	ldrb	r3, [r3, #0]
 8000b74:	4618      	mov	r0, r3
 8000b76:	f001 fa47 	bl	8002008 <__io_putchar>
  for (DataIdx = 0; DataIdx < len; DataIdx++)
 8000b7a:	697b      	ldr	r3, [r7, #20]
 8000b7c:	3301      	adds	r3, #1
 8000b7e:	617b      	str	r3, [r7, #20]
 8000b80:	697a      	ldr	r2, [r7, #20]
 8000b82:	687b      	ldr	r3, [r7, #4]
 8000b84:	429a      	cmp	r2, r3
 8000b86:	dbf1      	blt.n	8000b6c <_write+0x12>
  }
  return len;
 8000b88:	687b      	ldr	r3, [r7, #4]
}
 8000b8a:	4618      	mov	r0, r3
 8000b8c:	3718      	adds	r7, #24
 8000b8e:	46bd      	mov	sp, r7
 8000b90:	bd80      	pop	{r7, pc}

08000b92 <_close>:

int _close(int file)
{
 8000b92:	b480      	push	{r7}
 8000b94:	b083      	sub	sp, #12
 8000b96:	af00      	add	r7, sp, #0
 8000b98:	6078      	str	r0, [r7, #4]
  (void)file;
  return -1;
 8000b9a:	f04f 33ff 	mov.w	r3, #4294967295
}
 8000b9e:	4618      	mov	r0, r3
 8000ba0:	370c      	adds	r7, #12
 8000ba2:	46bd      	mov	sp, r7
 8000ba4:	bc80      	pop	{r7}
 8000ba6:	4770      	bx	lr

08000ba8 <_fstat>:


int _fstat(int file, struct stat *st)
{
 8000ba8:	b480      	push	{r7}
 8000baa:	b083      	sub	sp, #12
 8000bac:	af00      	add	r7, sp, #0
 8000bae:	6078      	str	r0, [r7, #4]
 8000bb0:	6039      	str	r1, [r7, #0]
  (void)file;
  st->st_mode = S_IFCHR;
 8000bb2:	683b      	ldr	r3, [r7, #0]
 8000bb4:	f44f 5200 	mov.w	r2, #8192	@ 0x2000
 8000bb8:	605a      	str	r2, [r3, #4]
  return 0;
 8000bba:	2300      	movs	r3, #0
}
 8000bbc:	4618      	mov	r0, r3
 8000bbe:	370c      	adds	r7, #12
 8000bc0:	46bd      	mov	sp, r7
 8000bc2:	bc80      	pop	{r7}
 8000bc4:	4770      	bx	lr

08000bc6 <_isatty>:

int _isatty(int file)
{
 8000bc6:	b480      	push	{r7}
 8000bc8:	b083      	sub	sp, #12
 8000bca:	af00      	add	r7, sp, #0
 8000bcc:	6078      	str	r0, [r7, #4]
  (void)file;
  return 1;
 8000bce:	2301      	movs	r3, #1
}
 8000bd0:	4618      	mov	r0, r3
 8000bd2:	370c      	adds	r7, #12
 8000bd4:	46bd      	mov	sp, r7
 8000bd6:	bc80      	pop	{r7}
 8000bd8:	4770      	bx	lr

08000bda <_lseek>:

int _lseek(int file, int ptr, int dir)
{
 8000bda:	b480      	push	{r7}
 8000bdc:	b085      	sub	sp, #20
 8000bde:	af00      	add	r7, sp, #0
 8000be0:	60f8      	str	r0, [r7, #12]
 8000be2:	60b9      	str	r1, [r7, #8]
 8000be4:	607a      	str	r2, [r7, #4]
  (void)file;
  (void)ptr;
  (void)dir;
  return 0;
 8000be6:	2300      	movs	r3, #0
}
 8000be8:	4618      	mov	r0, r3
 8000bea:	3714      	adds	r7, #20
 8000bec:	46bd      	mov	sp, r7
 8000bee:	bc80      	pop	{r7}
 8000bf0:	4770      	bx	lr
	...

08000bf4 <_sbrk>:
 *
 * @param incr Memory size
 * @return Pointer to allocated memory
 */
void *_sbrk(ptrdiff_t incr)
{
 8000bf4:	b580      	push	{r7, lr}
 8000bf6:	b086      	sub	sp, #24
 8000bf8:	af00      	add	r7, sp, #0
 8000bfa:	6078      	str	r0, [r7, #4]
  extern uint8_t _end; /* Symbol defined in the linker script */
  extern uint8_t _estack; /* Symbol defined in the linker script */
  extern uint32_t _Min_Stack_Size; /* Symbol defined in the linker script */
  const uint32_t stack_limit = (uint32_t)&_estack - (uint32_t)&_Min_Stack_Size;
 8000bfc:	4a14      	ldr	r2, [pc, #80]	@ (8000c50 <_sbrk+0x5c>)
 8000bfe:	4b15      	ldr	r3, [pc, #84]	@ (8000c54 <_sbrk+0x60>)
 8000c00:	1ad3      	subs	r3, r2, r3
 8000c02:	617b      	str	r3, [r7, #20]
  const uint8_t *max_heap = (uint8_t *)stack_limit;
 8000c04:	697b      	ldr	r3, [r7, #20]
 8000c06:	613b      	str	r3, [r7, #16]
  uint8_t *prev_heap_end;

  /* Initialize heap end at first call */
  if (NULL == __sbrk_heap_end)
 8000c08:	4b13      	ldr	r3, [pc, #76]	@ (8000c58 <_sbrk+0x64>)
 8000c0a:	681b      	ldr	r3, [r3, #0]
 8000c0c:	2b00      	cmp	r3, #0
 8000c0e:	d102      	bne.n	8000c16 <_sbrk+0x22>
  {
    __sbrk_heap_end = &_end;
 8000c10:	4b11      	ldr	r3, [pc, #68]	@ (8000c58 <_sbrk+0x64>)
 8000c12:	4a12      	ldr	r2, [pc, #72]	@ (8000c5c <_sbrk+0x68>)
 8000c14:	601a      	str	r2, [r3, #0]
  }

  /* Protect heap from growing into the reserved MSP stack */
  if (__sbrk_heap_end + incr > max_heap)
 8000c16:	4b10      	ldr	r3, [pc, #64]	@ (8000c58 <_sbrk+0x64>)
 8000c18:	681a      	ldr	r2, [r3, #0]
 8000c1a:	687b      	ldr	r3, [r7, #4]
 8000c1c:	4413      	add	r3, r2
 8000c1e:	693a      	ldr	r2, [r7, #16]
 8000c20:	429a      	cmp	r2, r3
 8000c22:	d207      	bcs.n	8000c34 <_sbrk+0x40>
  {
    errno = ENOMEM;
 8000c24:	f004 f84e 	bl	8004cc4 <__errno>
 8000c28:	4603      	mov	r3, r0
 8000c2a:	220c      	movs	r2, #12
 8000c2c:	601a      	str	r2, [r3, #0]
    return (void *)-1;
 8000c2e:	f04f 33ff 	mov.w	r3, #4294967295
 8000c32:	e009      	b.n	8000c48 <_sbrk+0x54>
  }

  prev_heap_end = __sbrk_heap_end;
 8000c34:	4b08      	ldr	r3, [pc, #32]	@ (8000c58 <_sbrk+0x64>)
 8000c36:	681b      	ldr	r3, [r3, #0]
 8000c38:	60fb      	str	r3, [r7, #12]
  __sbrk_heap_end += incr;
 8000c3a:	4b07      	ldr	r3, [pc, #28]	@ (8000c58 <_sbrk+0x64>)
 8000c3c:	681a      	ldr	r2, [r3, #0]
 8000c3e:	687b      	ldr	r3, [r7, #4]
 8000c40:	4413      	add	r3, r2
 8000c42:	4a05      	ldr	r2, [pc, #20]	@ (8000c58 <_sbrk+0x64>)
 8000c44:	6013      	str	r3, [r2, #0]

  return (void *)prev_heap_end;
 8000c46:	68fb      	ldr	r3, [r7, #12]
}
 8000c48:	4618      	mov	r0, r3
 8000c4a:	3718      	adds	r7, #24
 8000c4c:	46bd      	mov	sp, r7
 8000c4e:	bd80      	pop	{r7, pc}
 8000c50:	20002800 	.word	0x20002800
 8000c54:	00000400 	.word	0x00000400
 8000c58:	200000d0 	.word	0x200000d0
 8000c5c:	200006c0 	.word	0x200006c0

08000c60 <SystemInit>:
  * @note   This function should be used only after reset.
  * @param  None
  * @retval None
  */
void SystemInit (void)
{
 8000c60:	b480      	push	{r7}
 8000c62:	af00      	add	r7, sp, #0

  /* Configure the Vector Table location -------------------------------------*/
#if defined(USER_VECT_TAB_ADDRESS)
  SCB->VTOR = VECT_TAB_BASE_ADDRESS | VECT_TAB_OFFSET; /* Vector Table Relocation in Internal SRAM. */
#endif /* USER_VECT_TAB_ADDRESS */
}
 8000c64:	bf00      	nop
 8000c66:	46bd      	mov	sp, r7
 8000c68:	bc80      	pop	{r7}
 8000c6a:	4770      	bx	lr

08000c6c <MX_TIM2_Init>:

TIM_HandleTypeDef htim2;

/* TIM2 init function */
void MX_TIM2_Init(void)
{
 8000c6c:	b580      	push	{r7, lr}
 8000c6e:	b086      	sub	sp, #24
 8000c70:	af00      	add	r7, sp, #0

  /* USER CODE BEGIN TIM2_Init 0 */

  /* USER CODE END TIM2_Init 0 */

  TIM_ClockConfigTypeDef sClockSourceConfig = {0};
 8000c72:	f107 0308 	add.w	r3, r7, #8
 8000c76:	2200      	movs	r2, #0
 8000c78:	601a      	str	r2, [r3, #0]
 8000c7a:	605a      	str	r2, [r3, #4]
 8000c7c:	609a      	str	r2, [r3, #8]
 8000c7e:	60da      	str	r2, [r3, #12]
  TIM_MasterConfigTypeDef sMasterConfig = {0};
 8000c80:	463b      	mov	r3, r7
 8000c82:	2200      	movs	r2, #0
 8000c84:	601a      	str	r2, [r3, #0]
 8000c86:	605a      	str	r2, [r3, #4]

  /* USER CODE BEGIN TIM2_Init 1 */

  /* USER CODE END TIM2_Init 1 */
  htim2.Instance = TIM2;
 8000c88:	4b1e      	ldr	r3, [pc, #120]	@ (8000d04 <MX_TIM2_Init+0x98>)
 8000c8a:	f04f 4280 	mov.w	r2, #1073741824	@ 0x40000000
 8000c8e:	601a      	str	r2, [r3, #0]
  htim2.Init.Prescaler = 6400 - 1;
 8000c90:	4b1c      	ldr	r3, [pc, #112]	@ (8000d04 <MX_TIM2_Init+0x98>)
 8000c92:	f641 02ff 	movw	r2, #6399	@ 0x18ff
 8000c96:	605a      	str	r2, [r3, #4]
  htim2.Init.CounterMode = TIM_COUNTERMODE_UP;
 8000c98:	4b1a      	ldr	r3, [pc, #104]	@ (8000d04 <MX_TIM2_Init+0x98>)
 8000c9a:	2200      	movs	r2, #0
 8000c9c:	609a      	str	r2, [r3, #8]
  htim2.Init.Period = 10000 - 1;
 8000c9e:	4b19      	ldr	r3, [pc, #100]	@ (8000d04 <MX_TIM2_Init+0x98>)
 8000ca0:	f242 720f 	movw	r2, #9999	@ 0x270f
 8000ca4:	60da      	str	r2, [r3, #12]
  htim2.Init.ClockDivision = TIM_CLOCKDIVISION_DIV1;
 8000ca6:	4b17      	ldr	r3, [pc, #92]	@ (8000d04 <MX_TIM2_Init+0x98>)
 8000ca8:	2200      	movs	r2, #0
 8000caa:	611a      	str	r2, [r3, #16]
  htim2.Init.AutoReloadPreload = TIM_AUTORELOAD_PRELOAD_DISABLE;
 8000cac:	4b15      	ldr	r3, [pc, #84]	@ (8000d04 <MX_TIM2_Init+0x98>)
 8000cae:	2200      	movs	r2, #0
 8000cb0:	619a      	str	r2, [r3, #24]
  if (HAL_TIM_Base_Init(&htim2) != HAL_OK)
 8000cb2:	4814      	ldr	r0, [pc, #80]	@ (8000d04 <MX_TIM2_Init+0x98>)
 8000cb4:	f003 f86c 	bl	8003d90 <HAL_TIM_Base_Init>
 8000cb8:	4603      	mov	r3, r0
 8000cba:	2b00      	cmp	r3, #0
 8000cbc:	d001      	beq.n	8000cc2 <MX_TIM2_Init+0x56>
  {
    Error_Handler();
 8000cbe:	f7ff fec1 	bl	8000a44 <Error_Handler>
  }
  sClockSourceConfig.ClockSource = TIM_CLOCKSOURCE_INTERNAL;
 8000cc2:	f44f 5380 	mov.w	r3, #4096	@ 0x1000
 8000cc6:	60bb      	str	r3, [r7, #8]
  if (HAL_TIM_ConfigClockSource(&htim2, &sClockSourceConfig) != HAL_OK)
 8000cc8:	f107 0308 	add.w	r3, r7, #8
 8000ccc:	4619      	mov	r1, r3
 8000cce:	480d      	ldr	r0, [pc, #52]	@ (8000d04 <MX_TIM2_Init+0x98>)
 8000cd0:	f003 f9ea 	bl	80040a8 <HAL_TIM_ConfigClockSource>
 8000cd4:	4603      	mov	r3, r0
 8000cd6:	2b00      	cmp	r3, #0
 8000cd8:	d001      	beq.n	8000cde <MX_TIM2_Init+0x72>
  {
    Error_Handler();
 8000cda:	f7ff feb3 	bl	8000a44 <Error_Handler>
  }
  sMasterConfig.MasterOutputTrigger = TIM_TRGO_RESET;
 8000cde:	2300      	movs	r3, #0
 8000ce0:	603b      	str	r3, [r7, #0]
  sMasterConfig.MasterSlaveMode = TIM_MASTERSLAVEMODE_DISABLE;
 8000ce2:	2300      	movs	r3, #0
 8000ce4:	607b      	str	r3, [r7, #4]
  if (HAL_TIMEx_MasterConfigSynchronization(&htim2, &sMasterConfig) != HAL_OK)
 8000ce6:	463b      	mov	r3, r7
 8000ce8:	4619      	mov	r1, r3
 8000cea:	4806      	ldr	r0, [pc, #24]	@ (8000d04 <MX_TIM2_Init+0x98>)
 8000cec:	f003 fbc2 	bl	8004474 <HAL_TIMEx_MasterConfigSynchronization>
 8000cf0:	4603      	mov	r3, r0
 8000cf2:	2b00      	cmp	r3, #0
 8000cf4:	d001      	beq.n	8000cfa <MX_TIM2_Init+0x8e>
  {
    Error_Handler();
 8000cf6:	f7ff fea5 	bl	8000a44 <Error_Handler>
  }
  /* USER CODE BEGIN TIM2_Init 2 */

  /* USER CODE END TIM2_Init 2 */

}
 8000cfa:	bf00      	nop
 8000cfc:	3718      	adds	r7, #24
 8000cfe:	46bd      	mov	sp, r7
 8000d00:	bd80      	pop	{r7, pc}
 8000d02:	bf00      	nop
 8000d04:	200000d4 	.word	0x200000d4

08000d08 <HAL_TIM_Base_MspInit>:

void HAL_TIM_Base_MspInit(TIM_HandleTypeDef* tim_baseHandle)
{
 8000d08:	b580      	push	{r7, lr}
 8000d0a:	b084      	sub	sp, #16
 8000d0c:	af00      	add	r7, sp, #0
 8000d0e:	6078      	str	r0, [r7, #4]

  if(tim_baseHandle->Instance==TIM2)
 8000d10:	687b      	ldr	r3, [r7, #4]
 8000d12:	681b      	ldr	r3, [r3, #0]
 8000d14:	f1b3 4f80 	cmp.w	r3, #1073741824	@ 0x40000000
 8000d18:	d113      	bne.n	8000d42 <HAL_TIM_Base_MspInit+0x3a>
  {
  /* USER CODE BEGIN TIM2_MspInit 0 */

  /* USER CODE END TIM2_MspInit 0 */
    /* TIM2 clock enable */
    __HAL_RCC_TIM2_CLK_ENABLE();
 8000d1a:	4b0c      	ldr	r3, [pc, #48]	@ (8000d4c <HAL_TIM_Base_MspInit+0x44>)
 8000d1c:	69db      	ldr	r3, [r3, #28]
 8000d1e:	4a0b      	ldr	r2, [pc, #44]	@ (8000d4c <HAL_TIM_Base_MspInit+0x44>)
 8000d20:	f043 0301 	orr.w	r3, r3, #1
 8000d24:	61d3      	str	r3, [r2, #28]
 8000d26:	4b09      	ldr	r3, [pc, #36]	@ (8000d4c <HAL_TIM_Base_MspInit+0x44>)
 8000d28:	69db      	ldr	r3, [r3, #28]
 8000d2a:	f003 0301 	and.w	r3, r3, #1
 8000d2e:	60fb      	str	r3, [r7, #12]
 8000d30:	68fb      	ldr	r3, [r7, #12]

    /* TIM2 interrupt Init */
    HAL_NVIC_SetPriority(TIM2_IRQn, 0, 0);
 8000d32:	2200      	movs	r2, #0
 8000d34:	2100      	movs	r1, #0
 8000d36:	201c      	movs	r0, #28
 8000d38:	f002 f8cb 	bl	8002ed2 <HAL_NVIC_SetPriority>
    HAL_NVIC_EnableIRQ(TIM2_IRQn);
 8000d3c:	201c      	movs	r0, #28
 8000d3e:	f002 f8e4 	bl	8002f0a <HAL_NVIC_EnableIRQ>
  /* USER CODE BEGIN TIM2_MspInit 1 */

  /* USER CODE END TIM2_MspInit 1 */
  }
}
 8000d42:	bf00      	nop
 8000d44:	3710      	adds	r7, #16
 8000d46:	46bd      	mov	sp, r7
 8000d48:	bd80      	pop	{r7, pc}
 8000d4a:	bf00      	nop
 8000d4c:	40021000 	.word	0x40021000

08000d50 <MX_USART1_UART_Init>:
UART_HandleTypeDef huart1;

/* USART1 init function */

void MX_USART1_UART_Init(void)
{
 8000d50:	b580      	push	{r7, lr}
 8000d52:	af00      	add	r7, sp, #0
  /* USER CODE END USART1_Init 0 */

  /* USER CODE BEGIN USART1_Init 1 */

  /* USER CODE END USART1_Init 1 */
  huart1.Instance = USART1;
 8000d54:	4b11      	ldr	r3, [pc, #68]	@ (8000d9c <MX_USART1_UART_Init+0x4c>)
 8000d56:	4a12      	ldr	r2, [pc, #72]	@ (8000da0 <MX_USART1_UART_Init+0x50>)
 8000d58:	601a      	str	r2, [r3, #0]
  huart1.Init.BaudRate = 115200;
 8000d5a:	4b10      	ldr	r3, [pc, #64]	@ (8000d9c <MX_USART1_UART_Init+0x4c>)
 8000d5c:	f44f 32e1 	mov.w	r2, #115200	@ 0x1c200
 8000d60:	605a      	str	r2, [r3, #4]
  huart1.Init.WordLength = UART_WORDLENGTH_8B;
 8000d62:	4b0e      	ldr	r3, [pc, #56]	@ (8000d9c <MX_USART1_UART_Init+0x4c>)
 8000d64:	2200      	movs	r2, #0
 8000d66:	609a      	str	r2, [r3, #8]
  huart1.Init.StopBits = UART_STOPBITS_1;
 8000d68:	4b0c      	ldr	r3, [pc, #48]	@ (8000d9c <MX_USART1_UART_Init+0x4c>)
 8000d6a:	2200      	movs	r2, #0
 8000d6c:	60da      	str	r2, [r3, #12]
  huart1.Init.Parity = UART_PARITY_NONE;
 8000d6e:	4b0b      	ldr	r3, [pc, #44]	@ (8000d9c <MX_USART1_UART_Init+0x4c>)
 8000d70:	2200      	movs	r2, #0
 8000d72:	611a      	str	r2, [r3, #16]
  huart1.Init.Mode = UART_MODE_TX_RX;
 8000d74:	4b09      	ldr	r3, [pc, #36]	@ (8000d9c <MX_USART1_UART_Init+0x4c>)
 8000d76:	220c      	movs	r2, #12
 8000d78:	615a      	str	r2, [r3, #20]
  huart1.Init.HwFlowCtl = UART_HWCONTROL_NONE;
 8000d7a:	4b08      	ldr	r3, [pc, #32]	@ (8000d9c <MX_USART1_UART_Init+0x4c>)
 8000d7c:	2200      	movs	r2, #0
 8000d7e:	619a      	str	r2, [r3, #24]
  huart1.Init.OverSampling = UART_OVERSAMPLING_16;
 8000d80:	4b06      	ldr	r3, [pc, #24]	@ (8000d9c <MX_USART1_UART_Init+0x4c>)
 8000d82:	2200      	movs	r2, #0
 8000d84:	61da      	str	r2, [r3, #28]
  if (HAL_UART_Init(&huart1) != HAL_OK)
 8000d86:	4805      	ldr	r0, [pc, #20]	@ (8000d9c <MX_USART1_UART_Init+0x4c>)
 8000d88:	f003 fbde 	bl	8004548 <HAL_UART_Init>
 8000d8c:	4603      	mov	r3, r0
 8000d8e:	2b00      	cmp	r3, #0
 8000d90:	d001      	beq.n	8000d96 <MX_USART1_UART_Init+0x46>
  {
    Error_Handler();
 8000d92:	f7ff fe57 	bl	8000a44 <Error_Handler>
  }
  /* USER CODE BEGIN USART1_Init 2 */

  /* USER CODE END USART1_Init 2 */

}
 8000d96:	bf00      	nop
 8000d98:	bd80      	pop	{r7, pc}
 8000d9a:	bf00      	nop
 8000d9c:	2000011c 	.word	0x2000011c
 8000da0:	40013800 	.word	0x40013800

08000da4 <HAL_UART_MspInit>:

void HAL_UART_MspInit(UART_HandleTypeDef* uartHandle)
{
 8000da4:	b580      	push	{r7, lr}
 8000da6:	b088      	sub	sp, #32
 8000da8:	af00      	add	r7, sp, #0
 8000daa:	6078      	str	r0, [r7, #4]

  GPIO_InitTypeDef GPIO_InitStruct = {0};
 8000dac:	f107 0310 	add.w	r3, r7, #16
 8000db0:	2200      	movs	r2, #0
 8000db2:	601a      	str	r2, [r3, #0]
 8000db4:	605a      	str	r2, [r3, #4]
 8000db6:	609a      	str	r2, [r3, #8]
 8000db8:	60da      	str	r2, [r3, #12]
  if(uartHandle->Instance==USART1)
 8000dba:	687b      	ldr	r3, [r7, #4]
 8000dbc:	681b      	ldr	r3, [r3, #0]
 8000dbe:	4a1c      	ldr	r2, [pc, #112]	@ (8000e30 <HAL_UART_MspInit+0x8c>)
 8000dc0:	4293      	cmp	r3, r2
 8000dc2:	d131      	bne.n	8000e28 <HAL_UART_MspInit+0x84>
  {
  /* USER CODE BEGIN USART1_MspInit 0 */

  /* USER CODE END USART1_MspInit 0 */
    /* USART1 clock enable */
    __HAL_RCC_USART1_CLK_ENABLE();
 8000dc4:	4b1b      	ldr	r3, [pc, #108]	@ (8000e34 <HAL_UART_MspInit+0x90>)
 8000dc6:	699b      	ldr	r3, [r3, #24]
 8000dc8:	4a1a      	ldr	r2, [pc, #104]	@ (8000e34 <HAL_UART_MspInit+0x90>)
 8000dca:	f443 4380 	orr.w	r3, r3, #16384	@ 0x4000
 8000dce:	6193      	str	r3, [r2, #24]
 8000dd0:	4b18      	ldr	r3, [pc, #96]	@ (8000e34 <HAL_UART_MspInit+0x90>)
 8000dd2:	699b      	ldr	r3, [r3, #24]
 8000dd4:	f403 4380 	and.w	r3, r3, #16384	@ 0x4000
 8000dd8:	60fb      	str	r3, [r7, #12]
 8000dda:	68fb      	ldr	r3, [r7, #12]

    __HAL_RCC_GPIOA_CLK_ENABLE();
 8000ddc:	4b15      	ldr	r3, [pc, #84]	@ (8000e34 <HAL_UART_MspInit+0x90>)
 8000dde:	699b      	ldr	r3, [r3, #24]
 8000de0:	4a14      	ldr	r2, [pc, #80]	@ (8000e34 <HAL_UART_MspInit+0x90>)
 8000de2:	f043 0304 	orr.w	r3, r3, #4
 8000de6:	6193      	str	r3, [r2, #24]
 8000de8:	4b12      	ldr	r3, [pc, #72]	@ (8000e34 <HAL_UART_MspInit+0x90>)
 8000dea:	699b      	ldr	r3, [r3, #24]
 8000dec:	f003 0304 	and.w	r3, r3, #4
 8000df0:	60bb      	str	r3, [r7, #8]
 8000df2:	68bb      	ldr	r3, [r7, #8]
    /**USART1 GPIO Configuration
    PA9     ------> USART1_TX
    PA10     ------> USART1_RX
    */
    GPIO_InitStruct.Pin = GPIO_PIN_9;
 8000df4:	f44f 7300 	mov.w	r3, #512	@ 0x200
 8000df8:	613b      	str	r3, [r7, #16]
    GPIO_InitStruct.Mode = GPIO_MODE_AF_PP;
 8000dfa:	2302      	movs	r3, #2
 8000dfc:	617b      	str	r3, [r7, #20]
    GPIO_InitStruct.Speed = GPIO_SPEED_FREQ_HIGH;
 8000dfe:	2303      	movs	r3, #3
 8000e00:	61fb      	str	r3, [r7, #28]
    HAL_GPIO_Init(GPIOA, &GPIO_InitStruct);
 8000e02:	f107 0310 	add.w	r3, r7, #16
 8000e06:	4619      	mov	r1, r3
 8000e08:	480b      	ldr	r0, [pc, #44]	@ (8000e38 <HAL_UART_MspInit+0x94>)
 8000e0a:	f002 f899 	bl	8002f40 <HAL_GPIO_Init>

    GPIO_InitStruct.Pin = GPIO_PIN_10;
 8000e0e:	f44f 6380 	mov.w	r3, #1024	@ 0x400
 8000e12:	613b      	str	r3, [r7, #16]
    GPIO_InitStruct.Mode = GPIO_MODE_INPUT;
 8000e14:	2300      	movs	r3, #0
 8000e16:	617b      	str	r3, [r7, #20]
    GPIO_InitStruct.Pull = GPIO_NOPULL;
 8000e18:	2300      	movs	r3, #0
 8000e1a:	61bb      	str	r3, [r7, #24]
    HAL_GPIO_Init(GPIOA, &GPIO_InitStruct);
 8000e1c:	f107 0310 	add.w	r3, r7, #16
 8000e20:	4619      	mov	r1, r3
 8000e22:	4805      	ldr	r0, [pc, #20]	@ (8000e38 <HAL_UART_MspInit+0x94>)
 8000e24:	f002 f88c 	bl	8002f40 <HAL_GPIO_Init>

  /* USER CODE BEGIN USART1_MspInit 1 */

  /* USER CODE END USART1_MspInit 1 */
  }
}
 8000e28:	bf00      	nop
 8000e2a:	3720      	adds	r7, #32
 8000e2c:	46bd      	mov	sp, r7
 8000e2e:	bd80      	pop	{r7, pc}
 8000e30:	40013800 	.word	0x40013800
 8000e34:	40021000 	.word	0x40021000
 8000e38:	40010800 	.word	0x40010800

08000e3c <Reset_Handler>:
  .weak Reset_Handler
  .type Reset_Handler, %function
Reset_Handler:

/* Call the clock system initialization function.*/
    bl  SystemInit
 8000e3c:	f7ff ff10 	bl	8000c60 <SystemInit>

/* Copy the data segment initializers from flash to SRAM */
  ldr r0, =_sdata
 8000e40:	480b      	ldr	r0, [pc, #44]	@ (8000e70 <LoopFillZerobss+0xe>)
  ldr r1, =_edata
 8000e42:	490c      	ldr	r1, [pc, #48]	@ (8000e74 <LoopFillZerobss+0x12>)
  ldr r2, =_sidata
 8000e44:	4a0c      	ldr	r2, [pc, #48]	@ (8000e78 <LoopFillZerobss+0x16>)
  movs r3, #0
 8000e46:	2300      	movs	r3, #0
  b LoopCopyDataInit
 8000e48:	e002      	b.n	8000e50 <LoopCopyDataInit>

08000e4a <CopyDataInit>:

CopyDataInit:
  ldr r4, [r2, r3]
 8000e4a:	58d4      	ldr	r4, [r2, r3]
  str r4, [r0, r3]
 8000e4c:	50c4      	str	r4, [r0, r3]
  adds r3, r3, #4
 8000e4e:	3304      	adds	r3, #4

08000e50 <LoopCopyDataInit>:

LoopCopyDataInit:
  adds r4, r0, r3
 8000e50:	18c4      	adds	r4, r0, r3
  cmp r4, r1
 8000e52:	428c      	cmp	r4, r1
  bcc CopyDataInit
 8000e54:	d3f9      	bcc.n	8000e4a <CopyDataInit>
  
/* Zero fill the bss segment. */
  ldr r2, =_sbss
 8000e56:	4a09      	ldr	r2, [pc, #36]	@ (8000e7c <LoopFillZerobss+0x1a>)
  ldr r4, =_ebss
 8000e58:	4c09      	ldr	r4, [pc, #36]	@ (8000e80 <LoopFillZerobss+0x1e>)
  movs r3, #0
 8000e5a:	2300      	movs	r3, #0
  b LoopFillZerobss
 8000e5c:	e001      	b.n	8000e62 <LoopFillZerobss>

08000e5e <FillZerobss>:

FillZerobss:
  str  r3, [r2]
 8000e5e:	6013      	str	r3, [r2, #0]
  adds r2, r2, #4
 8000e60:	3204      	adds	r2, #4

08000e62 <LoopFillZerobss>:

LoopFillZerobss:
  cmp r2, r4
 8000e62:	42a2      	cmp	r2, r4
  bcc FillZerobss
 8000e64:	d3fb      	bcc.n	8000e5e <FillZerobss>

/* Call static constructors */
    bl __libc_init_array
 8000e66:	f003 ff33 	bl	8004cd0 <__libc_init_array>
/* Call the application's entry point.*/
  bl main
 8000e6a:	f7ff fd49 	bl	8000900 <main>
  bx lr
 8000e6e:	4770      	bx	lr
  ldr r0, =_sdata
 8000e70:	20000000 	.word	0x20000000
  ldr r1, =_edata
 8000e74:	20000080 	.word	0x20000080
  ldr r2, =_sidata
 8000e78:	080074c0 	.word	0x080074c0
  ldr r2, =_sbss
 8000e7c:	20000080 	.word	0x20000080
  ldr r4, =_ebss
 8000e80:	200006c0 	.word	0x200006c0

08000e84 <ADC1_2_IRQHandler>:
 * @retval : None
*/
    .section .text.Default_Handler,"ax",%progbits
Default_Handler:
Infinite_Loop:
  b Infinite_Loop
 8000e84:	e7fe      	b.n	8000e84 <ADC1_2_IRQHandler>
	...

08000e88 <format_fixed>:
static float g_last_temp = 0.0f;
static uint8_t g_temp_valid = 0;
static uint8_t g_oled_ready = 0;

static void format_fixed(char *buf, size_t len, float value, uint8_t frac_digits)
{
 8000e88:	b590      	push	{r4, r7, lr}
 8000e8a:	b08d      	sub	sp, #52	@ 0x34
 8000e8c:	af02      	add	r7, sp, #8
 8000e8e:	60f8      	str	r0, [r7, #12]
 8000e90:	60b9      	str	r1, [r7, #8]
 8000e92:	607a      	str	r2, [r7, #4]
 8000e94:	70fb      	strb	r3, [r7, #3]
    int32_t scale = 1;
 8000e96:	2301      	movs	r3, #1
 8000e98:	627b      	str	r3, [r7, #36]	@ 0x24
    for (uint8_t i = 0; i < frac_digits; i++)
 8000e9a:	2300      	movs	r3, #0
 8000e9c:	f887 3023 	strb.w	r3, [r7, #35]	@ 0x23
 8000ea0:	e00a      	b.n	8000eb8 <format_fixed+0x30>
    {
        scale *= 10;
 8000ea2:	6a7a      	ldr	r2, [r7, #36]	@ 0x24
 8000ea4:	4613      	mov	r3, r2
 8000ea6:	009b      	lsls	r3, r3, #2
 8000ea8:	4413      	add	r3, r2
 8000eaa:	005b      	lsls	r3, r3, #1
 8000eac:	627b      	str	r3, [r7, #36]	@ 0x24
    for (uint8_t i = 0; i < frac_digits; i++)
 8000eae:	f897 3023 	ldrb.w	r3, [r7, #35]	@ 0x23
 8000eb2:	3301      	adds	r3, #1
 8000eb4:	f887 3023 	strb.w	r3, [r7, #35]	@ 0x23
 8000eb8:	f897 2023 	ldrb.w	r2, [r7, #35]	@ 0x23
 8000ebc:	78fb      	ldrb	r3, [r7, #3]
 8000ebe:	429a      	cmp	r2, r3
 8000ec0:	d3ef      	bcc.n	8000ea2 <format_fixed+0x1a>
    }

    int negative = 0;
 8000ec2:	2300      	movs	r3, #0
 8000ec4:	61fb      	str	r3, [r7, #28]
    if (value < 0)
 8000ec6:	f04f 0100 	mov.w	r1, #0
 8000eca:	6878      	ldr	r0, [r7, #4]
 8000ecc:	f7ff fbea 	bl	80006a4 <__aeabi_fcmplt>
 8000ed0:	4603      	mov	r3, r0
 8000ed2:	2b00      	cmp	r3, #0
 8000ed4:	d005      	beq.n	8000ee2 <format_fixed+0x5a>
    {
        negative = 1;
 8000ed6:	2301      	movs	r3, #1
 8000ed8:	61fb      	str	r3, [r7, #28]
        value = -value;
 8000eda:	687b      	ldr	r3, [r7, #4]
 8000edc:	f083 4300 	eor.w	r3, r3, #2147483648	@ 0x80000000
 8000ee0:	607b      	str	r3, [r7, #4]
    }

    int32_t iv = (int32_t)value;
 8000ee2:	6878      	ldr	r0, [r7, #4]
 8000ee4:	f7ff fc06 	bl	80006f4 <__aeabi_f2iz>
 8000ee8:	4603      	mov	r3, r0
 8000eea:	61bb      	str	r3, [r7, #24]
    int32_t fv = (int32_t)((value - (float)iv) * scale + 0.5f);
 8000eec:	69b8      	ldr	r0, [r7, #24]
 8000eee:	f7ff f9e7 	bl	80002c0 <__aeabi_i2f>
 8000ef2:	4603      	mov	r3, r0
 8000ef4:	4619      	mov	r1, r3
 8000ef6:	6878      	ldr	r0, [r7, #4]
 8000ef8:	f7ff f92c 	bl	8000154 <__aeabi_fsub>
 8000efc:	4603      	mov	r3, r0
 8000efe:	461c      	mov	r4, r3
 8000f00:	6a78      	ldr	r0, [r7, #36]	@ 0x24
 8000f02:	f7ff f9dd 	bl	80002c0 <__aeabi_i2f>
 8000f06:	4603      	mov	r3, r0
 8000f08:	4619      	mov	r1, r3
 8000f0a:	4620      	mov	r0, r4
 8000f0c:	f7ff fa2c 	bl	8000368 <__aeabi_fmul>
 8000f10:	4603      	mov	r3, r0
 8000f12:	f04f 517c 	mov.w	r1, #1056964608	@ 0x3f000000
 8000f16:	4618      	mov	r0, r3
 8000f18:	f7ff f91e 	bl	8000158 <__addsf3>
 8000f1c:	4603      	mov	r3, r0
 8000f1e:	4618      	mov	r0, r3
 8000f20:	f7ff fbe8 	bl	80006f4 <__aeabi_f2iz>
 8000f24:	4603      	mov	r3, r0
 8000f26:	617b      	str	r3, [r7, #20]

    if (fv >= scale)
 8000f28:	697a      	ldr	r2, [r7, #20]
 8000f2a:	6a7b      	ldr	r3, [r7, #36]	@ 0x24
 8000f2c:	429a      	cmp	r2, r3
 8000f2e:	db04      	blt.n	8000f3a <format_fixed+0xb2>
    {
        iv++;
 8000f30:	69bb      	ldr	r3, [r7, #24]
 8000f32:	3301      	adds	r3, #1
 8000f34:	61bb      	str	r3, [r7, #24]
        fv = 0;
 8000f36:	2300      	movs	r3, #0
 8000f38:	617b      	str	r3, [r7, #20]
    }

    if (negative)
 8000f3a:	69fb      	ldr	r3, [r7, #28]
 8000f3c:	2b00      	cmp	r3, #0
 8000f3e:	d00a      	beq.n	8000f56 <format_fixed+0xce>
    {
        snprintf(buf, len, "-%ld.%0*ld", (long)iv, frac_digits, (long)fv);
 8000f40:	78fb      	ldrb	r3, [r7, #3]
 8000f42:	697a      	ldr	r2, [r7, #20]
 8000f44:	9201      	str	r2, [sp, #4]
 8000f46:	9300      	str	r3, [sp, #0]
 8000f48:	69bb      	ldr	r3, [r7, #24]
 8000f4a:	4a0a      	ldr	r2, [pc, #40]	@ (8000f74 <format_fixed+0xec>)
 8000f4c:	68b9      	ldr	r1, [r7, #8]
 8000f4e:	68f8      	ldr	r0, [r7, #12]
 8000f50:	f003 fdf2 	bl	8004b38 <sniprintf>
    }
    else
    {
        snprintf(buf, len, "%ld.%0*ld", (long)iv, frac_digits, (long)fv);
    }
}
 8000f54:	e009      	b.n	8000f6a <format_fixed+0xe2>
        snprintf(buf, len, "%ld.%0*ld", (long)iv, frac_digits, (long)fv);
 8000f56:	78fb      	ldrb	r3, [r7, #3]
 8000f58:	697a      	ldr	r2, [r7, #20]
 8000f5a:	9201      	str	r2, [sp, #4]
 8000f5c:	9300      	str	r3, [sp, #0]
 8000f5e:	69bb      	ldr	r3, [r7, #24]
 8000f60:	4a05      	ldr	r2, [pc, #20]	@ (8000f78 <format_fixed+0xf0>)
 8000f62:	68b9      	ldr	r1, [r7, #8]
 8000f64:	68f8      	ldr	r0, [r7, #12]
 8000f66:	f003 fde7 	bl	8004b38 <sniprintf>
}
 8000f6a:	bf00      	nop
 8000f6c:	372c      	adds	r7, #44	@ 0x2c
 8000f6e:	46bd      	mov	sp, r7
 8000f70:	bd90      	pop	{r4, r7, pc}
 8000f72:	bf00      	nop
 8000f74:	08005bfc 	.word	0x08005bfc
 8000f78:	08005c08 	.word	0x08005c08

08000f7c <APP_UserInit>:

void APP_UserInit(void)
{
 8000f7c:	b580      	push	{r7, lr}
 8000f7e:	b082      	sub	sp, #8
 8000f80:	af02      	add	r7, sp, #8
    delay_us_init();
 8000f82:	f000 f8f9 	bl	8001178 <delay_us_init>
    HAL_ADCEx_Calibration_Start(&hadc1);
 8000f86:	4813      	ldr	r0, [pc, #76]	@ (8000fd4 <APP_UserInit+0x58>)
 8000f88:	f001 fe1e 	bl	8002bc8 <HAL_ADCEx_Calibration_Start>

    DS18B20_Init();
 8000f8c:	f000 fa64 	bl	8001458 <DS18B20_Init>
    PH_Init();
 8000f90:	f000 feea 	bl	8001d68 <PH_Init>
    APP_Time_InitDefault();
 8000f94:	f001 f89e 	bl	80020d4 <APP_Time_InitDefault>

    if (atk_md0096_init() == ATK_MD0096_EOK)
 8000f98:	f000 fbbc 	bl	8001714 <atk_md0096_init>
 8000f9c:	4603      	mov	r3, r0
 8000f9e:	2b00      	cmp	r3, #0
 8000fa0:	d114      	bne.n	8000fcc <APP_UserInit+0x50>
    {
        g_oled_ready = 1;
 8000fa2:	4b0d      	ldr	r3, [pc, #52]	@ (8000fd8 <APP_UserInit+0x5c>)
 8000fa4:	2201      	movs	r2, #1
 8000fa6:	701a      	strb	r2, [r3, #0]
        atk_md0096_oled_clear_gram();
 8000fa8:	f000 fc12 	bl	80017d0 <atk_md0096_oled_clear_gram>
        atk_md0096_oled_show_string(0, 0, ATK_MD0096_OLED_FONT_SIZE_12, "PH Meter Start", ATK_MD0096_OLED_SHOW_MODE_NORMAL);
 8000fac:	2300      	movs	r3, #0
 8000fae:	9300      	str	r3, [sp, #0]
 8000fb0:	4b0a      	ldr	r3, [pc, #40]	@ (8000fdc <APP_UserInit+0x60>)
 8000fb2:	2200      	movs	r2, #0
 8000fb4:	2100      	movs	r1, #0
 8000fb6:	2000      	movs	r0, #0
 8000fb8:	f000 fd50 	bl	8001a5c <atk_md0096_oled_show_string>
        atk_md0096_oled_update();
 8000fbc:	f000 fbd4 	bl	8001768 <atk_md0096_oled_update>
        HAL_Delay(800);
 8000fc0:	f44f 7048 	mov.w	r0, #800	@ 0x320
 8000fc4:	f001 f984 	bl	80022d0 <HAL_Delay>
        atk_md0096_oled_clear();
 8000fc8:	f000 fc28 	bl	800181c <atk_md0096_oled_clear>
    }
}
 8000fcc:	bf00      	nop
 8000fce:	46bd      	mov	sp, r7
 8000fd0:	bd80      	pop	{r7, pc}
 8000fd2:	bf00      	nop
 8000fd4:	2000009c 	.word	0x2000009c
 8000fd8:	20000169 	.word	0x20000169
 8000fdc:	08005c14 	.word	0x08005c14

08000fe0 <APP_Timer1sISR>:

void APP_Timer1sISR(void)
{
 8000fe0:	b580      	push	{r7, lr}
 8000fe2:	af00      	add	r7, sp, #0
    APP_Time_Tick1s();
 8000fe4:	f001 f892 	bl	800210c <APP_Time_Tick1s>
}
 8000fe8:	bf00      	nop
 8000fea:	bd80      	pop	{r7, pc}

08000fec <APP_Task1s>:

void APP_Task1s(void)
{
 8000fec:	b580      	push	{r7, lr}
 8000fee:	b0a2      	sub	sp, #136	@ 0x88
 8000ff0:	af02      	add	r7, sp, #8
    float temp = 0.0f;
 8000ff2:	f04f 0300 	mov.w	r3, #0
 8000ff6:	677b      	str	r3, [r7, #116]	@ 0x74
    float voltage = 0.0f;
 8000ff8:	f04f 0300 	mov.w	r3, #0
 8000ffc:	673b      	str	r3, [r7, #112]	@ 0x70
    float ph = 7.00f;
 8000ffe:	4b55      	ldr	r3, [pc, #340]	@ (8001154 <APP_Task1s+0x168>)
 8001000:	67bb      	str	r3, [r7, #120]	@ 0x78
    uint8_t temp_valid = 0;
 8001002:	2300      	movs	r3, #0
 8001004:	f887 307f 	strb.w	r3, [r7, #127]	@ 0x7f
    char ph_str[16];
    char temp_str[16];
    char volt_str[16];
    char line[32];

    if (DS18B20_ReadTemperature(&temp))
 8001008:	f107 0374 	add.w	r3, r7, #116	@ 0x74
 800100c:	4618      	mov	r0, r3
 800100e:	f000 fa2f 	bl	8001470 <DS18B20_ReadTemperature>
 8001012:	4603      	mov	r3, r0
 8001014:	2b00      	cmp	r3, #0
 8001016:	d009      	beq.n	800102c <APP_Task1s+0x40>
    {
        g_last_temp = temp;
 8001018:	6f7b      	ldr	r3, [r7, #116]	@ 0x74
 800101a:	4a4f      	ldr	r2, [pc, #316]	@ (8001158 <APP_Task1s+0x16c>)
 800101c:	6013      	str	r3, [r2, #0]
        g_temp_valid = 1;
 800101e:	4b4f      	ldr	r3, [pc, #316]	@ (800115c <APP_Task1s+0x170>)
 8001020:	2201      	movs	r2, #1
 8001022:	701a      	strb	r2, [r3, #0]
        temp_valid = 1;
 8001024:	2301      	movs	r3, #1
 8001026:	f887 307f 	strb.w	r3, [r7, #127]	@ 0x7f
 800102a:	e009      	b.n	8001040 <APP_Task1s+0x54>
    }
    else if (g_temp_valid)
 800102c:	4b4b      	ldr	r3, [pc, #300]	@ (800115c <APP_Task1s+0x170>)
 800102e:	781b      	ldrb	r3, [r3, #0]
 8001030:	2b00      	cmp	r3, #0
 8001032:	d005      	beq.n	8001040 <APP_Task1s+0x54>
    {
        temp = g_last_temp;
 8001034:	4b48      	ldr	r3, [pc, #288]	@ (8001158 <APP_Task1s+0x16c>)
 8001036:	681b      	ldr	r3, [r3, #0]
 8001038:	677b      	str	r3, [r7, #116]	@ 0x74
        temp_valid = 1;
 800103a:	2301      	movs	r3, #1
 800103c:	f887 307f 	strb.w	r3, [r7, #127]	@ 0x7f
    }

    if (temp_valid)
 8001040:	f897 307f 	ldrb.w	r3, [r7, #127]	@ 0x7f
 8001044:	2b00      	cmp	r3, #0
 8001046:	d016      	beq.n	8001076 <APP_Task1s+0x8a>
    {
        ph = PH_ReadPH(temp, &voltage);
 8001048:	6f7b      	ldr	r3, [r7, #116]	@ 0x74
 800104a:	f107 0270 	add.w	r2, r7, #112	@ 0x70
 800104e:	4611      	mov	r1, r2
 8001050:	4618      	mov	r0, r3
 8001052:	f000 ff73 	bl	8001f3c <PH_ReadPH>
 8001056:	67b8      	str	r0, [r7, #120]	@ 0x78
        format_fixed(ph_str, sizeof(ph_str), ph, 2);
 8001058:	f107 0040 	add.w	r0, r7, #64	@ 0x40
 800105c:	2302      	movs	r3, #2
 800105e:	6fba      	ldr	r2, [r7, #120]	@ 0x78
 8001060:	2110      	movs	r1, #16
 8001062:	f7ff ff11 	bl	8000e88 <format_fixed>
        format_fixed(temp_str, sizeof(temp_str), temp, 2);
 8001066:	6f7a      	ldr	r2, [r7, #116]	@ 0x74
 8001068:	f107 0030 	add.w	r0, r7, #48	@ 0x30
 800106c:	2302      	movs	r3, #2
 800106e:	2110      	movs	r1, #16
 8001070:	f7ff ff0a 	bl	8000e88 <format_fixed>
 8001074:	e011      	b.n	800109a <APP_Task1s+0xae>
    }
    else
    {
        voltage = PH_ReadVoltage();
 8001076:	f000 fea7 	bl	8001dc8 <PH_ReadVoltage>
 800107a:	4603      	mov	r3, r0
 800107c:	673b      	str	r3, [r7, #112]	@ 0x70
        snprintf(ph_str, sizeof(ph_str), "ERR");
 800107e:	f107 0340 	add.w	r3, r7, #64	@ 0x40
 8001082:	4a37      	ldr	r2, [pc, #220]	@ (8001160 <APP_Task1s+0x174>)
 8001084:	2110      	movs	r1, #16
 8001086:	4618      	mov	r0, r3
 8001088:	f003 fd56 	bl	8004b38 <sniprintf>
        snprintf(temp_str, sizeof(temp_str), "ERR");
 800108c:	f107 0330 	add.w	r3, r7, #48	@ 0x30
 8001090:	4a33      	ldr	r2, [pc, #204]	@ (8001160 <APP_Task1s+0x174>)
 8001092:	2110      	movs	r1, #16
 8001094:	4618      	mov	r0, r3
 8001096:	f003 fd4f 	bl	8004b38 <sniprintf>
    }

    format_fixed(volt_str, sizeof(volt_str), voltage, 3);
 800109a:	6f3a      	ldr	r2, [r7, #112]	@ 0x70
 800109c:	f107 0020 	add.w	r0, r7, #32
 80010a0:	2303      	movs	r3, #3
 80010a2:	2110      	movs	r1, #16
 80010a4:	f7ff fef0 	bl	8000e88 <format_fixed>
    APP_Time_GetString(time_str, sizeof(time_str));
 80010a8:	f107 0350 	add.w	r3, r7, #80	@ 0x50
 80010ac:	2120      	movs	r1, #32
 80010ae:	4618      	mov	r0, r3
 80010b0:	f001 f882 	bl	80021b8 <APP_Time_GetString>

    if (g_oled_ready)
 80010b4:	4b2b      	ldr	r3, [pc, #172]	@ (8001164 <APP_Task1s+0x178>)
 80010b6:	781b      	ldrb	r3, [r3, #0]
 80010b8:	2b00      	cmp	r3, #0
 80010ba:	d039      	beq.n	8001130 <APP_Task1s+0x144>
    {
        atk_md0096_oled_clear_gram();
 80010bc:	f000 fb88 	bl	80017d0 <atk_md0096_oled_clear_gram>

        snprintf(line, sizeof(line), "PH:%s", ph_str);
 80010c0:	f107 0340 	add.w	r3, r7, #64	@ 0x40
 80010c4:	4638      	mov	r0, r7
 80010c6:	4a28      	ldr	r2, [pc, #160]	@ (8001168 <APP_Task1s+0x17c>)
 80010c8:	2120      	movs	r1, #32
 80010ca:	f003 fd35 	bl	8004b38 <sniprintf>
        atk_md0096_oled_show_string(0, 0, ATK_MD0096_OLED_FONT_SIZE_12, line, ATK_MD0096_OLED_SHOW_MODE_NORMAL);
 80010ce:	463b      	mov	r3, r7
 80010d0:	2200      	movs	r2, #0
 80010d2:	9200      	str	r2, [sp, #0]
 80010d4:	2200      	movs	r2, #0
 80010d6:	2100      	movs	r1, #0
 80010d8:	2000      	movs	r0, #0
 80010da:	f000 fcbf 	bl	8001a5c <atk_md0096_oled_show_string>

        snprintf(line, sizeof(line), "T:%sC", temp_str);
 80010de:	f107 0330 	add.w	r3, r7, #48	@ 0x30
 80010e2:	4638      	mov	r0, r7
 80010e4:	4a21      	ldr	r2, [pc, #132]	@ (800116c <APP_Task1s+0x180>)
 80010e6:	2120      	movs	r1, #32
 80010e8:	f003 fd26 	bl	8004b38 <sniprintf>
        atk_md0096_oled_show_string(0, 16, ATK_MD0096_OLED_FONT_SIZE_12, line, ATK_MD0096_OLED_SHOW_MODE_NORMAL);
 80010ec:	463b      	mov	r3, r7
 80010ee:	2200      	movs	r2, #0
 80010f0:	9200      	str	r2, [sp, #0]
 80010f2:	2200      	movs	r2, #0
 80010f4:	2110      	movs	r1, #16
 80010f6:	2000      	movs	r0, #0
 80010f8:	f000 fcb0 	bl	8001a5c <atk_md0096_oled_show_string>

        snprintf(line, sizeof(line), "V:%sV", volt_str);
 80010fc:	f107 0320 	add.w	r3, r7, #32
 8001100:	4638      	mov	r0, r7
 8001102:	4a1b      	ldr	r2, [pc, #108]	@ (8001170 <APP_Task1s+0x184>)
 8001104:	2120      	movs	r1, #32
 8001106:	f003 fd17 	bl	8004b38 <sniprintf>
        atk_md0096_oled_show_string(0, 32, ATK_MD0096_OLED_FONT_SIZE_12, line, ATK_MD0096_OLED_SHOW_MODE_NORMAL);
 800110a:	463b      	mov	r3, r7
 800110c:	2200      	movs	r2, #0
 800110e:	9200      	str	r2, [sp, #0]
 8001110:	2200      	movs	r2, #0
 8001112:	2120      	movs	r1, #32
 8001114:	2000      	movs	r0, #0
 8001116:	f000 fca1 	bl	8001a5c <atk_md0096_oled_show_string>

        atk_md0096_oled_show_string(0, 48, ATK_MD0096_OLED_FONT_SIZE_12, time_str, ATK_MD0096_OLED_SHOW_MODE_NORMAL);
 800111a:	f107 0350 	add.w	r3, r7, #80	@ 0x50
 800111e:	2200      	movs	r2, #0
 8001120:	9200      	str	r2, [sp, #0]
 8001122:	2200      	movs	r2, #0
 8001124:	2130      	movs	r1, #48	@ 0x30
 8001126:	2000      	movs	r0, #0
 8001128:	f000 fc98 	bl	8001a5c <atk_md0096_oled_show_string>
        atk_md0096_oled_update();
 800112c:	f000 fb1c 	bl	8001768 <atk_md0096_oled_update>
    }

    printf("%s,PH=%s,T=%sC,V=%sV\r\n", time_str, ph_str, temp_str, volt_str);
 8001130:	f107 0030 	add.w	r0, r7, #48	@ 0x30
 8001134:	f107 0240 	add.w	r2, r7, #64	@ 0x40
 8001138:	f107 0150 	add.w	r1, r7, #80	@ 0x50
 800113c:	f107 0320 	add.w	r3, r7, #32
 8001140:	9300      	str	r3, [sp, #0]
 8001142:	4603      	mov	r3, r0
 8001144:	480b      	ldr	r0, [pc, #44]	@ (8001174 <APP_Task1s+0x188>)
 8001146:	f003 fce5 	bl	8004b14 <iprintf>
}
 800114a:	bf00      	nop
 800114c:	3780      	adds	r7, #128	@ 0x80
 800114e:	46bd      	mov	sp, r7
 8001150:	bd80      	pop	{r7, pc}
 8001152:	bf00      	nop
 8001154:	40e00000 	.word	0x40e00000
 8001158:	20000164 	.word	0x20000164
 800115c:	20000168 	.word	0x20000168
 8001160:	08005c24 	.word	0x08005c24
 8001164:	20000169 	.word	0x20000169
 8001168:	08005c28 	.word	0x08005c28
 800116c:	08005c30 	.word	0x08005c30
 8001170:	08005c38 	.word	0x08005c38
 8001174:	08005c40 	.word	0x08005c40

08001178 <delay_us_init>:
#include "delay_us.h"

static uint32_t g_ticks_per_us = 0;

void delay_us_init(void)
{
 8001178:	b580      	push	{r7, lr}
 800117a:	af00      	add	r7, sp, #0
    g_ticks_per_us = HAL_RCC_GetHCLKFreq() / 1000000U;
 800117c:	f002 fc4c 	bl	8003a18 <HAL_RCC_GetHCLKFreq>
 8001180:	4603      	mov	r3, r0
 8001182:	4a07      	ldr	r2, [pc, #28]	@ (80011a0 <delay_us_init+0x28>)
 8001184:	fba2 2303 	umull	r2, r3, r2, r3
 8001188:	0c9b      	lsrs	r3, r3, #18
 800118a:	4a06      	ldr	r2, [pc, #24]	@ (80011a4 <delay_us_init+0x2c>)
 800118c:	6013      	str	r3, [r2, #0]
    if (g_ticks_per_us == 0U)
 800118e:	4b05      	ldr	r3, [pc, #20]	@ (80011a4 <delay_us_init+0x2c>)
 8001190:	681b      	ldr	r3, [r3, #0]
 8001192:	2b00      	cmp	r3, #0
 8001194:	d102      	bne.n	800119c <delay_us_init+0x24>
    {
        g_ticks_per_us = 1U;
 8001196:	4b03      	ldr	r3, [pc, #12]	@ (80011a4 <delay_us_init+0x2c>)
 8001198:	2201      	movs	r2, #1
 800119a:	601a      	str	r2, [r3, #0]
    }
}
 800119c:	bf00      	nop
 800119e:	bd80      	pop	{r7, pc}
 80011a0:	431bde83 	.word	0x431bde83
 80011a4:	2000016c 	.word	0x2000016c

080011a8 <delay_us>:

void delay_us(uint32_t us)
{
 80011a8:	b480      	push	{r7}
 80011aa:	b089      	sub	sp, #36	@ 0x24
 80011ac:	af00      	add	r7, sp, #0
 80011ae:	6078      	str	r0, [r7, #4]
    uint32_t reload = SysTick->LOAD + 1U;
 80011b0:	4b1a      	ldr	r3, [pc, #104]	@ (800121c <delay_us+0x74>)
 80011b2:	685b      	ldr	r3, [r3, #4]
 80011b4:	3301      	adds	r3, #1
 80011b6:	617b      	str	r3, [r7, #20]
    uint32_t ticks = us * g_ticks_per_us;
 80011b8:	4b19      	ldr	r3, [pc, #100]	@ (8001220 <delay_us+0x78>)
 80011ba:	681a      	ldr	r2, [r3, #0]
 80011bc:	687b      	ldr	r3, [r7, #4]
 80011be:	fb02 f303 	mul.w	r3, r2, r3
 80011c2:	613b      	str	r3, [r7, #16]
    uint32_t elapsed = 0U;
 80011c4:	2300      	movs	r3, #0
 80011c6:	61fb      	str	r3, [r7, #28]
    uint32_t last = SysTick->VAL;
 80011c8:	4b14      	ldr	r3, [pc, #80]	@ (800121c <delay_us+0x74>)
 80011ca:	689b      	ldr	r3, [r3, #8]
 80011cc:	61bb      	str	r3, [r7, #24]

    while (elapsed < ticks)
 80011ce:	e01b      	b.n	8001208 <delay_us+0x60>
    {
        uint32_t now = SysTick->VAL;
 80011d0:	4b12      	ldr	r3, [pc, #72]	@ (800121c <delay_us+0x74>)
 80011d2:	689b      	ldr	r3, [r3, #8]
 80011d4:	60fb      	str	r3, [r7, #12]

        if (now != last)
 80011d6:	68fa      	ldr	r2, [r7, #12]
 80011d8:	69bb      	ldr	r3, [r7, #24]
 80011da:	429a      	cmp	r2, r3
 80011dc:	d014      	beq.n	8001208 <delay_us+0x60>
        {
            if (now < last)
 80011de:	68fa      	ldr	r2, [r7, #12]
 80011e0:	69bb      	ldr	r3, [r7, #24]
 80011e2:	429a      	cmp	r2, r3
 80011e4:	d206      	bcs.n	80011f4 <delay_us+0x4c>
            {
                elapsed += last - now;
 80011e6:	69ba      	ldr	r2, [r7, #24]
 80011e8:	68fb      	ldr	r3, [r7, #12]
 80011ea:	1ad3      	subs	r3, r2, r3
 80011ec:	69fa      	ldr	r2, [r7, #28]
 80011ee:	4413      	add	r3, r2
 80011f0:	61fb      	str	r3, [r7, #28]
 80011f2:	e007      	b.n	8001204 <delay_us+0x5c>
            }
            else
            {
                elapsed += last + (reload - now);
 80011f4:	697a      	ldr	r2, [r7, #20]
 80011f6:	68fb      	ldr	r3, [r7, #12]
 80011f8:	1ad2      	subs	r2, r2, r3
 80011fa:	69bb      	ldr	r3, [r7, #24]
 80011fc:	4413      	add	r3, r2
 80011fe:	69fa      	ldr	r2, [r7, #28]
 8001200:	4413      	add	r3, r2
 8001202:	61fb      	str	r3, [r7, #28]
            }
            last = now;
 8001204:	68fb      	ldr	r3, [r7, #12]
 8001206:	61bb      	str	r3, [r7, #24]
    while (elapsed < ticks)
 8001208:	69fa      	ldr	r2, [r7, #28]
 800120a:	693b      	ldr	r3, [r7, #16]
 800120c:	429a      	cmp	r2, r3
 800120e:	d3df      	bcc.n	80011d0 <delay_us+0x28>
        }
    }
}
 8001210:	bf00      	nop
 8001212:	bf00      	nop
 8001214:	3724      	adds	r7, #36	@ 0x24
 8001216:	46bd      	mov	sp, r7
 8001218:	bc80      	pop	{r7}
 800121a:	4770      	bx	lr
 800121c:	e000e010 	.word	0xe000e010
 8001220:	2000016c 	.word	0x2000016c

08001224 <DS18B20_Pin_Output_OD>:

#define DS18B20_GPIO_PORT DS18B20_DQ_GPIO_Port
#define DS18B20_GPIO_PIN  DS18B20_DQ_Pin

static void DS18B20_Pin_Output_OD(void)
{
 8001224:	b580      	push	{r7, lr}
 8001226:	b084      	sub	sp, #16
 8001228:	af00      	add	r7, sp, #0
    GPIO_InitTypeDef GPIO_InitStruct = {0};
 800122a:	463b      	mov	r3, r7
 800122c:	2200      	movs	r2, #0
 800122e:	601a      	str	r2, [r3, #0]
 8001230:	605a      	str	r2, [r3, #4]
 8001232:	609a      	str	r2, [r3, #8]
 8001234:	60da      	str	r2, [r3, #12]
    GPIO_InitStruct.Pin = DS18B20_GPIO_PIN;
 8001236:	f44f 7380 	mov.w	r3, #256	@ 0x100
 800123a:	603b      	str	r3, [r7, #0]
    GPIO_InitStruct.Mode = GPIO_MODE_OUTPUT_OD;
 800123c:	2311      	movs	r3, #17
 800123e:	607b      	str	r3, [r7, #4]
    GPIO_InitStruct.Speed = GPIO_SPEED_FREQ_HIGH;
 8001240:	2303      	movs	r3, #3
 8001242:	60fb      	str	r3, [r7, #12]
    HAL_GPIO_Init(DS18B20_GPIO_PORT, &GPIO_InitStruct);
 8001244:	463b      	mov	r3, r7
 8001246:	4619      	mov	r1, r3
 8001248:	4803      	ldr	r0, [pc, #12]	@ (8001258 <DS18B20_Pin_Output_OD+0x34>)
 800124a:	f001 fe79 	bl	8002f40 <HAL_GPIO_Init>
}
 800124e:	bf00      	nop
 8001250:	3710      	adds	r7, #16
 8001252:	46bd      	mov	sp, r7
 8001254:	bd80      	pop	{r7, pc}
 8001256:	bf00      	nop
 8001258:	40010800 	.word	0x40010800

0800125c <DS18B20_WritePin>:

static void DS18B20_WritePin(GPIO_PinState state)
{
 800125c:	b580      	push	{r7, lr}
 800125e:	b082      	sub	sp, #8
 8001260:	af00      	add	r7, sp, #0
 8001262:	4603      	mov	r3, r0
 8001264:	71fb      	strb	r3, [r7, #7]
    HAL_GPIO_WritePin(DS18B20_GPIO_PORT, DS18B20_GPIO_PIN, state);
 8001266:	79fb      	ldrb	r3, [r7, #7]
 8001268:	461a      	mov	r2, r3
 800126a:	f44f 7180 	mov.w	r1, #256	@ 0x100
 800126e:	4803      	ldr	r0, [pc, #12]	@ (800127c <DS18B20_WritePin+0x20>)
 8001270:	f001 fff9 	bl	8003266 <HAL_GPIO_WritePin>
}
 8001274:	bf00      	nop
 8001276:	3708      	adds	r7, #8
 8001278:	46bd      	mov	sp, r7
 800127a:	bd80      	pop	{r7, pc}
 800127c:	40010800 	.word	0x40010800

08001280 <DS18B20_ReadPin>:

static GPIO_PinState DS18B20_ReadPin(void)
{
 8001280:	b580      	push	{r7, lr}
 8001282:	af00      	add	r7, sp, #0
    return HAL_GPIO_ReadPin(DS18B20_GPIO_PORT, DS18B20_GPIO_PIN);
 8001284:	f44f 7180 	mov.w	r1, #256	@ 0x100
 8001288:	4802      	ldr	r0, [pc, #8]	@ (8001294 <DS18B20_ReadPin+0x14>)
 800128a:	f001 ffd5 	bl	8003238 <HAL_GPIO_ReadPin>
 800128e:	4603      	mov	r3, r0
}
 8001290:	4618      	mov	r0, r3
 8001292:	bd80      	pop	{r7, pc}
 8001294:	40010800 	.word	0x40010800

08001298 <DS18B20_Reset>:

static uint8_t DS18B20_Reset(void)
{
 8001298:	b580      	push	{r7, lr}
 800129a:	b082      	sub	sp, #8
 800129c:	af00      	add	r7, sp, #0
    uint8_t presence = 0;
 800129e:	2300      	movs	r3, #0
 80012a0:	71fb      	strb	r3, [r7, #7]

    DS18B20_WritePin(GPIO_PIN_RESET);
 80012a2:	2000      	movs	r0, #0
 80012a4:	f7ff ffda 	bl	800125c <DS18B20_WritePin>
    delay_us(500);
 80012a8:	f44f 70fa 	mov.w	r0, #500	@ 0x1f4
 80012ac:	f7ff ff7c 	bl	80011a8 <delay_us>

    DS18B20_WritePin(GPIO_PIN_SET);
 80012b0:	2001      	movs	r0, #1
 80012b2:	f7ff ffd3 	bl	800125c <DS18B20_WritePin>
    delay_us(70);
 80012b6:	2046      	movs	r0, #70	@ 0x46
 80012b8:	f7ff ff76 	bl	80011a8 <delay_us>

    presence = (DS18B20_ReadPin() == GPIO_PIN_RESET) ? 1 : 0;
 80012bc:	f7ff ffe0 	bl	8001280 <DS18B20_ReadPin>
 80012c0:	4603      	mov	r3, r0
 80012c2:	2b00      	cmp	r3, #0
 80012c4:	bf0c      	ite	eq
 80012c6:	2301      	moveq	r3, #1
 80012c8:	2300      	movne	r3, #0
 80012ca:	b2db      	uxtb	r3, r3
 80012cc:	71fb      	strb	r3, [r7, #7]
    delay_us(430);
 80012ce:	f44f 70d7 	mov.w	r0, #430	@ 0x1ae
 80012d2:	f7ff ff69 	bl	80011a8 <delay_us>

    return presence;
 80012d6:	79fb      	ldrb	r3, [r7, #7]
}
 80012d8:	4618      	mov	r0, r3
 80012da:	3708      	adds	r7, #8
 80012dc:	46bd      	mov	sp, r7
 80012de:	bd80      	pop	{r7, pc}

080012e0 <DS18B20_WriteBit>:

static void DS18B20_WriteBit(uint8_t bit)
{
 80012e0:	b580      	push	{r7, lr}
 80012e2:	b082      	sub	sp, #8
 80012e4:	af00      	add	r7, sp, #0
 80012e6:	4603      	mov	r3, r0
 80012e8:	71fb      	strb	r3, [r7, #7]
    DS18B20_WritePin(GPIO_PIN_RESET);
 80012ea:	2000      	movs	r0, #0
 80012ec:	f7ff ffb6 	bl	800125c <DS18B20_WritePin>

    if (bit)
 80012f0:	79fb      	ldrb	r3, [r7, #7]
 80012f2:	2b00      	cmp	r3, #0
 80012f4:	d009      	beq.n	800130a <DS18B20_WriteBit+0x2a>
    {
        delay_us(3);
 80012f6:	2003      	movs	r0, #3
 80012f8:	f7ff ff56 	bl	80011a8 <delay_us>
        DS18B20_WritePin(GPIO_PIN_SET);
 80012fc:	2001      	movs	r0, #1
 80012fe:	f7ff ffad 	bl	800125c <DS18B20_WritePin>
        delay_us(60);
 8001302:	203c      	movs	r0, #60	@ 0x3c
 8001304:	f7ff ff50 	bl	80011a8 <delay_us>
    {
        delay_us(60);
        DS18B20_WritePin(GPIO_PIN_SET);
        delay_us(3);
    }
}
 8001308:	e008      	b.n	800131c <DS18B20_WriteBit+0x3c>
        delay_us(60);
 800130a:	203c      	movs	r0, #60	@ 0x3c
 800130c:	f7ff ff4c 	bl	80011a8 <delay_us>
        DS18B20_WritePin(GPIO_PIN_SET);
 8001310:	2001      	movs	r0, #1
 8001312:	f7ff ffa3 	bl	800125c <DS18B20_WritePin>
        delay_us(3);
 8001316:	2003      	movs	r0, #3
 8001318:	f7ff ff46 	bl	80011a8 <delay_us>
}
 800131c:	bf00      	nop
 800131e:	3708      	adds	r7, #8
 8001320:	46bd      	mov	sp, r7
 8001322:	bd80      	pop	{r7, pc}

08001324 <DS18B20_ReadBit>:

static uint8_t DS18B20_ReadBit(void)
{
 8001324:	b580      	push	{r7, lr}
 8001326:	b082      	sub	sp, #8
 8001328:	af00      	add	r7, sp, #0
    uint8_t bit = 0;
 800132a:	2300      	movs	r3, #0
 800132c:	71fb      	strb	r3, [r7, #7]

    DS18B20_WritePin(GPIO_PIN_RESET);
 800132e:	2000      	movs	r0, #0
 8001330:	f7ff ff94 	bl	800125c <DS18B20_WritePin>
    delay_us(3);
 8001334:	2003      	movs	r0, #3
 8001336:	f7ff ff37 	bl	80011a8 <delay_us>

    DS18B20_WritePin(GPIO_PIN_SET);
 800133a:	2001      	movs	r0, #1
 800133c:	f7ff ff8e 	bl	800125c <DS18B20_WritePin>
    delay_us(10);
 8001340:	200a      	movs	r0, #10
 8001342:	f7ff ff31 	bl	80011a8 <delay_us>

    bit = (DS18B20_ReadPin() == GPIO_PIN_SET) ? 1 : 0;
 8001346:	f7ff ff9b 	bl	8001280 <DS18B20_ReadPin>
 800134a:	4603      	mov	r3, r0
 800134c:	2b01      	cmp	r3, #1
 800134e:	bf0c      	ite	eq
 8001350:	2301      	moveq	r3, #1
 8001352:	2300      	movne	r3, #0
 8001354:	b2db      	uxtb	r3, r3
 8001356:	71fb      	strb	r3, [r7, #7]
    delay_us(50);
 8001358:	2032      	movs	r0, #50	@ 0x32
 800135a:	f7ff ff25 	bl	80011a8 <delay_us>

    return bit;
 800135e:	79fb      	ldrb	r3, [r7, #7]
}
 8001360:	4618      	mov	r0, r3
 8001362:	3708      	adds	r7, #8
 8001364:	46bd      	mov	sp, r7
 8001366:	bd80      	pop	{r7, pc}

08001368 <DS18B20_WriteByte>:

static void DS18B20_WriteByte(uint8_t data)
{
 8001368:	b580      	push	{r7, lr}
 800136a:	b084      	sub	sp, #16
 800136c:	af00      	add	r7, sp, #0
 800136e:	4603      	mov	r3, r0
 8001370:	71fb      	strb	r3, [r7, #7]
    for (uint8_t i = 0; i < 8; i++)
 8001372:	2300      	movs	r3, #0
 8001374:	73fb      	strb	r3, [r7, #15]
 8001376:	e00c      	b.n	8001392 <DS18B20_WriteByte+0x2a>
    {
        DS18B20_WriteBit(data & 0x01U);
 8001378:	79fb      	ldrb	r3, [r7, #7]
 800137a:	f003 0301 	and.w	r3, r3, #1
 800137e:	b2db      	uxtb	r3, r3
 8001380:	4618      	mov	r0, r3
 8001382:	f7ff ffad 	bl	80012e0 <DS18B20_WriteBit>
        data >>= 1;
 8001386:	79fb      	ldrb	r3, [r7, #7]
 8001388:	085b      	lsrs	r3, r3, #1
 800138a:	71fb      	strb	r3, [r7, #7]
    for (uint8_t i = 0; i < 8; i++)
 800138c:	7bfb      	ldrb	r3, [r7, #15]
 800138e:	3301      	adds	r3, #1
 8001390:	73fb      	strb	r3, [r7, #15]
 8001392:	7bfb      	ldrb	r3, [r7, #15]
 8001394:	2b07      	cmp	r3, #7
 8001396:	d9ef      	bls.n	8001378 <DS18B20_WriteByte+0x10>
    }
}
 8001398:	bf00      	nop
 800139a:	bf00      	nop
 800139c:	3710      	adds	r7, #16
 800139e:	46bd      	mov	sp, r7
 80013a0:	bd80      	pop	{r7, pc}

080013a2 <DS18B20_ReadByte>:

static uint8_t DS18B20_ReadByte(void)
{
 80013a2:	b580      	push	{r7, lr}
 80013a4:	b082      	sub	sp, #8
 80013a6:	af00      	add	r7, sp, #0
    uint8_t data = 0;
 80013a8:	2300      	movs	r3, #0
 80013aa:	71fb      	strb	r3, [r7, #7]

    for (uint8_t i = 0; i < 8; i++)
 80013ac:	2300      	movs	r3, #0
 80013ae:	71bb      	strb	r3, [r7, #6]
 80013b0:	e00f      	b.n	80013d2 <DS18B20_ReadByte+0x30>
    {
        if (DS18B20_ReadBit())
 80013b2:	f7ff ffb7 	bl	8001324 <DS18B20_ReadBit>
 80013b6:	4603      	mov	r3, r0
 80013b8:	2b00      	cmp	r3, #0
 80013ba:	d007      	beq.n	80013cc <DS18B20_ReadByte+0x2a>
        {
            data |= (1U << i);
 80013bc:	79bb      	ldrb	r3, [r7, #6]
 80013be:	2201      	movs	r2, #1
 80013c0:	fa02 f303 	lsl.w	r3, r2, r3
 80013c4:	b2da      	uxtb	r2, r3
 80013c6:	79fb      	ldrb	r3, [r7, #7]
 80013c8:	4313      	orrs	r3, r2
 80013ca:	71fb      	strb	r3, [r7, #7]
    for (uint8_t i = 0; i < 8; i++)
 80013cc:	79bb      	ldrb	r3, [r7, #6]
 80013ce:	3301      	adds	r3, #1
 80013d0:	71bb      	strb	r3, [r7, #6]
 80013d2:	79bb      	ldrb	r3, [r7, #6]
 80013d4:	2b07      	cmp	r3, #7
 80013d6:	d9ec      	bls.n	80013b2 <DS18B20_ReadByte+0x10>
        }
    }
    return data;
 80013d8:	79fb      	ldrb	r3, [r7, #7]
}
 80013da:	4618      	mov	r0, r3
 80013dc:	3708      	adds	r7, #8
 80013de:	46bd      	mov	sp, r7
 80013e0:	bd80      	pop	{r7, pc}

080013e2 <DS18B20_CRC8>:

static uint8_t DS18B20_CRC8(const uint8_t *data, uint8_t len)
{
 80013e2:	b480      	push	{r7}
 80013e4:	b085      	sub	sp, #20
 80013e6:	af00      	add	r7, sp, #0
 80013e8:	6078      	str	r0, [r7, #4]
 80013ea:	460b      	mov	r3, r1
 80013ec:	70fb      	strb	r3, [r7, #3]
    uint8_t crc = 0;
 80013ee:	2300      	movs	r3, #0
 80013f0:	73fb      	strb	r3, [r7, #15]

    for (uint8_t i = 0; i < len; i++)
 80013f2:	2300      	movs	r3, #0
 80013f4:	73bb      	strb	r3, [r7, #14]
 80013f6:	e025      	b.n	8001444 <DS18B20_CRC8+0x62>
    {
        uint8_t inbyte = data[i];
 80013f8:	7bbb      	ldrb	r3, [r7, #14]
 80013fa:	687a      	ldr	r2, [r7, #4]
 80013fc:	4413      	add	r3, r2
 80013fe:	781b      	ldrb	r3, [r3, #0]
 8001400:	737b      	strb	r3, [r7, #13]
        for (uint8_t j = 0; j < 8; j++)
 8001402:	2300      	movs	r3, #0
 8001404:	733b      	strb	r3, [r7, #12]
 8001406:	e017      	b.n	8001438 <DS18B20_CRC8+0x56>
        {
            uint8_t mix = (crc ^ inbyte) & 0x01U;
 8001408:	7bfa      	ldrb	r2, [r7, #15]
 800140a:	7b7b      	ldrb	r3, [r7, #13]
 800140c:	4053      	eors	r3, r2
 800140e:	b2db      	uxtb	r3, r3
 8001410:	f003 0301 	and.w	r3, r3, #1
 8001414:	72fb      	strb	r3, [r7, #11]
            crc >>= 1;
 8001416:	7bfb      	ldrb	r3, [r7, #15]
 8001418:	085b      	lsrs	r3, r3, #1
 800141a:	73fb      	strb	r3, [r7, #15]
            if (mix)
 800141c:	7afb      	ldrb	r3, [r7, #11]
 800141e:	2b00      	cmp	r3, #0
 8001420:	d004      	beq.n	800142c <DS18B20_CRC8+0x4a>
            {
                crc ^= 0x8CU;
 8001422:	7bfb      	ldrb	r3, [r7, #15]
 8001424:	f083 0373 	eor.w	r3, r3, #115	@ 0x73
 8001428:	43db      	mvns	r3, r3
 800142a:	73fb      	strb	r3, [r7, #15]
            }
            inbyte >>= 1;
 800142c:	7b7b      	ldrb	r3, [r7, #13]
 800142e:	085b      	lsrs	r3, r3, #1
 8001430:	737b      	strb	r3, [r7, #13]
        for (uint8_t j = 0; j < 8; j++)
 8001432:	7b3b      	ldrb	r3, [r7, #12]
 8001434:	3301      	adds	r3, #1
 8001436:	733b      	strb	r3, [r7, #12]
 8001438:	7b3b      	ldrb	r3, [r7, #12]
 800143a:	2b07      	cmp	r3, #7
 800143c:	d9e4      	bls.n	8001408 <DS18B20_CRC8+0x26>
    for (uint8_t i = 0; i < len; i++)
 800143e:	7bbb      	ldrb	r3, [r7, #14]
 8001440:	3301      	adds	r3, #1
 8001442:	73bb      	strb	r3, [r7, #14]
 8001444:	7bba      	ldrb	r2, [r7, #14]
 8001446:	78fb      	ldrb	r3, [r7, #3]
 8001448:	429a      	cmp	r2, r3
 800144a:	d3d5      	bcc.n	80013f8 <DS18B20_CRC8+0x16>
        }
    }
    return crc;
 800144c:	7bfb      	ldrb	r3, [r7, #15]
}
 800144e:	4618      	mov	r0, r3
 8001450:	3714      	adds	r7, #20
 8001452:	46bd      	mov	sp, r7
 8001454:	bc80      	pop	{r7}
 8001456:	4770      	bx	lr

08001458 <DS18B20_Init>:

uint8_t DS18B20_Init(void)
{
 8001458:	b580      	push	{r7, lr}
 800145a:	af00      	add	r7, sp, #0
    DS18B20_Pin_Output_OD();
 800145c:	f7ff fee2 	bl	8001224 <DS18B20_Pin_Output_OD>
    DS18B20_WritePin(GPIO_PIN_SET);
 8001460:	2001      	movs	r0, #1
 8001462:	f7ff fefb 	bl	800125c <DS18B20_WritePin>
    return DS18B20_Reset();
 8001466:	f7ff ff17 	bl	8001298 <DS18B20_Reset>
 800146a:	4603      	mov	r3, r0
}
 800146c:	4618      	mov	r0, r3
 800146e:	bd80      	pop	{r7, pc}

08001470 <DS18B20_ReadTemperature>:

uint8_t DS18B20_ReadTemperature(float *temp)
{
 8001470:	b590      	push	{r4, r7, lr}
 8001472:	b087      	sub	sp, #28
 8001474:	af00      	add	r7, sp, #0
 8001476:	6078      	str	r0, [r7, #4]
    uint8_t buf[9];
    int16_t raw;

    if (temp == NULL)
 8001478:	687b      	ldr	r3, [r7, #4]
 800147a:	2b00      	cmp	r3, #0
 800147c:	d101      	bne.n	8001482 <DS18B20_ReadTemperature+0x12>
    {
        return 0;
 800147e:	2300      	movs	r3, #0
 8001480:	e071      	b.n	8001566 <DS18B20_ReadTemperature+0xf6>
    }

    if (!DS18B20_Reset())
 8001482:	f7ff ff09 	bl	8001298 <DS18B20_Reset>
 8001486:	4603      	mov	r3, r0
 8001488:	2b00      	cmp	r3, #0
 800148a:	d101      	bne.n	8001490 <DS18B20_ReadTemperature+0x20>
    {
        return 0;
 800148c:	2300      	movs	r3, #0
 800148e:	e06a      	b.n	8001566 <DS18B20_ReadTemperature+0xf6>
    }

    DS18B20_WriteByte(0xCCU);
 8001490:	20cc      	movs	r0, #204	@ 0xcc
 8001492:	f7ff ff69 	bl	8001368 <DS18B20_WriteByte>
    DS18B20_WriteByte(0x44U);
 8001496:	2044      	movs	r0, #68	@ 0x44
 8001498:	f7ff ff66 	bl	8001368 <DS18B20_WriteByte>
    HAL_Delay(750);
 800149c:	f240 20ee 	movw	r0, #750	@ 0x2ee
 80014a0:	f000 ff16 	bl	80022d0 <HAL_Delay>

    if (!DS18B20_Reset())
 80014a4:	f7ff fef8 	bl	8001298 <DS18B20_Reset>
 80014a8:	4603      	mov	r3, r0
 80014aa:	2b00      	cmp	r3, #0
 80014ac:	d101      	bne.n	80014b2 <DS18B20_ReadTemperature+0x42>
    {
        return 0;
 80014ae:	2300      	movs	r3, #0
 80014b0:	e059      	b.n	8001566 <DS18B20_ReadTemperature+0xf6>
    }

    DS18B20_WriteByte(0xCCU);
 80014b2:	20cc      	movs	r0, #204	@ 0xcc
 80014b4:	f7ff ff58 	bl	8001368 <DS18B20_WriteByte>
    DS18B20_WriteByte(0xBEU);
 80014b8:	20be      	movs	r0, #190	@ 0xbe
 80014ba:	f7ff ff55 	bl	8001368 <DS18B20_WriteByte>

    for (uint8_t i = 0; i < 9; i++)
 80014be:	2300      	movs	r3, #0
 80014c0:	75fb      	strb	r3, [r7, #23]
 80014c2:	e00c      	b.n	80014de <DS18B20_ReadTemperature+0x6e>
    {
        buf[i] = DS18B20_ReadByte();
 80014c4:	7dfc      	ldrb	r4, [r7, #23]
 80014c6:	f7ff ff6c 	bl	80013a2 <DS18B20_ReadByte>
 80014ca:	4603      	mov	r3, r0
 80014cc:	461a      	mov	r2, r3
 80014ce:	f104 0318 	add.w	r3, r4, #24
 80014d2:	443b      	add	r3, r7
 80014d4:	f803 2c10 	strb.w	r2, [r3, #-16]
    for (uint8_t i = 0; i < 9; i++)
 80014d8:	7dfb      	ldrb	r3, [r7, #23]
 80014da:	3301      	adds	r3, #1
 80014dc:	75fb      	strb	r3, [r7, #23]
 80014de:	7dfb      	ldrb	r3, [r7, #23]
 80014e0:	2b08      	cmp	r3, #8
 80014e2:	d9ef      	bls.n	80014c4 <DS18B20_ReadTemperature+0x54>
    }

    if ((buf[0] == 0x00U) && (buf[1] == 0x00U) && (buf[2] == 0x00U) &&
 80014e4:	7a3b      	ldrb	r3, [r7, #8]
 80014e6:	2b00      	cmp	r3, #0
 80014e8:	d119      	bne.n	800151e <DS18B20_ReadTemperature+0xae>
 80014ea:	7a7b      	ldrb	r3, [r7, #9]
 80014ec:	2b00      	cmp	r3, #0
 80014ee:	d116      	bne.n	800151e <DS18B20_ReadTemperature+0xae>
 80014f0:	7abb      	ldrb	r3, [r7, #10]
 80014f2:	2b00      	cmp	r3, #0
 80014f4:	d113      	bne.n	800151e <DS18B20_ReadTemperature+0xae>
        (buf[3] == 0x00U) && (buf[4] == 0x00U) && (buf[5] == 0x00U) &&
 80014f6:	7afb      	ldrb	r3, [r7, #11]
    if ((buf[0] == 0x00U) && (buf[1] == 0x00U) && (buf[2] == 0x00U) &&
 80014f8:	2b00      	cmp	r3, #0
 80014fa:	d110      	bne.n	800151e <DS18B20_ReadTemperature+0xae>
        (buf[3] == 0x00U) && (buf[4] == 0x00U) && (buf[5] == 0x00U) &&
 80014fc:	7b3b      	ldrb	r3, [r7, #12]
 80014fe:	2b00      	cmp	r3, #0
 8001500:	d10d      	bne.n	800151e <DS18B20_ReadTemperature+0xae>
 8001502:	7b7b      	ldrb	r3, [r7, #13]
 8001504:	2b00      	cmp	r3, #0
 8001506:	d10a      	bne.n	800151e <DS18B20_ReadTemperature+0xae>
        (buf[6] == 0x00U) && (buf[7] == 0x00U) && (buf[8] == 0x00U))
 8001508:	7bbb      	ldrb	r3, [r7, #14]
        (buf[3] == 0x00U) && (buf[4] == 0x00U) && (buf[5] == 0x00U) &&
 800150a:	2b00      	cmp	r3, #0
 800150c:	d107      	bne.n	800151e <DS18B20_ReadTemperature+0xae>
        (buf[6] == 0x00U) && (buf[7] == 0x00U) && (buf[8] == 0x00U))
 800150e:	7bfb      	ldrb	r3, [r7, #15]
 8001510:	2b00      	cmp	r3, #0
 8001512:	d104      	bne.n	800151e <DS18B20_ReadTemperature+0xae>
 8001514:	7c3b      	ldrb	r3, [r7, #16]
 8001516:	2b00      	cmp	r3, #0
 8001518:	d101      	bne.n	800151e <DS18B20_ReadTemperature+0xae>
    {
        return 0;
 800151a:	2300      	movs	r3, #0
 800151c:	e023      	b.n	8001566 <DS18B20_ReadTemperature+0xf6>
    }

    if (DS18B20_CRC8(buf, 8) != buf[8])
 800151e:	f107 0308 	add.w	r3, r7, #8
 8001522:	2108      	movs	r1, #8
 8001524:	4618      	mov	r0, r3
 8001526:	f7ff ff5c 	bl	80013e2 <DS18B20_CRC8>
 800152a:	4603      	mov	r3, r0
 800152c:	461a      	mov	r2, r3
 800152e:	7c3b      	ldrb	r3, [r7, #16]
 8001530:	429a      	cmp	r2, r3
 8001532:	d001      	beq.n	8001538 <DS18B20_ReadTemperature+0xc8>
    {
        return 0;
 8001534:	2300      	movs	r3, #0
 8001536:	e016      	b.n	8001566 <DS18B20_ReadTemperature+0xf6>
    }

    raw = (int16_t)((buf[1] << 8) | buf[0]);
 8001538:	7a7b      	ldrb	r3, [r7, #9]
 800153a:	021b      	lsls	r3, r3, #8
 800153c:	b21a      	sxth	r2, r3
 800153e:	7a3b      	ldrb	r3, [r7, #8]
 8001540:	b21b      	sxth	r3, r3
 8001542:	4313      	orrs	r3, r2
 8001544:	82bb      	strh	r3, [r7, #20]
    *temp = raw / 16.0f;
 8001546:	f9b7 3014 	ldrsh.w	r3, [r7, #20]
 800154a:	4618      	mov	r0, r3
 800154c:	f7fe feb8 	bl	80002c0 <__aeabi_i2f>
 8001550:	4603      	mov	r3, r0
 8001552:	f04f 4183 	mov.w	r1, #1098907648	@ 0x41800000
 8001556:	4618      	mov	r0, r3
 8001558:	f7fe ffba 	bl	80004d0 <__aeabi_fdiv>
 800155c:	4603      	mov	r3, r0
 800155e:	461a      	mov	r2, r3
 8001560:	687b      	ldr	r3, [r7, #4]
 8001562:	601a      	str	r2, [r3, #0]

    return 1;
 8001564:	2301      	movs	r3, #1
}
 8001566:	4618      	mov	r0, r3
 8001568:	371c      	adds	r7, #28
 800156a:	46bd      	mov	sp, r7
 800156c:	bd90      	pop	{r4, r7, pc}

0800156e <atk_md0096_hw_init>:
 * @brief       ATK-MD0096ÄŁżéÓ˛ĽţłőĘĽ»Ż
 * @param       ÎŢ
 * @retval      ÎŢ
 */
static void atk_md0096_hw_init(void)
{
 800156e:	b480      	push	{r7}
 8001570:	af00      	add	r7, sp, #0
    /* GPIO is configured by STM32CubeMX in this project. */
}
 8001572:	bf00      	nop
 8001574:	46bd      	mov	sp, r7
 8001576:	bc80      	pop	{r7}
 8001578:	4770      	bx	lr

0800157a <atk_md0096_reg_init>:
 * @brief       ATK-MD0096ÄŁżéĽÄ´ćĆ÷łőĘĽ»Ż
 * @param       ÎŢ
 * @retval      ÎŢ
 */
static uint8_t atk_md0096_reg_init(void)
{
 800157a:	b580      	push	{r7, lr}
 800157c:	af00      	add	r7, sp, #0
#if (ATK_MD0096_INTERFACE_IIC != 0)
#define ATK_MD0096_WRITE_CMD_OR_RETURN(cmd)    do{ if (atk_md0096_write_cmd((cmd)) != 0U) return ATK_MD0096_ERROR; }while(0)
#else
#define ATK_MD0096_WRITE_CMD_OR_RETURN(cmd)    do{ atk_md0096_write_cmd((cmd)); }while(0)
#endif
    ATK_MD0096_WRITE_CMD_OR_RETURN(0xAE); /* ąŘ±ŐĎÔĘľ */
 800157e:	20ae      	movs	r0, #174	@ 0xae
 8001580:	f000 fb98 	bl	8001cb4 <atk_md0096_iic_write_cmd>
 8001584:	4603      	mov	r3, r0
 8001586:	2b00      	cmp	r3, #0
 8001588:	d001      	beq.n	800158e <atk_md0096_reg_init+0x14>
 800158a:	2301      	movs	r3, #1
 800158c:	e0c0      	b.n	8001710 <atk_md0096_reg_init+0x196>
    ATK_MD0096_WRITE_CMD_OR_RETURN(0xD5); /* ÉčÖĂĘ±ÖÓ·ÖĆµŇň×Ó,Őđµ´ĆµÂĘ */
 800158e:	20d5      	movs	r0, #213	@ 0xd5
 8001590:	f000 fb90 	bl	8001cb4 <atk_md0096_iic_write_cmd>
 8001594:	4603      	mov	r3, r0
 8001596:	2b00      	cmp	r3, #0
 8001598:	d001      	beq.n	800159e <atk_md0096_reg_init+0x24>
 800159a:	2301      	movs	r3, #1
 800159c:	e0b8      	b.n	8001710 <atk_md0096_reg_init+0x196>
    ATK_MD0096_WRITE_CMD_OR_RETURN(0x80); /* [3:0],·ÖĆµŇň×Ó;[7:4],Őđµ´ĆµÂĘ */
 800159e:	2080      	movs	r0, #128	@ 0x80
 80015a0:	f000 fb88 	bl	8001cb4 <atk_md0096_iic_write_cmd>
 80015a4:	4603      	mov	r3, r0
 80015a6:	2b00      	cmp	r3, #0
 80015a8:	d001      	beq.n	80015ae <atk_md0096_reg_init+0x34>
 80015aa:	2301      	movs	r3, #1
 80015ac:	e0b0      	b.n	8001710 <atk_md0096_reg_init+0x196>
    ATK_MD0096_WRITE_CMD_OR_RETURN(0xA8); /* ÉčÖĂÇý¶ŻÂ·Ęý */
 80015ae:	20a8      	movs	r0, #168	@ 0xa8
 80015b0:	f000 fb80 	bl	8001cb4 <atk_md0096_iic_write_cmd>
 80015b4:	4603      	mov	r3, r0
 80015b6:	2b00      	cmp	r3, #0
 80015b8:	d001      	beq.n	80015be <atk_md0096_reg_init+0x44>
 80015ba:	2301      	movs	r3, #1
 80015bc:	e0a8      	b.n	8001710 <atk_md0096_reg_init+0x196>
    ATK_MD0096_WRITE_CMD_OR_RETURN(0X3F); /* Ä¬ČĎ0X3F(1/64) */
 80015be:	203f      	movs	r0, #63	@ 0x3f
 80015c0:	f000 fb78 	bl	8001cb4 <atk_md0096_iic_write_cmd>
 80015c4:	4603      	mov	r3, r0
 80015c6:	2b00      	cmp	r3, #0
 80015c8:	d001      	beq.n	80015ce <atk_md0096_reg_init+0x54>
 80015ca:	2301      	movs	r3, #1
 80015cc:	e0a0      	b.n	8001710 <atk_md0096_reg_init+0x196>
    ATK_MD0096_WRITE_CMD_OR_RETURN(0xD3); /* ÉčÖĂĎÔĘľĆ«ŇĆ */
 80015ce:	20d3      	movs	r0, #211	@ 0xd3
 80015d0:	f000 fb70 	bl	8001cb4 <atk_md0096_iic_write_cmd>
 80015d4:	4603      	mov	r3, r0
 80015d6:	2b00      	cmp	r3, #0
 80015d8:	d001      	beq.n	80015de <atk_md0096_reg_init+0x64>
 80015da:	2301      	movs	r3, #1
 80015dc:	e098      	b.n	8001710 <atk_md0096_reg_init+0x196>
    ATK_MD0096_WRITE_CMD_OR_RETURN(0X00); /* Ä¬ČĎÎŞ0 */
 80015de:	2000      	movs	r0, #0
 80015e0:	f000 fb68 	bl	8001cb4 <atk_md0096_iic_write_cmd>
 80015e4:	4603      	mov	r3, r0
 80015e6:	2b00      	cmp	r3, #0
 80015e8:	d001      	beq.n	80015ee <atk_md0096_reg_init+0x74>
 80015ea:	2301      	movs	r3, #1
 80015ec:	e090      	b.n	8001710 <atk_md0096_reg_init+0x196>
    ATK_MD0096_WRITE_CMD_OR_RETURN(0x40); /* ÉčÖĂĎÔĘľżŞĘĽĐĐ [5:0],ĐĐĘý. */
 80015ee:	2040      	movs	r0, #64	@ 0x40
 80015f0:	f000 fb60 	bl	8001cb4 <atk_md0096_iic_write_cmd>
 80015f4:	4603      	mov	r3, r0
 80015f6:	2b00      	cmp	r3, #0
 80015f8:	d001      	beq.n	80015fe <atk_md0096_reg_init+0x84>
 80015fa:	2301      	movs	r3, #1
 80015fc:	e088      	b.n	8001710 <atk_md0096_reg_init+0x196>
    ATK_MD0096_WRITE_CMD_OR_RETURN(0x8D); /* µçşÉ±ĂÉčÖĂ */
 80015fe:	208d      	movs	r0, #141	@ 0x8d
 8001600:	f000 fb58 	bl	8001cb4 <atk_md0096_iic_write_cmd>
 8001604:	4603      	mov	r3, r0
 8001606:	2b00      	cmp	r3, #0
 8001608:	d001      	beq.n	800160e <atk_md0096_reg_init+0x94>
 800160a:	2301      	movs	r3, #1
 800160c:	e080      	b.n	8001710 <atk_md0096_reg_init+0x196>
    ATK_MD0096_WRITE_CMD_OR_RETURN(0x14); /* bit2Ł¬żŞĆô/ąŘ±Ő */
 800160e:	2014      	movs	r0, #20
 8001610:	f000 fb50 	bl	8001cb4 <atk_md0096_iic_write_cmd>
 8001614:	4603      	mov	r3, r0
 8001616:	2b00      	cmp	r3, #0
 8001618:	d001      	beq.n	800161e <atk_md0096_reg_init+0xa4>
 800161a:	2301      	movs	r3, #1
 800161c:	e078      	b.n	8001710 <atk_md0096_reg_init+0x196>
    ATK_MD0096_WRITE_CMD_OR_RETURN(0x20); /* ÉčÖĂÄÚ´ćµŘÖ·ÄŁĘ˝ */
 800161e:	2020      	movs	r0, #32
 8001620:	f000 fb48 	bl	8001cb4 <atk_md0096_iic_write_cmd>
 8001624:	4603      	mov	r3, r0
 8001626:	2b00      	cmp	r3, #0
 8001628:	d001      	beq.n	800162e <atk_md0096_reg_init+0xb4>
 800162a:	2301      	movs	r3, #1
 800162c:	e070      	b.n	8001710 <atk_md0096_reg_init+0x196>
    ATK_MD0096_WRITE_CMD_OR_RETURN(0x02); /* [1:0],00Ł¬ÁĐµŘÖ·ÄŁĘ˝;01Ł¬ĐĐµŘÖ·ÄŁĘ˝;10,ŇłµŘÖ·ÄŁĘ˝;Ä¬ČĎ10; */
 800162e:	2002      	movs	r0, #2
 8001630:	f000 fb40 	bl	8001cb4 <atk_md0096_iic_write_cmd>
 8001634:	4603      	mov	r3, r0
 8001636:	2b00      	cmp	r3, #0
 8001638:	d001      	beq.n	800163e <atk_md0096_reg_init+0xc4>
 800163a:	2301      	movs	r3, #1
 800163c:	e068      	b.n	8001710 <atk_md0096_reg_init+0x196>
    ATK_MD0096_WRITE_CMD_OR_RETURN(0xA1); /* ¶ÎÖŘ¶¨ŇĺÉčÖĂ,bit0:0,0->0;1,0->127; */
 800163e:	20a1      	movs	r0, #161	@ 0xa1
 8001640:	f000 fb38 	bl	8001cb4 <atk_md0096_iic_write_cmd>
 8001644:	4603      	mov	r3, r0
 8001646:	2b00      	cmp	r3, #0
 8001648:	d001      	beq.n	800164e <atk_md0096_reg_init+0xd4>
 800164a:	2301      	movs	r3, #1
 800164c:	e060      	b.n	8001710 <atk_md0096_reg_init+0x196>
    ATK_MD0096_WRITE_CMD_OR_RETURN(0xC8); /* ÉčÖĂCOMÉ¨Ăč·˝Ďň;bit3:0,ĆŐÍ¨ÄŁĘ˝;1,ÖŘ¶¨ŇĺÄŁĘ˝ COM[N-1]->COM0;N:Çý¶ŻÂ·Ęý */
 800164e:	20c8      	movs	r0, #200	@ 0xc8
 8001650:	f000 fb30 	bl	8001cb4 <atk_md0096_iic_write_cmd>
 8001654:	4603      	mov	r3, r0
 8001656:	2b00      	cmp	r3, #0
 8001658:	d001      	beq.n	800165e <atk_md0096_reg_init+0xe4>
 800165a:	2301      	movs	r3, #1
 800165c:	e058      	b.n	8001710 <atk_md0096_reg_init+0x196>
    ATK_MD0096_WRITE_CMD_OR_RETURN(0xDA); /* ÉčÖĂCOMÓ˛ĽţŇý˝ĹĹäÖĂ */
 800165e:	20da      	movs	r0, #218	@ 0xda
 8001660:	f000 fb28 	bl	8001cb4 <atk_md0096_iic_write_cmd>
 8001664:	4603      	mov	r3, r0
 8001666:	2b00      	cmp	r3, #0
 8001668:	d001      	beq.n	800166e <atk_md0096_reg_init+0xf4>
 800166a:	2301      	movs	r3, #1
 800166c:	e050      	b.n	8001710 <atk_md0096_reg_init+0x196>
    ATK_MD0096_WRITE_CMD_OR_RETURN(0x12); /* [5:4]ĹäÖĂ */
 800166e:	2012      	movs	r0, #18
 8001670:	f000 fb20 	bl	8001cb4 <atk_md0096_iic_write_cmd>
 8001674:	4603      	mov	r3, r0
 8001676:	2b00      	cmp	r3, #0
 8001678:	d001      	beq.n	800167e <atk_md0096_reg_init+0x104>
 800167a:	2301      	movs	r3, #1
 800167c:	e048      	b.n	8001710 <atk_md0096_reg_init+0x196>
    ATK_MD0096_WRITE_CMD_OR_RETURN(0x81); /* ¶Ô±Č¶ČÉčÖĂ */
 800167e:	2081      	movs	r0, #129	@ 0x81
 8001680:	f000 fb18 	bl	8001cb4 <atk_md0096_iic_write_cmd>
 8001684:	4603      	mov	r3, r0
 8001686:	2b00      	cmp	r3, #0
 8001688:	d001      	beq.n	800168e <atk_md0096_reg_init+0x114>
 800168a:	2301      	movs	r3, #1
 800168c:	e040      	b.n	8001710 <atk_md0096_reg_init+0x196>
    ATK_MD0096_WRITE_CMD_OR_RETURN(0xCF); /* 1~255;Ä¬ČĎ0X7F (ÁÁ¶ČÉčÖĂ,Ô˝´óÔ˝ÁÁ) */
 800168e:	20cf      	movs	r0, #207	@ 0xcf
 8001690:	f000 fb10 	bl	8001cb4 <atk_md0096_iic_write_cmd>
 8001694:	4603      	mov	r3, r0
 8001696:	2b00      	cmp	r3, #0
 8001698:	d001      	beq.n	800169e <atk_md0096_reg_init+0x124>
 800169a:	2301      	movs	r3, #1
 800169c:	e038      	b.n	8001710 <atk_md0096_reg_init+0x196>
    ATK_MD0096_WRITE_CMD_OR_RETURN(0xD9); /* ÉčÖĂÔ¤łäµçÖÜĆÚ */
 800169e:	20d9      	movs	r0, #217	@ 0xd9
 80016a0:	f000 fb08 	bl	8001cb4 <atk_md0096_iic_write_cmd>
 80016a4:	4603      	mov	r3, r0
 80016a6:	2b00      	cmp	r3, #0
 80016a8:	d001      	beq.n	80016ae <atk_md0096_reg_init+0x134>
 80016aa:	2301      	movs	r3, #1
 80016ac:	e030      	b.n	8001710 <atk_md0096_reg_init+0x196>
    ATK_MD0096_WRITE_CMD_OR_RETURN(0xF1); /* [3:0],PHASE 1;[7:4],PHASE 2; */
 80016ae:	20f1      	movs	r0, #241	@ 0xf1
 80016b0:	f000 fb00 	bl	8001cb4 <atk_md0096_iic_write_cmd>
 80016b4:	4603      	mov	r3, r0
 80016b6:	2b00      	cmp	r3, #0
 80016b8:	d001      	beq.n	80016be <atk_md0096_reg_init+0x144>
 80016ba:	2301      	movs	r3, #1
 80016bc:	e028      	b.n	8001710 <atk_md0096_reg_init+0x196>
    ATK_MD0096_WRITE_CMD_OR_RETURN(0xDB); /* ÉčÖĂVCOMH µçŃą±¶ÂĘ */
 80016be:	20db      	movs	r0, #219	@ 0xdb
 80016c0:	f000 faf8 	bl	8001cb4 <atk_md0096_iic_write_cmd>
 80016c4:	4603      	mov	r3, r0
 80016c6:	2b00      	cmp	r3, #0
 80016c8:	d001      	beq.n	80016ce <atk_md0096_reg_init+0x154>
 80016ca:	2301      	movs	r3, #1
 80016cc:	e020      	b.n	8001710 <atk_md0096_reg_init+0x196>
    ATK_MD0096_WRITE_CMD_OR_RETURN(0x30); /* [6:4] 000,0.65*vcc;001,0.77*vcc;011,0.83*vcc; */
 80016ce:	2030      	movs	r0, #48	@ 0x30
 80016d0:	f000 faf0 	bl	8001cb4 <atk_md0096_iic_write_cmd>
 80016d4:	4603      	mov	r3, r0
 80016d6:	2b00      	cmp	r3, #0
 80016d8:	d001      	beq.n	80016de <atk_md0096_reg_init+0x164>
 80016da:	2301      	movs	r3, #1
 80016dc:	e018      	b.n	8001710 <atk_md0096_reg_init+0x196>
    ATK_MD0096_WRITE_CMD_OR_RETURN(0xA4); /* Č«ľÖĎÔĘľżŞĆô;bit0:1,żŞĆô;0,ąŘ±Ő;(°×ĆÁ/şÚĆÁ) */
 80016de:	20a4      	movs	r0, #164	@ 0xa4
 80016e0:	f000 fae8 	bl	8001cb4 <atk_md0096_iic_write_cmd>
 80016e4:	4603      	mov	r3, r0
 80016e6:	2b00      	cmp	r3, #0
 80016e8:	d001      	beq.n	80016ee <atk_md0096_reg_init+0x174>
 80016ea:	2301      	movs	r3, #1
 80016ec:	e010      	b.n	8001710 <atk_md0096_reg_init+0x196>
    ATK_MD0096_WRITE_CMD_OR_RETURN(0xA6); /* ÉčÖĂĎÔĘľ·˝Ę˝;bit0:1,·´ĎŕĎÔĘľ;0,ŐýłŁĎÔĘľ */
 80016ee:	20a6      	movs	r0, #166	@ 0xa6
 80016f0:	f000 fae0 	bl	8001cb4 <atk_md0096_iic_write_cmd>
 80016f4:	4603      	mov	r3, r0
 80016f6:	2b00      	cmp	r3, #0
 80016f8:	d001      	beq.n	80016fe <atk_md0096_reg_init+0x184>
 80016fa:	2301      	movs	r3, #1
 80016fc:	e008      	b.n	8001710 <atk_md0096_reg_init+0x196>
    ATK_MD0096_WRITE_CMD_OR_RETURN(0xAF); /* żŞĆôĎÔĘľ */
 80016fe:	20af      	movs	r0, #175	@ 0xaf
 8001700:	f000 fad8 	bl	8001cb4 <atk_md0096_iic_write_cmd>
 8001704:	4603      	mov	r3, r0
 8001706:	2b00      	cmp	r3, #0
 8001708:	d001      	beq.n	800170e <atk_md0096_reg_init+0x194>
 800170a:	2301      	movs	r3, #1
 800170c:	e000      	b.n	8001710 <atk_md0096_reg_init+0x196>
#undef ATK_MD0096_WRITE_CMD_OR_RETURN

    return ATK_MD0096_EOK;
 800170e:	2300      	movs	r3, #0
}
 8001710:	4618      	mov	r0, r3
 8001712:	bd80      	pop	{r7, pc}

08001714 <atk_md0096_init>:
 * @param       ÎŢ
 * @retval      ATK_MD0096_EOK  : ATK-MD0096ÄŁżéłőĘĽ»ŻłÉą¦
 *              ATK_MD0096_ERROR: ATK-MD0096ÄŁżéłőĘĽ»ŻĘ§°Ü
 */
uint8_t atk_md0096_init(void)
{
 8001714:	b580      	push	{r7, lr}
 8001716:	af00      	add	r7, sp, #0
    atk_md0096_hw_init();           /* ATK-MD0096ÄŁżéÓ˛ĽţłőĘĽ»Ż */
 8001718:	f7ff ff29 	bl	800156e <atk_md0096_hw_init>
    atk_md0096_interface_init();    /* ATK-MD0096˝ÓżÚłőĘĽ»Ż */
 800171c:	f000 fab2 	bl	8001c84 <atk_md0096_iic_init>
    atk_md0096_hw_reset();          /* ATK-MD0096ÄŁżéÓ˛Ľţ¸´Î» */
 8001720:	f000 f80c 	bl	800173c <atk_md0096_hw_reset>
    if (atk_md0096_reg_init() != ATK_MD0096_EOK)
 8001724:	f7ff ff29 	bl	800157a <atk_md0096_reg_init>
 8001728:	4603      	mov	r3, r0
 800172a:	2b00      	cmp	r3, #0
 800172c:	d001      	beq.n	8001732 <atk_md0096_init+0x1e>
    {
        return ATK_MD0096_ERROR;
 800172e:	2301      	movs	r3, #1
 8001730:	e002      	b.n	8001738 <atk_md0096_init+0x24>
    }
    atk_md0096_oled_clear();        /* ATK_MD0096ÄŁżéOLEDÇĺĆÁ */
 8001732:	f000 f873 	bl	800181c <atk_md0096_oled_clear>
    
    return ATK_MD0096_EOK;
 8001736:	2300      	movs	r3, #0
}
 8001738:	4618      	mov	r0, r3
 800173a:	bd80      	pop	{r7, pc}

0800173c <atk_md0096_hw_reset>:
 * @brief       ATK-MD0096ÄŁżéÓ˛Ľţ¸´Î»
 * @param       ÎŢ
 * @retval      ÎŢ
 */
void atk_md0096_hw_reset(void)
{
 800173c:	b580      	push	{r7, lr}
 800173e:	af00      	add	r7, sp, #0
    ATK_MD0096_RST(0);
 8001740:	2200      	movs	r2, #0
 8001742:	2120      	movs	r1, #32
 8001744:	4807      	ldr	r0, [pc, #28]	@ (8001764 <atk_md0096_hw_reset+0x28>)
 8001746:	f001 fd8e 	bl	8003266 <HAL_GPIO_WritePin>
    HAL_Delay(100);
 800174a:	2064      	movs	r0, #100	@ 0x64
 800174c:	f000 fdc0 	bl	80022d0 <HAL_Delay>
    ATK_MD0096_RST(1);
 8001750:	2201      	movs	r2, #1
 8001752:	2120      	movs	r1, #32
 8001754:	4803      	ldr	r0, [pc, #12]	@ (8001764 <atk_md0096_hw_reset+0x28>)
 8001756:	f001 fd86 	bl	8003266 <HAL_GPIO_WritePin>
    HAL_Delay(100);
 800175a:	2064      	movs	r0, #100	@ 0x64
 800175c:	f000 fdb8 	bl	80022d0 <HAL_Delay>
}
 8001760:	bf00      	nop
 8001762:	bd80      	pop	{r7, pc}
 8001764:	40010c00 	.word	0x40010c00

08001768 <atk_md0096_oled_update>:
 * @brief       ĎÔ´ć¸üĐÂÖÁATK-MD0096ÄŁżé
 * @param       ÎŢ
 * @retval      ÎŢ
 */
void atk_md0096_oled_update(void)
{
 8001768:	b580      	push	{r7, lr}
 800176a:	b082      	sub	sp, #8
 800176c:	af00      	add	r7, sp, #0
    uint8_t width_index;
    uint8_t height_index;
    
    for (height_index=0; height_index<(ATK_MD0096_OLED_HEIGHT / 8); height_index++)
 800176e:	2300      	movs	r3, #0
 8001770:	71bb      	strb	r3, [r7, #6]
 8001772:	e022      	b.n	80017ba <atk_md0096_oled_update+0x52>
    {
        atk_md0096_write_cmd(0xB0 + height_index);
 8001774:	79bb      	ldrb	r3, [r7, #6]
 8001776:	3b50      	subs	r3, #80	@ 0x50
 8001778:	b2db      	uxtb	r3, r3
 800177a:	4618      	mov	r0, r3
 800177c:	f000 fa9a 	bl	8001cb4 <atk_md0096_iic_write_cmd>
        atk_md0096_write_cmd(0x00);
 8001780:	2000      	movs	r0, #0
 8001782:	f000 fa97 	bl	8001cb4 <atk_md0096_iic_write_cmd>
        atk_md0096_write_cmd(0x10);
 8001786:	2010      	movs	r0, #16
 8001788:	f000 fa94 	bl	8001cb4 <atk_md0096_iic_write_cmd>
        for (width_index=0; width_index<ATK_MD0096_OLED_WIDTH; width_index++)
 800178c:	2300      	movs	r3, #0
 800178e:	71fb      	strb	r3, [r7, #7]
 8001790:	e00c      	b.n	80017ac <atk_md0096_oled_update+0x44>
        {
            atk_md0096_write_data(g_atk_md0096_oled_gram[height_index][width_index]);
 8001792:	79ba      	ldrb	r2, [r7, #6]
 8001794:	79fb      	ldrb	r3, [r7, #7]
 8001796:	490d      	ldr	r1, [pc, #52]	@ (80017cc <atk_md0096_oled_update+0x64>)
 8001798:	01d2      	lsls	r2, r2, #7
 800179a:	440a      	add	r2, r1
 800179c:	4413      	add	r3, r2
 800179e:	781b      	ldrb	r3, [r3, #0]
 80017a0:	4618      	mov	r0, r3
 80017a2:	f000 fab4 	bl	8001d0e <atk_md0096_iic_write_data>
        for (width_index=0; width_index<ATK_MD0096_OLED_WIDTH; width_index++)
 80017a6:	79fb      	ldrb	r3, [r7, #7]
 80017a8:	3301      	adds	r3, #1
 80017aa:	71fb      	strb	r3, [r7, #7]
 80017ac:	f997 3007 	ldrsb.w	r3, [r7, #7]
 80017b0:	2b00      	cmp	r3, #0
 80017b2:	daee      	bge.n	8001792 <atk_md0096_oled_update+0x2a>
    for (height_index=0; height_index<(ATK_MD0096_OLED_HEIGHT / 8); height_index++)
 80017b4:	79bb      	ldrb	r3, [r7, #6]
 80017b6:	3301      	adds	r3, #1
 80017b8:	71bb      	strb	r3, [r7, #6]
 80017ba:	79bb      	ldrb	r3, [r7, #6]
 80017bc:	2b07      	cmp	r3, #7
 80017be:	d9d9      	bls.n	8001774 <atk_md0096_oled_update+0xc>
        }
    }
}
 80017c0:	bf00      	nop
 80017c2:	bf00      	nop
 80017c4:	3708      	adds	r7, #8
 80017c6:	46bd      	mov	sp, r7
 80017c8:	bd80      	pop	{r7, pc}
 80017ca:	bf00      	nop
 80017cc:	20000170 	.word	0x20000170

080017d0 <atk_md0096_oled_clear_gram>:
 * @brief       ATK-MD0096ÄŁżéOLEDÇĺĆÁ
 * @param       ÎŢ
 * @retval      ÎŢ
 */
void atk_md0096_oled_clear_gram(void)
{
 80017d0:	b480      	push	{r7}
 80017d2:	b083      	sub	sp, #12
 80017d4:	af00      	add	r7, sp, #0
    uint8_t width_index;
    uint8_t height_index;

    for (height_index=0; height_index<(ATK_MD0096_OLED_HEIGHT / 8); height_index++)
 80017d6:	2300      	movs	r3, #0
 80017d8:	71bb      	strb	r3, [r7, #6]
 80017da:	e014      	b.n	8001806 <atk_md0096_oled_clear_gram+0x36>
    {
        for (width_index=0; width_index<ATK_MD0096_OLED_WIDTH; width_index++)
 80017dc:	2300      	movs	r3, #0
 80017de:	71fb      	strb	r3, [r7, #7]
 80017e0:	e00a      	b.n	80017f8 <atk_md0096_oled_clear_gram+0x28>
        {
            g_atk_md0096_oled_gram[height_index][width_index] = 0;
 80017e2:	79ba      	ldrb	r2, [r7, #6]
 80017e4:	79fb      	ldrb	r3, [r7, #7]
 80017e6:	490c      	ldr	r1, [pc, #48]	@ (8001818 <atk_md0096_oled_clear_gram+0x48>)
 80017e8:	01d2      	lsls	r2, r2, #7
 80017ea:	440a      	add	r2, r1
 80017ec:	4413      	add	r3, r2
 80017ee:	2200      	movs	r2, #0
 80017f0:	701a      	strb	r2, [r3, #0]
        for (width_index=0; width_index<ATK_MD0096_OLED_WIDTH; width_index++)
 80017f2:	79fb      	ldrb	r3, [r7, #7]
 80017f4:	3301      	adds	r3, #1
 80017f6:	71fb      	strb	r3, [r7, #7]
 80017f8:	f997 3007 	ldrsb.w	r3, [r7, #7]
 80017fc:	2b00      	cmp	r3, #0
 80017fe:	daf0      	bge.n	80017e2 <atk_md0096_oled_clear_gram+0x12>
    for (height_index=0; height_index<(ATK_MD0096_OLED_HEIGHT / 8); height_index++)
 8001800:	79bb      	ldrb	r3, [r7, #6]
 8001802:	3301      	adds	r3, #1
 8001804:	71bb      	strb	r3, [r7, #6]
 8001806:	79bb      	ldrb	r3, [r7, #6]
 8001808:	2b07      	cmp	r3, #7
 800180a:	d9e7      	bls.n	80017dc <atk_md0096_oled_clear_gram+0xc>
        }
    }
}
 800180c:	bf00      	nop
 800180e:	bf00      	nop
 8001810:	370c      	adds	r7, #12
 8001812:	46bd      	mov	sp, r7
 8001814:	bc80      	pop	{r7}
 8001816:	4770      	bx	lr
 8001818:	20000170 	.word	0x20000170

0800181c <atk_md0096_oled_clear>:

void atk_md0096_oled_clear(void)
{
 800181c:	b580      	push	{r7, lr}
 800181e:	af00      	add	r7, sp, #0
    atk_md0096_oled_clear_gram();
 8001820:	f7ff ffd6 	bl	80017d0 <atk_md0096_oled_clear_gram>
    atk_md0096_oled_update();
 8001824:	f7ff ffa0 	bl	8001768 <atk_md0096_oled_update>
}
 8001828:	bf00      	nop
 800182a:	bd80      	pop	{r7, pc}

0800182c <atk_md0096_oled_draw_point>:
 *                    ATK_MD0096_OLED_SHOW_MODE_REVERSE: ÇĺżŐµă
 * @retval      ATK_MD0096_EOK   : şŻĘýÖ´ĐĐłÉą¦
 *              ATK_MD0096_EINVAL: şŻĘý˛ÎĘý´íÎó
 */
uint8_t atk_md0096_oled_draw_point(uint8_t x, uint8_t y, atk_md0096_oled_show_mode_t mode)
{
 800182c:	b480      	push	{r7}
 800182e:	b085      	sub	sp, #20
 8001830:	af00      	add	r7, sp, #0
 8001832:	4603      	mov	r3, r0
 8001834:	71fb      	strb	r3, [r7, #7]
 8001836:	460b      	mov	r3, r1
 8001838:	71bb      	strb	r3, [r7, #6]
 800183a:	4613      	mov	r3, r2
 800183c:	717b      	strb	r3, [r7, #5]
    uint8_t page_index;
    uint8_t row_index;
    
    if ((x >= ATK_MD0096_OLED_WIDTH) || (y >= ATK_MD0096_OLED_HEIGHT))
 800183e:	f997 3007 	ldrsb.w	r3, [r7, #7]
 8001842:	2b00      	cmp	r3, #0
 8001844:	db02      	blt.n	800184c <atk_md0096_oled_draw_point+0x20>
 8001846:	79bb      	ldrb	r3, [r7, #6]
 8001848:	2b3f      	cmp	r3, #63	@ 0x3f
 800184a:	d901      	bls.n	8001850 <atk_md0096_oled_draw_point+0x24>
    {
        return ATK_MD0096_EINVAL;
 800184c:	2302      	movs	r3, #2
 800184e:	e03d      	b.n	80018cc <atk_md0096_oled_draw_point+0xa0>
    }
    
    page_index = y >> 3;
 8001850:	79bb      	ldrb	r3, [r7, #6]
 8001852:	08db      	lsrs	r3, r3, #3
 8001854:	73fb      	strb	r3, [r7, #15]
    row_index = 1 << (y % 8);
 8001856:	79bb      	ldrb	r3, [r7, #6]
 8001858:	f003 0307 	and.w	r3, r3, #7
 800185c:	2201      	movs	r2, #1
 800185e:	fa02 f303 	lsl.w	r3, r2, r3
 8001862:	73bb      	strb	r3, [r7, #14]
    
    switch (mode)
 8001864:	797b      	ldrb	r3, [r7, #5]
 8001866:	2b00      	cmp	r3, #0
 8001868:	d002      	beq.n	8001870 <atk_md0096_oled_draw_point+0x44>
 800186a:	2b01      	cmp	r3, #1
 800186c:	d013      	beq.n	8001896 <atk_md0096_oled_draw_point+0x6a>
 800186e:	e02a      	b.n	80018c6 <atk_md0096_oled_draw_point+0x9a>
    {
        case ATK_MD0096_OLED_SHOW_MODE_NORMAL:
        {
            g_atk_md0096_oled_gram[page_index][x] |= row_index;
 8001870:	7bfa      	ldrb	r2, [r7, #15]
 8001872:	79fb      	ldrb	r3, [r7, #7]
 8001874:	4918      	ldr	r1, [pc, #96]	@ (80018d8 <atk_md0096_oled_draw_point+0xac>)
 8001876:	01d2      	lsls	r2, r2, #7
 8001878:	440a      	add	r2, r1
 800187a:	4413      	add	r3, r2
 800187c:	7818      	ldrb	r0, [r3, #0]
 800187e:	7bfa      	ldrb	r2, [r7, #15]
 8001880:	79fb      	ldrb	r3, [r7, #7]
 8001882:	7bb9      	ldrb	r1, [r7, #14]
 8001884:	4301      	orrs	r1, r0
 8001886:	b2c8      	uxtb	r0, r1
 8001888:	4913      	ldr	r1, [pc, #76]	@ (80018d8 <atk_md0096_oled_draw_point+0xac>)
 800188a:	01d2      	lsls	r2, r2, #7
 800188c:	440a      	add	r2, r1
 800188e:	4413      	add	r3, r2
 8001890:	4602      	mov	r2, r0
 8001892:	701a      	strb	r2, [r3, #0]
            break;
 8001894:	e019      	b.n	80018ca <atk_md0096_oled_draw_point+0x9e>
        }
        case ATK_MD0096_OLED_SHOW_MODE_REVERSE:
        {
            g_atk_md0096_oled_gram[page_index][x] &= ~row_index;
 8001896:	7bfa      	ldrb	r2, [r7, #15]
 8001898:	79fb      	ldrb	r3, [r7, #7]
 800189a:	490f      	ldr	r1, [pc, #60]	@ (80018d8 <atk_md0096_oled_draw_point+0xac>)
 800189c:	01d2      	lsls	r2, r2, #7
 800189e:	440a      	add	r2, r1
 80018a0:	4413      	add	r3, r2
 80018a2:	781b      	ldrb	r3, [r3, #0]
 80018a4:	b25a      	sxtb	r2, r3
 80018a6:	f997 300e 	ldrsb.w	r3, [r7, #14]
 80018aa:	43db      	mvns	r3, r3
 80018ac:	b25b      	sxtb	r3, r3
 80018ae:	4013      	ands	r3, r2
 80018b0:	b259      	sxtb	r1, r3
 80018b2:	7bfa      	ldrb	r2, [r7, #15]
 80018b4:	79fb      	ldrb	r3, [r7, #7]
 80018b6:	b2c8      	uxtb	r0, r1
 80018b8:	4907      	ldr	r1, [pc, #28]	@ (80018d8 <atk_md0096_oled_draw_point+0xac>)
 80018ba:	01d2      	lsls	r2, r2, #7
 80018bc:	440a      	add	r2, r1
 80018be:	4413      	add	r3, r2
 80018c0:	4602      	mov	r2, r0
 80018c2:	701a      	strb	r2, [r3, #0]
            break;
 80018c4:	e001      	b.n	80018ca <atk_md0096_oled_draw_point+0x9e>
        }
        default:
        {
            return ATK_MD0096_EINVAL;
 80018c6:	2302      	movs	r3, #2
 80018c8:	e000      	b.n	80018cc <atk_md0096_oled_draw_point+0xa0>
        }
    }
    
    return ATK_MD0096_EOK;
 80018ca:	2300      	movs	r3, #0
}
 80018cc:	4618      	mov	r0, r3
 80018ce:	3714      	adds	r7, #20
 80018d0:	46bd      	mov	sp, r7
 80018d2:	bc80      	pop	{r7}
 80018d4:	4770      	bx	lr
 80018d6:	bf00      	nop
 80018d8:	20000170 	.word	0x20000170

080018dc <atk_md0096_oled_show_char>:
 *                         ATK_MD0096_OLED_SHOW_MODE_REVERSE: ·´É«ĎÔĘľ
 * @retval      ATK_MD0096_EOK   : şŻĘýÖ´ĐĐłÉą¦
 *              ATK_MD0096_EINVAL: şŻĘý˛ÎĘý´íÎó
 */
uint8_t atk_md0096_oled_show_char(uint8_t x, uint8_t y, atk_md0096_oled_font_size_t font_size, const char ch, atk_md0096_oled_show_mode_t mode)
{
 80018dc:	b590      	push	{r4, r7, lr}
 80018de:	b089      	sub	sp, #36	@ 0x24
 80018e0:	af00      	add	r7, sp, #0
 80018e2:	4604      	mov	r4, r0
 80018e4:	4608      	mov	r0, r1
 80018e6:	4611      	mov	r1, r2
 80018e8:	461a      	mov	r2, r3
 80018ea:	4623      	mov	r3, r4
 80018ec:	71fb      	strb	r3, [r7, #7]
 80018ee:	4603      	mov	r3, r0
 80018f0:	71bb      	strb	r3, [r7, #6]
 80018f2:	460b      	mov	r3, r1
 80018f4:	717b      	strb	r3, [r7, #5]
 80018f6:	4613      	mov	r3, r2
 80018f8:	713b      	strb	r3, [r7, #4]
    uint8_t char_height;
    uint8_t char_size;
    uint8_t font_dat;
    uint8_t byte_index;
    uint8_t bit_index;
    uint8_t col_offset = 0;
 80018fa:	2300      	movs	r3, #0
 80018fc:	747b      	strb	r3, [r7, #17]
    uint8_t row_offset = 0;
 80018fe:	2300      	movs	r3, #0
 8001900:	743b      	strb	r3, [r7, #16]
    
    if ((ch < ' ') || (ch > '~'))
 8001902:	793b      	ldrb	r3, [r7, #4]
 8001904:	2b1f      	cmp	r3, #31
 8001906:	d902      	bls.n	800190e <atk_md0096_oled_show_char+0x32>
 8001908:	793b      	ldrb	r3, [r7, #4]
 800190a:	2b7e      	cmp	r3, #126	@ 0x7e
 800190c:	d901      	bls.n	8001912 <atk_md0096_oled_show_char+0x36>
    {
        return ATK_MD0096_EINVAL;
 800190e:	2302      	movs	r3, #2
 8001910:	e09a      	b.n	8001a48 <atk_md0096_oled_show_char+0x16c>
    }
    
    switch (mode)
 8001912:	f897 3030 	ldrb.w	r3, [r7, #48]	@ 0x30
 8001916:	2b00      	cmp	r3, #0
 8001918:	d002      	beq.n	8001920 <atk_md0096_oled_show_char+0x44>
 800191a:	2b01      	cmp	r3, #1
 800191c:	d003      	beq.n	8001926 <atk_md0096_oled_show_char+0x4a>
 800191e:	e005      	b.n	800192c <atk_md0096_oled_show_char+0x50>
    {
        case ATK_MD0096_OLED_SHOW_MODE_NORMAL:
        {
            _mode = ATK_MD0096_OLED_SHOW_MODE_REVERSE;
 8001920:	2301      	movs	r3, #1
 8001922:	77fb      	strb	r3, [r7, #31]
            break;
 8001924:	e004      	b.n	8001930 <atk_md0096_oled_show_char+0x54>
        }
        case ATK_MD0096_OLED_SHOW_MODE_REVERSE:
        {
            _mode = ATK_MD0096_OLED_SHOW_MODE_NORMAL;
 8001926:	2300      	movs	r3, #0
 8001928:	77fb      	strb	r3, [r7, #31]
            break;
 800192a:	e001      	b.n	8001930 <atk_md0096_oled_show_char+0x54>
        }
        default:
        {
            return ATK_MD0096_EINVAL;
 800192c:	2302      	movs	r3, #2
 800192e:	e08b      	b.n	8001a48 <atk_md0096_oled_show_char+0x16c>
        }
    }
    
    ch_offset = (uint8_t)(ch - ' ');
 8001930:	793b      	ldrb	r3, [r7, #4]
 8001932:	3b20      	subs	r3, #32
 8001934:	73fb      	strb	r3, [r7, #15]
    
    switch (font_size)
 8001936:	797b      	ldrb	r3, [r7, #5]
 8001938:	2b02      	cmp	r3, #2
 800193a:	d021      	beq.n	8001980 <atk_md0096_oled_show_char+0xa4>
 800193c:	2b02      	cmp	r3, #2
 800193e:	dc2e      	bgt.n	800199e <atk_md0096_oled_show_char+0xc2>
 8001940:	2b00      	cmp	r3, #0
 8001942:	d002      	beq.n	800194a <atk_md0096_oled_show_char+0x6e>
 8001944:	2b01      	cmp	r3, #1
 8001946:	d00f      	beq.n	8001968 <atk_md0096_oled_show_char+0x8c>
 8001948:	e029      	b.n	800199e <atk_md0096_oled_show_char+0xc2>
    {
#if (ATK_MD0096_FONT_12 != 0)
        case ATK_MD0096_OLED_FONT_SIZE_12:
        {
            font = atk_md0096_font_1206[ch_offset];
 800194a:	7bfa      	ldrb	r2, [r7, #15]
 800194c:	4613      	mov	r3, r2
 800194e:	005b      	lsls	r3, r3, #1
 8001950:	4413      	add	r3, r2
 8001952:	009b      	lsls	r3, r3, #2
 8001954:	4a3e      	ldr	r2, [pc, #248]	@ (8001a50 <atk_md0096_oled_show_char+0x174>)
 8001956:	4413      	add	r3, r2
 8001958:	61bb      	str	r3, [r7, #24]
            char_width = ATK_MD0096_FONT_12_CHAR_WIDTH;
 800195a:	2306      	movs	r3, #6
 800195c:	75fb      	strb	r3, [r7, #23]
            char_height = ATK_MD0096_FONT_12_CHAR_HEIGHT;
 800195e:	230c      	movs	r3, #12
 8001960:	75bb      	strb	r3, [r7, #22]
            char_size = ATK_MD0096_FONT_12_CHAR_SIZE;
 8001962:	230c      	movs	r3, #12
 8001964:	757b      	strb	r3, [r7, #21]
            break;
 8001966:	e01c      	b.n	80019a2 <atk_md0096_oled_show_char+0xc6>
#endif
        
#if (ATK_MD0096_FONT_16 != 0)
        case ATK_MD0096_OLED_FONT_SIZE_16:
        {
            font = atk_md0096_font_1608[ch_offset];
 8001968:	7bfb      	ldrb	r3, [r7, #15]
 800196a:	011b      	lsls	r3, r3, #4
 800196c:	4a39      	ldr	r2, [pc, #228]	@ (8001a54 <atk_md0096_oled_show_char+0x178>)
 800196e:	4413      	add	r3, r2
 8001970:	61bb      	str	r3, [r7, #24]
            char_width = ATK_MD0096_FONT_16_CHAR_WIDTH;
 8001972:	2308      	movs	r3, #8
 8001974:	75fb      	strb	r3, [r7, #23]
            char_height = ATK_MD0096_FONT_16_CHAR_HEIGHT;
 8001976:	2310      	movs	r3, #16
 8001978:	75bb      	strb	r3, [r7, #22]
            char_size = ATK_MD0096_FONT_16_CHAR_SIZE;
 800197a:	2310      	movs	r3, #16
 800197c:	757b      	strb	r3, [r7, #21]
            break;
 800197e:	e010      	b.n	80019a2 <atk_md0096_oled_show_char+0xc6>
#endif
        
#if (ATK_MD0096_FONT_24 != 0)
        case ATK_MD0096_OLED_FONT_SIZE_24:
        {
            font = atk_md0096_font_2412[ch_offset];
 8001980:	7bfa      	ldrb	r2, [r7, #15]
 8001982:	4613      	mov	r3, r2
 8001984:	00db      	lsls	r3, r3, #3
 8001986:	4413      	add	r3, r2
 8001988:	009b      	lsls	r3, r3, #2
 800198a:	4a33      	ldr	r2, [pc, #204]	@ (8001a58 <atk_md0096_oled_show_char+0x17c>)
 800198c:	4413      	add	r3, r2
 800198e:	61bb      	str	r3, [r7, #24]
            char_width = ATK_MD0096_FONT_24_CHAR_WIDTH;
 8001990:	230c      	movs	r3, #12
 8001992:	75fb      	strb	r3, [r7, #23]
            char_height = ATK_MD0096_FONT_24_CHAR_HEIGHT;
 8001994:	2318      	movs	r3, #24
 8001996:	75bb      	strb	r3, [r7, #22]
            char_size = ATK_MD0096_FONT_24_CHAR_SIZE;
 8001998:	2324      	movs	r3, #36	@ 0x24
 800199a:	757b      	strb	r3, [r7, #21]
            break;
 800199c:	e001      	b.n	80019a2 <atk_md0096_oled_show_char+0xc6>
        }
#endif
        
        default:
        {
            return ATK_MD0096_EINVAL;
 800199e:	2302      	movs	r3, #2
 80019a0:	e052      	b.n	8001a48 <atk_md0096_oled_show_char+0x16c>
        }
    }
    
    if ((x + char_width > ATK_MD0096_OLED_WIDTH) || (y + char_height > ATK_MD0096_OLED_HEIGHT))
 80019a2:	79fa      	ldrb	r2, [r7, #7]
 80019a4:	7dfb      	ldrb	r3, [r7, #23]
 80019a6:	4413      	add	r3, r2
 80019a8:	2b80      	cmp	r3, #128	@ 0x80
 80019aa:	d804      	bhi.n	80019b6 <atk_md0096_oled_show_char+0xda>
 80019ac:	79ba      	ldrb	r2, [r7, #6]
 80019ae:	7dbb      	ldrb	r3, [r7, #22]
 80019b0:	4413      	add	r3, r2
 80019b2:	2b40      	cmp	r3, #64	@ 0x40
 80019b4:	d901      	bls.n	80019ba <atk_md0096_oled_show_char+0xde>
    {
        return ATK_MD0096_EINVAL;
 80019b6:	2302      	movs	r3, #2
 80019b8:	e046      	b.n	8001a48 <atk_md0096_oled_show_char+0x16c>
    }
    
    for (byte_index=0; byte_index<char_size; byte_index++)
 80019ba:	2300      	movs	r3, #0
 80019bc:	74fb      	strb	r3, [r7, #19]
 80019be:	e03e      	b.n	8001a3e <atk_md0096_oled_show_char+0x162>
    {
        font_dat = font[byte_index];
 80019c0:	7cfb      	ldrb	r3, [r7, #19]
 80019c2:	69ba      	ldr	r2, [r7, #24]
 80019c4:	4413      	add	r3, r2
 80019c6:	781b      	ldrb	r3, [r3, #0]
 80019c8:	753b      	strb	r3, [r7, #20]
        for (bit_index=0; bit_index<8; bit_index++)
 80019ca:	2300      	movs	r3, #0
 80019cc:	74bb      	strb	r3, [r7, #18]
 80019ce:	e030      	b.n	8001a32 <atk_md0096_oled_show_char+0x156>
        {
            if ((font_dat & 0x80) == 0)
 80019d0:	f997 3014 	ldrsb.w	r3, [r7, #20]
 80019d4:	2b00      	cmp	r3, #0
 80019d6:	db0c      	blt.n	80019f2 <atk_md0096_oled_show_char+0x116>
            {
                atk_md0096_oled_draw_point(x + col_offset, y + row_offset, _mode);
 80019d8:	79fa      	ldrb	r2, [r7, #7]
 80019da:	7c7b      	ldrb	r3, [r7, #17]
 80019dc:	4413      	add	r3, r2
 80019de:	b2d8      	uxtb	r0, r3
 80019e0:	79ba      	ldrb	r2, [r7, #6]
 80019e2:	7c3b      	ldrb	r3, [r7, #16]
 80019e4:	4413      	add	r3, r2
 80019e6:	b2db      	uxtb	r3, r3
 80019e8:	7ffa      	ldrb	r2, [r7, #31]
 80019ea:	4619      	mov	r1, r3
 80019ec:	f7ff ff1e 	bl	800182c <atk_md0096_oled_draw_point>
 80019f0:	e00c      	b.n	8001a0c <atk_md0096_oled_show_char+0x130>
            }
            else
            {
                atk_md0096_oled_draw_point(x + col_offset, y + row_offset, mode);
 80019f2:	79fa      	ldrb	r2, [r7, #7]
 80019f4:	7c7b      	ldrb	r3, [r7, #17]
 80019f6:	4413      	add	r3, r2
 80019f8:	b2d8      	uxtb	r0, r3
 80019fa:	79ba      	ldrb	r2, [r7, #6]
 80019fc:	7c3b      	ldrb	r3, [r7, #16]
 80019fe:	4413      	add	r3, r2
 8001a00:	b2db      	uxtb	r3, r3
 8001a02:	f897 2030 	ldrb.w	r2, [r7, #48]	@ 0x30
 8001a06:	4619      	mov	r1, r3
 8001a08:	f7ff ff10 	bl	800182c <atk_md0096_oled_draw_point>
            }
            
            font_dat <<= 1;
 8001a0c:	7d3b      	ldrb	r3, [r7, #20]
 8001a0e:	005b      	lsls	r3, r3, #1
 8001a10:	753b      	strb	r3, [r7, #20]
            row_offset++;
 8001a12:	7c3b      	ldrb	r3, [r7, #16]
 8001a14:	3301      	adds	r3, #1
 8001a16:	743b      	strb	r3, [r7, #16]
            if (row_offset == char_height)
 8001a18:	7c3a      	ldrb	r2, [r7, #16]
 8001a1a:	7dbb      	ldrb	r3, [r7, #22]
 8001a1c:	429a      	cmp	r2, r3
 8001a1e:	d105      	bne.n	8001a2c <atk_md0096_oled_show_char+0x150>
            {
                row_offset = 0;
 8001a20:	2300      	movs	r3, #0
 8001a22:	743b      	strb	r3, [r7, #16]
                col_offset++;
 8001a24:	7c7b      	ldrb	r3, [r7, #17]
 8001a26:	3301      	adds	r3, #1
 8001a28:	747b      	strb	r3, [r7, #17]
                break;
 8001a2a:	e005      	b.n	8001a38 <atk_md0096_oled_show_char+0x15c>
        for (bit_index=0; bit_index<8; bit_index++)
 8001a2c:	7cbb      	ldrb	r3, [r7, #18]
 8001a2e:	3301      	adds	r3, #1
 8001a30:	74bb      	strb	r3, [r7, #18]
 8001a32:	7cbb      	ldrb	r3, [r7, #18]
 8001a34:	2b07      	cmp	r3, #7
 8001a36:	d9cb      	bls.n	80019d0 <atk_md0096_oled_show_char+0xf4>
    for (byte_index=0; byte_index<char_size; byte_index++)
 8001a38:	7cfb      	ldrb	r3, [r7, #19]
 8001a3a:	3301      	adds	r3, #1
 8001a3c:	74fb      	strb	r3, [r7, #19]
 8001a3e:	7cfa      	ldrb	r2, [r7, #19]
 8001a40:	7d7b      	ldrb	r3, [r7, #21]
 8001a42:	429a      	cmp	r2, r3
 8001a44:	d3bc      	bcc.n	80019c0 <atk_md0096_oled_show_char+0xe4>
            }
        }
    }
    
    return ATK_MD0096_EOK;
 8001a46:	2300      	movs	r3, #0
}
 8001a48:	4618      	mov	r0, r3
 8001a4a:	3724      	adds	r7, #36	@ 0x24
 8001a4c:	46bd      	mov	sp, r7
 8001a4e:	bd90      	pop	{r4, r7, pc}
 8001a50:	08005c90 	.word	0x08005c90
 8001a54:	08006104 	.word	0x08006104
 8001a58:	080066f4 	.word	0x080066f4

08001a5c <atk_md0096_oled_show_string>:
 *                         ATK_MD0096_OLED_SHOW_MODE_REVERSE: ·´É«ĎÔĘľ
 * @retval      ATK_MD0096_EOK   : şŻĘýÖ´ĐĐłÉą¦
 *              ATK_MD0096_EINVAL: şŻĘý˛ÎĘý´íÎó
 */
uint8_t atk_md0096_oled_show_string(uint8_t x, uint8_t y, atk_md0096_oled_font_size_t font_size, const char *str, atk_md0096_oled_show_mode_t mode)
{
 8001a5c:	b590      	push	{r4, r7, lr}
 8001a5e:	b087      	sub	sp, #28
 8001a60:	af02      	add	r7, sp, #8
 8001a62:	603b      	str	r3, [r7, #0]
 8001a64:	4603      	mov	r3, r0
 8001a66:	71fb      	strb	r3, [r7, #7]
 8001a68:	460b      	mov	r3, r1
 8001a6a:	71bb      	strb	r3, [r7, #6]
 8001a6c:	4613      	mov	r3, r2
 8001a6e:	717b      	strb	r3, [r7, #5]
    uint8_t ret;
    uint8_t char_width;
    uint8_t char_height;
    
    switch (font_size)
 8001a70:	797b      	ldrb	r3, [r7, #5]
 8001a72:	2b02      	cmp	r3, #2
 8001a74:	d010      	beq.n	8001a98 <atk_md0096_oled_show_string+0x3c>
 8001a76:	2b02      	cmp	r3, #2
 8001a78:	dc13      	bgt.n	8001aa2 <atk_md0096_oled_show_string+0x46>
 8001a7a:	2b00      	cmp	r3, #0
 8001a7c:	d002      	beq.n	8001a84 <atk_md0096_oled_show_string+0x28>
 8001a7e:	2b01      	cmp	r3, #1
 8001a80:	d005      	beq.n	8001a8e <atk_md0096_oled_show_string+0x32>
 8001a82:	e00e      	b.n	8001aa2 <atk_md0096_oled_show_string+0x46>
    {
#if (ATK_MD0096_FONT_12 != 0)
        case ATK_MD0096_OLED_FONT_SIZE_12:
        {
            char_width = ATK_MD0096_FONT_12_CHAR_WIDTH;
 8001a84:	2306      	movs	r3, #6
 8001a86:	73fb      	strb	r3, [r7, #15]
            char_height = ATK_MD0096_FONT_12_CHAR_HEIGHT;
 8001a88:	230c      	movs	r3, #12
 8001a8a:	73bb      	strb	r3, [r7, #14]
            break;
 8001a8c:	e00b      	b.n	8001aa6 <atk_md0096_oled_show_string+0x4a>
#endif
        
#if (ATK_MD0096_FONT_16 != 0)
        case ATK_MD0096_OLED_FONT_SIZE_16:
        {
            char_width = ATK_MD0096_FONT_16_CHAR_WIDTH;
 8001a8e:	2308      	movs	r3, #8
 8001a90:	73fb      	strb	r3, [r7, #15]
            char_height = ATK_MD0096_FONT_16_CHAR_HEIGHT;
 8001a92:	2310      	movs	r3, #16
 8001a94:	73bb      	strb	r3, [r7, #14]
            break;
 8001a96:	e006      	b.n	8001aa6 <atk_md0096_oled_show_string+0x4a>
#endif
        
#if (ATK_MD0096_FONT_24 != 0)
        case ATK_MD0096_OLED_FONT_SIZE_24:
        {
            char_width = ATK_MD0096_FONT_24_CHAR_WIDTH;
 8001a98:	230c      	movs	r3, #12
 8001a9a:	73fb      	strb	r3, [r7, #15]
            char_height = ATK_MD0096_FONT_24_CHAR_HEIGHT;
 8001a9c:	2318      	movs	r3, #24
 8001a9e:	73bb      	strb	r3, [r7, #14]
            break;
 8001aa0:	e001      	b.n	8001aa6 <atk_md0096_oled_show_string+0x4a>
        }
#endif
        
        default:
        {
            return ATK_MD0096_EINVAL;
 8001aa2:	2302      	movs	r3, #2
 8001aa4:	e036      	b.n	8001b14 <atk_md0096_oled_show_string+0xb8>
        }
    }
    
    while ((*str >= ' ') && (*str <= '~'))
 8001aa6:	e02c      	b.n	8001b02 <atk_md0096_oled_show_string+0xa6>
    {
        if (x + char_width >= ATK_MD0096_OLED_WIDTH)
 8001aa8:	79fa      	ldrb	r2, [r7, #7]
 8001aaa:	7bfb      	ldrb	r3, [r7, #15]
 8001aac:	4413      	add	r3, r2
 8001aae:	2b7f      	cmp	r3, #127	@ 0x7f
 8001ab0:	d905      	bls.n	8001abe <atk_md0096_oled_show_string+0x62>
        {
            x = 0;
 8001ab2:	2300      	movs	r3, #0
 8001ab4:	71fb      	strb	r3, [r7, #7]
            y += char_height;
 8001ab6:	79ba      	ldrb	r2, [r7, #6]
 8001ab8:	7bbb      	ldrb	r3, [r7, #14]
 8001aba:	4413      	add	r3, r2
 8001abc:	71bb      	strb	r3, [r7, #6]
        }
        
        if (y + char_height >= ATK_MD0096_OLED_HEIGHT)
 8001abe:	79ba      	ldrb	r2, [r7, #6]
 8001ac0:	7bbb      	ldrb	r3, [r7, #14]
 8001ac2:	4413      	add	r3, r2
 8001ac4:	2b3f      	cmp	r3, #63	@ 0x3f
 8001ac6:	d903      	bls.n	8001ad0 <atk_md0096_oled_show_string+0x74>
        {
            x = 0;
 8001ac8:	2300      	movs	r3, #0
 8001aca:	71fb      	strb	r3, [r7, #7]
            y = 0;
 8001acc:	2300      	movs	r3, #0
 8001ace:	71bb      	strb	r3, [r7, #6]
        }
        
        ret = atk_md0096_oled_show_char(x, y, font_size, *str, mode);
 8001ad0:	683b      	ldr	r3, [r7, #0]
 8001ad2:	781c      	ldrb	r4, [r3, #0]
 8001ad4:	797a      	ldrb	r2, [r7, #5]
 8001ad6:	79b9      	ldrb	r1, [r7, #6]
 8001ad8:	79f8      	ldrb	r0, [r7, #7]
 8001ada:	f897 3020 	ldrb.w	r3, [r7, #32]
 8001ade:	9300      	str	r3, [sp, #0]
 8001ae0:	4623      	mov	r3, r4
 8001ae2:	f7ff fefb 	bl	80018dc <atk_md0096_oled_show_char>
 8001ae6:	4603      	mov	r3, r0
 8001ae8:	737b      	strb	r3, [r7, #13]
        if (ret != ATK_MD0096_EOK)
 8001aea:	7b7b      	ldrb	r3, [r7, #13]
 8001aec:	2b00      	cmp	r3, #0
 8001aee:	d001      	beq.n	8001af4 <atk_md0096_oled_show_string+0x98>
        {
            return ret;
 8001af0:	7b7b      	ldrb	r3, [r7, #13]
 8001af2:	e00f      	b.n	8001b14 <atk_md0096_oled_show_string+0xb8>
        }
        
        x += char_width;
 8001af4:	79fa      	ldrb	r2, [r7, #7]
 8001af6:	7bfb      	ldrb	r3, [r7, #15]
 8001af8:	4413      	add	r3, r2
 8001afa:	71fb      	strb	r3, [r7, #7]
        str++;
 8001afc:	683b      	ldr	r3, [r7, #0]
 8001afe:	3301      	adds	r3, #1
 8001b00:	603b      	str	r3, [r7, #0]
    while ((*str >= ' ') && (*str <= '~'))
 8001b02:	683b      	ldr	r3, [r7, #0]
 8001b04:	781b      	ldrb	r3, [r3, #0]
 8001b06:	2b1f      	cmp	r3, #31
 8001b08:	d903      	bls.n	8001b12 <atk_md0096_oled_show_string+0xb6>
 8001b0a:	683b      	ldr	r3, [r7, #0]
 8001b0c:	781b      	ldrb	r3, [r3, #0]
 8001b0e:	2b7e      	cmp	r3, #126	@ 0x7e
 8001b10:	d9ca      	bls.n	8001aa8 <atk_md0096_oled_show_string+0x4c>
    }
    
    return ATK_MD0096_EOK;
 8001b12:	2300      	movs	r3, #0
}
 8001b14:	4618      	mov	r0, r3
 8001b16:	3714      	adds	r7, #20
 8001b18:	46bd      	mov	sp, r7
 8001b1a:	bd90      	pop	{r4, r7, pc}

08001b1c <atk_md0096_iic_delay>:
#define ATK_MD0096_IIC_WRITE        0U
#define ATK_MD0096_IIC_WRITE_CMD    0x00U
#define ATK_MD0096_IIC_WRITE_DAT    0x40U

static inline void atk_md0096_iic_delay(void)
{
 8001b1c:	b580      	push	{r7, lr}
 8001b1e:	af00      	add	r7, sp, #0
    delay_us(2);
 8001b20:	2002      	movs	r0, #2
 8001b22:	f7ff fb41 	bl	80011a8 <delay_us>
}
 8001b26:	bf00      	nop
 8001b28:	bd80      	pop	{r7, pc}
	...

08001b2c <atk_md0096_iic_start>:

static void atk_md0096_iic_start(void)
{
 8001b2c:	b580      	push	{r7, lr}
 8001b2e:	af00      	add	r7, sp, #0
    ATK_MD0096_IIC_SDAIN(1);
 8001b30:	2201      	movs	r2, #1
 8001b32:	2180      	movs	r1, #128	@ 0x80
 8001b34:	480c      	ldr	r0, [pc, #48]	@ (8001b68 <atk_md0096_iic_start+0x3c>)
 8001b36:	f001 fb96 	bl	8003266 <HAL_GPIO_WritePin>
    ATK_MD0096_IIC_SCL(1);
 8001b3a:	2201      	movs	r2, #1
 8001b3c:	2140      	movs	r1, #64	@ 0x40
 8001b3e:	480a      	ldr	r0, [pc, #40]	@ (8001b68 <atk_md0096_iic_start+0x3c>)
 8001b40:	f001 fb91 	bl	8003266 <HAL_GPIO_WritePin>
    atk_md0096_iic_delay();
 8001b44:	f7ff ffea 	bl	8001b1c <atk_md0096_iic_delay>
    ATK_MD0096_IIC_SDAIN(0);
 8001b48:	2200      	movs	r2, #0
 8001b4a:	2180      	movs	r1, #128	@ 0x80
 8001b4c:	4806      	ldr	r0, [pc, #24]	@ (8001b68 <atk_md0096_iic_start+0x3c>)
 8001b4e:	f001 fb8a 	bl	8003266 <HAL_GPIO_WritePin>
    atk_md0096_iic_delay();
 8001b52:	f7ff ffe3 	bl	8001b1c <atk_md0096_iic_delay>
    ATK_MD0096_IIC_SCL(0);
 8001b56:	2200      	movs	r2, #0
 8001b58:	2140      	movs	r1, #64	@ 0x40
 8001b5a:	4803      	ldr	r0, [pc, #12]	@ (8001b68 <atk_md0096_iic_start+0x3c>)
 8001b5c:	f001 fb83 	bl	8003266 <HAL_GPIO_WritePin>
    atk_md0096_iic_delay();
 8001b60:	f7ff ffdc 	bl	8001b1c <atk_md0096_iic_delay>
}
 8001b64:	bf00      	nop
 8001b66:	bd80      	pop	{r7, pc}
 8001b68:	40010c00 	.word	0x40010c00

08001b6c <atk_md0096_iic_stop>:

static void atk_md0096_iic_stop(void)
{
 8001b6c:	b580      	push	{r7, lr}
 8001b6e:	af00      	add	r7, sp, #0
    ATK_MD0096_IIC_SDAIN(0);
 8001b70:	2200      	movs	r2, #0
 8001b72:	2180      	movs	r1, #128	@ 0x80
 8001b74:	480a      	ldr	r0, [pc, #40]	@ (8001ba0 <atk_md0096_iic_stop+0x34>)
 8001b76:	f001 fb76 	bl	8003266 <HAL_GPIO_WritePin>
    atk_md0096_iic_delay();
 8001b7a:	f7ff ffcf 	bl	8001b1c <atk_md0096_iic_delay>
    ATK_MD0096_IIC_SCL(1);
 8001b7e:	2201      	movs	r2, #1
 8001b80:	2140      	movs	r1, #64	@ 0x40
 8001b82:	4807      	ldr	r0, [pc, #28]	@ (8001ba0 <atk_md0096_iic_stop+0x34>)
 8001b84:	f001 fb6f 	bl	8003266 <HAL_GPIO_WritePin>
    atk_md0096_iic_delay();
 8001b88:	f7ff ffc8 	bl	8001b1c <atk_md0096_iic_delay>
    ATK_MD0096_IIC_SDAIN(1);
 8001b8c:	2201      	movs	r2, #1
 8001b8e:	2180      	movs	r1, #128	@ 0x80
 8001b90:	4803      	ldr	r0, [pc, #12]	@ (8001ba0 <atk_md0096_iic_stop+0x34>)
 8001b92:	f001 fb68 	bl	8003266 <HAL_GPIO_WritePin>
    atk_md0096_iic_delay();
 8001b96:	f7ff ffc1 	bl	8001b1c <atk_md0096_iic_delay>
}
 8001b9a:	bf00      	nop
 8001b9c:	bd80      	pop	{r7, pc}
 8001b9e:	bf00      	nop
 8001ba0:	40010c00 	.word	0x40010c00

08001ba4 <atk_md0096_iic_wait_ack>:

static uint8_t atk_md0096_iic_wait_ack(void)
{
 8001ba4:	b580      	push	{r7, lr}
 8001ba6:	b082      	sub	sp, #8
 8001ba8:	af00      	add	r7, sp, #0
    uint8_t waittime = 0;
 8001baa:	2300      	movs	r3, #0
 8001bac:	71fb      	strb	r3, [r7, #7]
    uint8_t rack = 0;
 8001bae:	2300      	movs	r3, #0
 8001bb0:	71bb      	strb	r3, [r7, #6]

    ATK_MD0096_IIC_SDAIN(1);
 8001bb2:	2201      	movs	r2, #1
 8001bb4:	2180      	movs	r1, #128	@ 0x80
 8001bb6:	4815      	ldr	r0, [pc, #84]	@ (8001c0c <atk_md0096_iic_wait_ack+0x68>)
 8001bb8:	f001 fb55 	bl	8003266 <HAL_GPIO_WritePin>
    atk_md0096_iic_delay();
 8001bbc:	f7ff ffae 	bl	8001b1c <atk_md0096_iic_delay>
    ATK_MD0096_IIC_SCL(1);
 8001bc0:	2201      	movs	r2, #1
 8001bc2:	2140      	movs	r1, #64	@ 0x40
 8001bc4:	4811      	ldr	r0, [pc, #68]	@ (8001c0c <atk_md0096_iic_wait_ack+0x68>)
 8001bc6:	f001 fb4e 	bl	8003266 <HAL_GPIO_WritePin>
    atk_md0096_iic_delay();
 8001bca:	f7ff ffa7 	bl	8001b1c <atk_md0096_iic_delay>

    while (ATK_MD0096_IIC_READ_SDAOUT())
 8001bce:	e00a      	b.n	8001be6 <atk_md0096_iic_wait_ack+0x42>
    {
        waittime++;
 8001bd0:	79fb      	ldrb	r3, [r7, #7]
 8001bd2:	3301      	adds	r3, #1
 8001bd4:	71fb      	strb	r3, [r7, #7]
        if (waittime > 250U)
 8001bd6:	79fb      	ldrb	r3, [r7, #7]
 8001bd8:	2bfa      	cmp	r3, #250	@ 0xfa
 8001bda:	d904      	bls.n	8001be6 <atk_md0096_iic_wait_ack+0x42>
        {
            atk_md0096_iic_stop();
 8001bdc:	f7ff ffc6 	bl	8001b6c <atk_md0096_iic_stop>
            rack = 1U;
 8001be0:	2301      	movs	r3, #1
 8001be2:	71bb      	strb	r3, [r7, #6]
            break;
 8001be4:	e006      	b.n	8001bf4 <atk_md0096_iic_wait_ack+0x50>
    while (ATK_MD0096_IIC_READ_SDAOUT())
 8001be6:	2108      	movs	r1, #8
 8001be8:	4808      	ldr	r0, [pc, #32]	@ (8001c0c <atk_md0096_iic_wait_ack+0x68>)
 8001bea:	f001 fb25 	bl	8003238 <HAL_GPIO_ReadPin>
 8001bee:	4603      	mov	r3, r0
 8001bf0:	2b00      	cmp	r3, #0
 8001bf2:	d1ed      	bne.n	8001bd0 <atk_md0096_iic_wait_ack+0x2c>
        }
    }

    ATK_MD0096_IIC_SCL(0);
 8001bf4:	2200      	movs	r2, #0
 8001bf6:	2140      	movs	r1, #64	@ 0x40
 8001bf8:	4804      	ldr	r0, [pc, #16]	@ (8001c0c <atk_md0096_iic_wait_ack+0x68>)
 8001bfa:	f001 fb34 	bl	8003266 <HAL_GPIO_WritePin>
    atk_md0096_iic_delay();
 8001bfe:	f7ff ff8d 	bl	8001b1c <atk_md0096_iic_delay>

    return rack;
 8001c02:	79bb      	ldrb	r3, [r7, #6]
}
 8001c04:	4618      	mov	r0, r3
 8001c06:	3708      	adds	r7, #8
 8001c08:	46bd      	mov	sp, r7
 8001c0a:	bd80      	pop	{r7, pc}
 8001c0c:	40010c00 	.word	0x40010c00

08001c10 <atk_md0096_iic_write_byte>:

static void atk_md0096_iic_write_byte(uint8_t dat)
{
 8001c10:	b580      	push	{r7, lr}
 8001c12:	b084      	sub	sp, #16
 8001c14:	af00      	add	r7, sp, #0
 8001c16:	4603      	mov	r3, r0
 8001c18:	71fb      	strb	r3, [r7, #7]
    for (uint8_t t = 0; t < 8U; t++)
 8001c1a:	2300      	movs	r3, #0
 8001c1c:	73fb      	strb	r3, [r7, #15]
 8001c1e:	e022      	b.n	8001c66 <atk_md0096_iic_write_byte+0x56>
    {
        ATK_MD0096_IIC_SDAIN((dat & 0x80U) >> 7);
 8001c20:	f997 3007 	ldrsb.w	r3, [r7, #7]
 8001c24:	2b00      	cmp	r3, #0
 8001c26:	da05      	bge.n	8001c34 <atk_md0096_iic_write_byte+0x24>
 8001c28:	2201      	movs	r2, #1
 8001c2a:	2180      	movs	r1, #128	@ 0x80
 8001c2c:	4814      	ldr	r0, [pc, #80]	@ (8001c80 <atk_md0096_iic_write_byte+0x70>)
 8001c2e:	f001 fb1a 	bl	8003266 <HAL_GPIO_WritePin>
 8001c32:	e004      	b.n	8001c3e <atk_md0096_iic_write_byte+0x2e>
 8001c34:	2200      	movs	r2, #0
 8001c36:	2180      	movs	r1, #128	@ 0x80
 8001c38:	4811      	ldr	r0, [pc, #68]	@ (8001c80 <atk_md0096_iic_write_byte+0x70>)
 8001c3a:	f001 fb14 	bl	8003266 <HAL_GPIO_WritePin>
        atk_md0096_iic_delay();
 8001c3e:	f7ff ff6d 	bl	8001b1c <atk_md0096_iic_delay>
        ATK_MD0096_IIC_SCL(1);
 8001c42:	2201      	movs	r2, #1
 8001c44:	2140      	movs	r1, #64	@ 0x40
 8001c46:	480e      	ldr	r0, [pc, #56]	@ (8001c80 <atk_md0096_iic_write_byte+0x70>)
 8001c48:	f001 fb0d 	bl	8003266 <HAL_GPIO_WritePin>
        atk_md0096_iic_delay();
 8001c4c:	f7ff ff66 	bl	8001b1c <atk_md0096_iic_delay>
        ATK_MD0096_IIC_SCL(0);
 8001c50:	2200      	movs	r2, #0
 8001c52:	2140      	movs	r1, #64	@ 0x40
 8001c54:	480a      	ldr	r0, [pc, #40]	@ (8001c80 <atk_md0096_iic_write_byte+0x70>)
 8001c56:	f001 fb06 	bl	8003266 <HAL_GPIO_WritePin>
        dat <<= 1;
 8001c5a:	79fb      	ldrb	r3, [r7, #7]
 8001c5c:	005b      	lsls	r3, r3, #1
 8001c5e:	71fb      	strb	r3, [r7, #7]
    for (uint8_t t = 0; t < 8U; t++)
 8001c60:	7bfb      	ldrb	r3, [r7, #15]
 8001c62:	3301      	adds	r3, #1
 8001c64:	73fb      	strb	r3, [r7, #15]
 8001c66:	7bfb      	ldrb	r3, [r7, #15]
 8001c68:	2b07      	cmp	r3, #7
 8001c6a:	d9d9      	bls.n	8001c20 <atk_md0096_iic_write_byte+0x10>
    }
    ATK_MD0096_IIC_SDAIN(1);
 8001c6c:	2201      	movs	r2, #1
 8001c6e:	2180      	movs	r1, #128	@ 0x80
 8001c70:	4803      	ldr	r0, [pc, #12]	@ (8001c80 <atk_md0096_iic_write_byte+0x70>)
 8001c72:	f001 faf8 	bl	8003266 <HAL_GPIO_WritePin>
}
 8001c76:	bf00      	nop
 8001c78:	3710      	adds	r7, #16
 8001c7a:	46bd      	mov	sp, r7
 8001c7c:	bd80      	pop	{r7, pc}
 8001c7e:	bf00      	nop
 8001c80:	40010c00 	.word	0x40010c00

08001c84 <atk_md0096_iic_init>:

void atk_md0096_iic_init(void)
{
 8001c84:	b580      	push	{r7, lr}
 8001c86:	af00      	add	r7, sp, #0
#if (ATK_MD0096_IIC_ADDR_3C != 0)
    ATK_MD0096_IIC_SA0(0);
 8001c88:	2200      	movs	r2, #0
 8001c8a:	2110      	movs	r1, #16
 8001c8c:	4808      	ldr	r0, [pc, #32]	@ (8001cb0 <atk_md0096_iic_init+0x2c>)
 8001c8e:	f001 faea 	bl	8003266 <HAL_GPIO_WritePin>
#elif (ATK_MD0096_IIC_ADDR_3D != 0)
    ATK_MD0096_IIC_SA0(1);
#endif
    ATK_MD0096_IIC_SDAIN(1);
 8001c92:	2201      	movs	r2, #1
 8001c94:	2180      	movs	r1, #128	@ 0x80
 8001c96:	4806      	ldr	r0, [pc, #24]	@ (8001cb0 <atk_md0096_iic_init+0x2c>)
 8001c98:	f001 fae5 	bl	8003266 <HAL_GPIO_WritePin>
    ATK_MD0096_IIC_SCL(1);
 8001c9c:	2201      	movs	r2, #1
 8001c9e:	2140      	movs	r1, #64	@ 0x40
 8001ca0:	4803      	ldr	r0, [pc, #12]	@ (8001cb0 <atk_md0096_iic_init+0x2c>)
 8001ca2:	f001 fae0 	bl	8003266 <HAL_GPIO_WritePin>
    atk_md0096_iic_stop();
 8001ca6:	f7ff ff61 	bl	8001b6c <atk_md0096_iic_stop>
}
 8001caa:	bf00      	nop
 8001cac:	bd80      	pop	{r7, pc}
 8001cae:	bf00      	nop
 8001cb0:	40010c00 	.word	0x40010c00

08001cb4 <atk_md0096_iic_write_cmd>:

uint8_t atk_md0096_iic_write_cmd(uint8_t cmd)
{
 8001cb4:	b580      	push	{r7, lr}
 8001cb6:	b082      	sub	sp, #8
 8001cb8:	af00      	add	r7, sp, #0
 8001cba:	4603      	mov	r3, r0
 8001cbc:	71fb      	strb	r3, [r7, #7]
    atk_md0096_iic_start();
 8001cbe:	f7ff ff35 	bl	8001b2c <atk_md0096_iic_start>
    atk_md0096_iic_write_byte((uint8_t)((ATK_MD0096_IIC_ADDR << 1) | ATK_MD0096_IIC_WRITE));
 8001cc2:	2078      	movs	r0, #120	@ 0x78
 8001cc4:	f7ff ffa4 	bl	8001c10 <atk_md0096_iic_write_byte>
    if (atk_md0096_iic_wait_ack() != 0U)
 8001cc8:	f7ff ff6c 	bl	8001ba4 <atk_md0096_iic_wait_ack>
 8001ccc:	4603      	mov	r3, r0
 8001cce:	2b00      	cmp	r3, #0
 8001cd0:	d001      	beq.n	8001cd6 <atk_md0096_iic_write_cmd+0x22>
    {
        return 1U;
 8001cd2:	2301      	movs	r3, #1
 8001cd4:	e017      	b.n	8001d06 <atk_md0096_iic_write_cmd+0x52>
    }
    atk_md0096_iic_write_byte(ATK_MD0096_IIC_WRITE_CMD);
 8001cd6:	2000      	movs	r0, #0
 8001cd8:	f7ff ff9a 	bl	8001c10 <atk_md0096_iic_write_byte>
    if (atk_md0096_iic_wait_ack() != 0U)
 8001cdc:	f7ff ff62 	bl	8001ba4 <atk_md0096_iic_wait_ack>
 8001ce0:	4603      	mov	r3, r0
 8001ce2:	2b00      	cmp	r3, #0
 8001ce4:	d001      	beq.n	8001cea <atk_md0096_iic_write_cmd+0x36>
    {
        return 1U;
 8001ce6:	2301      	movs	r3, #1
 8001ce8:	e00d      	b.n	8001d06 <atk_md0096_iic_write_cmd+0x52>
    }
    atk_md0096_iic_write_byte(cmd);
 8001cea:	79fb      	ldrb	r3, [r7, #7]
 8001cec:	4618      	mov	r0, r3
 8001cee:	f7ff ff8f 	bl	8001c10 <atk_md0096_iic_write_byte>
    if (atk_md0096_iic_wait_ack() != 0U)
 8001cf2:	f7ff ff57 	bl	8001ba4 <atk_md0096_iic_wait_ack>
 8001cf6:	4603      	mov	r3, r0
 8001cf8:	2b00      	cmp	r3, #0
 8001cfa:	d001      	beq.n	8001d00 <atk_md0096_iic_write_cmd+0x4c>
    {
        return 1U;
 8001cfc:	2301      	movs	r3, #1
 8001cfe:	e002      	b.n	8001d06 <atk_md0096_iic_write_cmd+0x52>
    }
    atk_md0096_iic_stop();
 8001d00:	f7ff ff34 	bl	8001b6c <atk_md0096_iic_stop>

    return 0U;
 8001d04:	2300      	movs	r3, #0
}
 8001d06:	4618      	mov	r0, r3
 8001d08:	3708      	adds	r7, #8
 8001d0a:	46bd      	mov	sp, r7
 8001d0c:	bd80      	pop	{r7, pc}

08001d0e <atk_md0096_iic_write_data>:

uint8_t atk_md0096_iic_write_data(uint8_t dat)
{
 8001d0e:	b580      	push	{r7, lr}
 8001d10:	b082      	sub	sp, #8
 8001d12:	af00      	add	r7, sp, #0
 8001d14:	4603      	mov	r3, r0
 8001d16:	71fb      	strb	r3, [r7, #7]
    atk_md0096_iic_start();
 8001d18:	f7ff ff08 	bl	8001b2c <atk_md0096_iic_start>
    atk_md0096_iic_write_byte((uint8_t)((ATK_MD0096_IIC_ADDR << 1) | ATK_MD0096_IIC_WRITE));
 8001d1c:	2078      	movs	r0, #120	@ 0x78
 8001d1e:	f7ff ff77 	bl	8001c10 <atk_md0096_iic_write_byte>
    if (atk_md0096_iic_wait_ack() != 0U)
 8001d22:	f7ff ff3f 	bl	8001ba4 <atk_md0096_iic_wait_ack>
 8001d26:	4603      	mov	r3, r0
 8001d28:	2b00      	cmp	r3, #0
 8001d2a:	d001      	beq.n	8001d30 <atk_md0096_iic_write_data+0x22>
    {
        return 1U;
 8001d2c:	2301      	movs	r3, #1
 8001d2e:	e017      	b.n	8001d60 <atk_md0096_iic_write_data+0x52>
    }
    atk_md0096_iic_write_byte(ATK_MD0096_IIC_WRITE_DAT);
 8001d30:	2040      	movs	r0, #64	@ 0x40
 8001d32:	f7ff ff6d 	bl	8001c10 <atk_md0096_iic_write_byte>
    if (atk_md0096_iic_wait_ack() != 0U)
 8001d36:	f7ff ff35 	bl	8001ba4 <atk_md0096_iic_wait_ack>
 8001d3a:	4603      	mov	r3, r0
 8001d3c:	2b00      	cmp	r3, #0
 8001d3e:	d001      	beq.n	8001d44 <atk_md0096_iic_write_data+0x36>
    {
        return 1U;
 8001d40:	2301      	movs	r3, #1
 8001d42:	e00d      	b.n	8001d60 <atk_md0096_iic_write_data+0x52>
    }
    atk_md0096_iic_write_byte(dat);
 8001d44:	79fb      	ldrb	r3, [r7, #7]
 8001d46:	4618      	mov	r0, r3
 8001d48:	f7ff ff62 	bl	8001c10 <atk_md0096_iic_write_byte>
    if (atk_md0096_iic_wait_ack() != 0U)
 8001d4c:	f7ff ff2a 	bl	8001ba4 <atk_md0096_iic_wait_ack>
 8001d50:	4603      	mov	r3, r0
 8001d52:	2b00      	cmp	r3, #0
 8001d54:	d001      	beq.n	8001d5a <atk_md0096_iic_write_data+0x4c>
    {
        return 1U;
 8001d56:	2301      	movs	r3, #1
 8001d58:	e002      	b.n	8001d60 <atk_md0096_iic_write_data+0x52>
    }
    atk_md0096_iic_stop();
 8001d5a:	f7ff ff07 	bl	8001b6c <atk_md0096_iic_stop>

    return 0U;
 8001d5e:	2300      	movs	r3, #0
}
 8001d60:	4618      	mov	r0, r3
 8001d62:	3708      	adds	r7, #8
 8001d64:	46bd      	mov	sp, r7
 8001d66:	bd80      	pop	{r7, pc}

08001d68 <PH_Init>:
};

static float g_iir_voltage = 2.000f;

void PH_Init(void)
{
 8001d68:	b480      	push	{r7}
 8001d6a:	af00      	add	r7, sp, #0
}
 8001d6c:	bf00      	nop
 8001d6e:	46bd      	mov	sp, r7
 8001d70:	bc80      	pop	{r7}
 8001d72:	4770      	bx	lr

08001d74 <PH_ReadVoltageOnce>:
{
    g_ph_cal = calib;
}

static float PH_ReadVoltageOnce(void)
{
 8001d74:	b580      	push	{r7, lr}
 8001d76:	b082      	sub	sp, #8
 8001d78:	af00      	add	r7, sp, #0
    HAL_ADC_Start(&hadc1);
 8001d7a:	4810      	ldr	r0, [pc, #64]	@ (8001dbc <PH_ReadVoltageOnce+0x48>)
 8001d7c:	f000 fba4 	bl	80024c8 <HAL_ADC_Start>
    HAL_ADC_PollForConversion(&hadc1, 20);
 8001d80:	2114      	movs	r1, #20
 8001d82:	480e      	ldr	r0, [pc, #56]	@ (8001dbc <PH_ReadVoltageOnce+0x48>)
 8001d84:	f000 fc7a 	bl	800267c <HAL_ADC_PollForConversion>
    uint32_t adc = HAL_ADC_GetValue(&hadc1);
 8001d88:	480c      	ldr	r0, [pc, #48]	@ (8001dbc <PH_ReadVoltageOnce+0x48>)
 8001d8a:	f000 fd7d 	bl	8002888 <HAL_ADC_GetValue>
 8001d8e:	6078      	str	r0, [r7, #4]
    HAL_ADC_Stop(&hadc1);
 8001d90:	480a      	ldr	r0, [pc, #40]	@ (8001dbc <PH_ReadVoltageOnce+0x48>)
 8001d92:	f000 fc47 	bl	8002624 <HAL_ADC_Stop>

    return 3.3f * ((float)adc) / 4095.0f;
 8001d96:	6878      	ldr	r0, [r7, #4]
 8001d98:	f7fe fa8e 	bl	80002b8 <__aeabi_ui2f>
 8001d9c:	4603      	mov	r3, r0
 8001d9e:	4908      	ldr	r1, [pc, #32]	@ (8001dc0 <PH_ReadVoltageOnce+0x4c>)
 8001da0:	4618      	mov	r0, r3
 8001da2:	f7fe fae1 	bl	8000368 <__aeabi_fmul>
 8001da6:	4603      	mov	r3, r0
 8001da8:	4906      	ldr	r1, [pc, #24]	@ (8001dc4 <PH_ReadVoltageOnce+0x50>)
 8001daa:	4618      	mov	r0, r3
 8001dac:	f7fe fb90 	bl	80004d0 <__aeabi_fdiv>
 8001db0:	4603      	mov	r3, r0
}
 8001db2:	4618      	mov	r0, r3
 8001db4:	3708      	adds	r7, #8
 8001db6:	46bd      	mov	sp, r7
 8001db8:	bd80      	pop	{r7, pc}
 8001dba:	bf00      	nop
 8001dbc:	2000009c 	.word	0x2000009c
 8001dc0:	40533333 	.word	0x40533333
 8001dc4:	457ff000 	.word	0x457ff000

08001dc8 <PH_ReadVoltage>:

float PH_ReadVoltage(void)
{
 8001dc8:	b5f0      	push	{r4, r5, r6, r7, lr}
 8001dca:	b089      	sub	sp, #36	@ 0x24
 8001dcc:	af00      	add	r7, sp, #0
 8001dce:	466b      	mov	r3, sp
 8001dd0:	461e      	mov	r6, r3
    const uint8_t N = 16;
 8001dd2:	2310      	movs	r3, #16
 8001dd4:	747b      	strb	r3, [r7, #17]
    float buf[N];
 8001dd6:	7c7b      	ldrb	r3, [r7, #17]
 8001dd8:	3b01      	subs	r3, #1
 8001dda:	60fb      	str	r3, [r7, #12]
 8001ddc:	7c7b      	ldrb	r3, [r7, #17]
 8001dde:	2200      	movs	r2, #0
 8001de0:	461c      	mov	r4, r3
 8001de2:	4615      	mov	r5, r2
 8001de4:	f04f 0200 	mov.w	r2, #0
 8001de8:	f04f 0300 	mov.w	r3, #0
 8001dec:	016b      	lsls	r3, r5, #5
 8001dee:	ea43 63d4 	orr.w	r3, r3, r4, lsr #27
 8001df2:	0162      	lsls	r2, r4, #5
 8001df4:	7c7b      	ldrb	r3, [r7, #17]
 8001df6:	2200      	movs	r2, #0
 8001df8:	4618      	mov	r0, r3
 8001dfa:	4611      	mov	r1, r2
 8001dfc:	f04f 0200 	mov.w	r2, #0
 8001e00:	f04f 0300 	mov.w	r3, #0
 8001e04:	014b      	lsls	r3, r1, #5
 8001e06:	ea43 63d0 	orr.w	r3, r3, r0, lsr #27
 8001e0a:	0142      	lsls	r2, r0, #5
 8001e0c:	7c7b      	ldrb	r3, [r7, #17]
 8001e0e:	009b      	lsls	r3, r3, #2
 8001e10:	3307      	adds	r3, #7
 8001e12:	08db      	lsrs	r3, r3, #3
 8001e14:	00db      	lsls	r3, r3, #3
 8001e16:	ebad 0d03 	sub.w	sp, sp, r3
 8001e1a:	466b      	mov	r3, sp
 8001e1c:	3303      	adds	r3, #3
 8001e1e:	089b      	lsrs	r3, r3, #2
 8001e20:	009b      	lsls	r3, r3, #2
 8001e22:	60bb      	str	r3, [r7, #8]
    float sum = 0.0f;
 8001e24:	f04f 0300 	mov.w	r3, #0
 8001e28:	61fb      	str	r3, [r7, #28]
    float vmax = -1000.0f;
 8001e2a:	4b3f      	ldr	r3, [pc, #252]	@ (8001f28 <PH_ReadVoltage+0x160>)
 8001e2c:	61bb      	str	r3, [r7, #24]
    float vmin = 1000.0f;
 8001e2e:	4b3f      	ldr	r3, [pc, #252]	@ (8001f2c <PH_ReadVoltage+0x164>)
 8001e30:	617b      	str	r3, [r7, #20]

    for (uint8_t i = 0; i < N; i++)
 8001e32:	2300      	movs	r3, #0
 8001e34:	74fb      	strb	r3, [r7, #19]
 8001e36:	e00c      	b.n	8001e52 <PH_ReadVoltage+0x8a>
    {
        buf[i] = PH_ReadVoltageOnce();
 8001e38:	7cfc      	ldrb	r4, [r7, #19]
 8001e3a:	f7ff ff9b 	bl	8001d74 <PH_ReadVoltageOnce>
 8001e3e:	4602      	mov	r2, r0
 8001e40:	68bb      	ldr	r3, [r7, #8]
 8001e42:	f843 2024 	str.w	r2, [r3, r4, lsl #2]
        HAL_Delay(2);
 8001e46:	2002      	movs	r0, #2
 8001e48:	f000 fa42 	bl	80022d0 <HAL_Delay>
    for (uint8_t i = 0; i < N; i++)
 8001e4c:	7cfb      	ldrb	r3, [r7, #19]
 8001e4e:	3301      	adds	r3, #1
 8001e50:	74fb      	strb	r3, [r7, #19]
 8001e52:	7cfa      	ldrb	r2, [r7, #19]
 8001e54:	7c7b      	ldrb	r3, [r7, #17]
 8001e56:	429a      	cmp	r2, r3
 8001e58:	d3ee      	bcc.n	8001e38 <PH_ReadVoltage+0x70>
    }

    for (uint8_t i = 0; i < N; i++)
 8001e5a:	2300      	movs	r3, #0
 8001e5c:	74bb      	strb	r3, [r7, #18]
 8001e5e:	e02c      	b.n	8001eba <PH_ReadVoltage+0xf2>
    {
        sum += buf[i];
 8001e60:	7cba      	ldrb	r2, [r7, #18]
 8001e62:	68bb      	ldr	r3, [r7, #8]
 8001e64:	f853 3022 	ldr.w	r3, [r3, r2, lsl #2]
 8001e68:	4619      	mov	r1, r3
 8001e6a:	69f8      	ldr	r0, [r7, #28]
 8001e6c:	f7fe f974 	bl	8000158 <__addsf3>
 8001e70:	4603      	mov	r3, r0
 8001e72:	61fb      	str	r3, [r7, #28]
        if (buf[i] > vmax) vmax = buf[i];
 8001e74:	7cba      	ldrb	r2, [r7, #18]
 8001e76:	68bb      	ldr	r3, [r7, #8]
 8001e78:	f853 3022 	ldr.w	r3, [r3, r2, lsl #2]
 8001e7c:	4619      	mov	r1, r3
 8001e7e:	69b8      	ldr	r0, [r7, #24]
 8001e80:	f7fe fc10 	bl	80006a4 <__aeabi_fcmplt>
 8001e84:	4603      	mov	r3, r0
 8001e86:	2b00      	cmp	r3, #0
 8001e88:	d004      	beq.n	8001e94 <PH_ReadVoltage+0xcc>
 8001e8a:	7cba      	ldrb	r2, [r7, #18]
 8001e8c:	68bb      	ldr	r3, [r7, #8]
 8001e8e:	f853 3022 	ldr.w	r3, [r3, r2, lsl #2]
 8001e92:	61bb      	str	r3, [r7, #24]
        if (buf[i] < vmin) vmin = buf[i];
 8001e94:	7cba      	ldrb	r2, [r7, #18]
 8001e96:	68bb      	ldr	r3, [r7, #8]
 8001e98:	f853 3022 	ldr.w	r3, [r3, r2, lsl #2]
 8001e9c:	4619      	mov	r1, r3
 8001e9e:	6978      	ldr	r0, [r7, #20]
 8001ea0:	f7fe fc1e 	bl	80006e0 <__aeabi_fcmpgt>
 8001ea4:	4603      	mov	r3, r0
 8001ea6:	2b00      	cmp	r3, #0
 8001ea8:	d004      	beq.n	8001eb4 <PH_ReadVoltage+0xec>
 8001eaa:	7cba      	ldrb	r2, [r7, #18]
 8001eac:	68bb      	ldr	r3, [r7, #8]
 8001eae:	f853 3022 	ldr.w	r3, [r3, r2, lsl #2]
 8001eb2:	617b      	str	r3, [r7, #20]
    for (uint8_t i = 0; i < N; i++)
 8001eb4:	7cbb      	ldrb	r3, [r7, #18]
 8001eb6:	3301      	adds	r3, #1
 8001eb8:	74bb      	strb	r3, [r7, #18]
 8001eba:	7cba      	ldrb	r2, [r7, #18]
 8001ebc:	7c7b      	ldrb	r3, [r7, #17]
 8001ebe:	429a      	cmp	r2, r3
 8001ec0:	d3ce      	bcc.n	8001e60 <PH_ReadVoltage+0x98>
    }

    float avg = (sum - vmax - vmin) / (N - 2);
 8001ec2:	69b9      	ldr	r1, [r7, #24]
 8001ec4:	69f8      	ldr	r0, [r7, #28]
 8001ec6:	f7fe f945 	bl	8000154 <__aeabi_fsub>
 8001eca:	4603      	mov	r3, r0
 8001ecc:	6979      	ldr	r1, [r7, #20]
 8001ece:	4618      	mov	r0, r3
 8001ed0:	f7fe f940 	bl	8000154 <__aeabi_fsub>
 8001ed4:	4603      	mov	r3, r0
 8001ed6:	461c      	mov	r4, r3
 8001ed8:	7c7b      	ldrb	r3, [r7, #17]
 8001eda:	3b02      	subs	r3, #2
 8001edc:	4618      	mov	r0, r3
 8001ede:	f7fe f9ef 	bl	80002c0 <__aeabi_i2f>
 8001ee2:	4603      	mov	r3, r0
 8001ee4:	4619      	mov	r1, r3
 8001ee6:	4620      	mov	r0, r4
 8001ee8:	f7fe faf2 	bl	80004d0 <__aeabi_fdiv>
 8001eec:	4603      	mov	r3, r0
 8001eee:	607b      	str	r3, [r7, #4]
    g_iir_voltage = 0.7f * g_iir_voltage + 0.3f * avg;
 8001ef0:	4b0f      	ldr	r3, [pc, #60]	@ (8001f30 <PH_ReadVoltage+0x168>)
 8001ef2:	681b      	ldr	r3, [r3, #0]
 8001ef4:	490f      	ldr	r1, [pc, #60]	@ (8001f34 <PH_ReadVoltage+0x16c>)
 8001ef6:	4618      	mov	r0, r3
 8001ef8:	f7fe fa36 	bl	8000368 <__aeabi_fmul>
 8001efc:	4603      	mov	r3, r0
 8001efe:	461c      	mov	r4, r3
 8001f00:	490d      	ldr	r1, [pc, #52]	@ (8001f38 <PH_ReadVoltage+0x170>)
 8001f02:	6878      	ldr	r0, [r7, #4]
 8001f04:	f7fe fa30 	bl	8000368 <__aeabi_fmul>
 8001f08:	4603      	mov	r3, r0
 8001f0a:	4619      	mov	r1, r3
 8001f0c:	4620      	mov	r0, r4
 8001f0e:	f7fe f923 	bl	8000158 <__addsf3>
 8001f12:	4603      	mov	r3, r0
 8001f14:	461a      	mov	r2, r3
 8001f16:	4b06      	ldr	r3, [pc, #24]	@ (8001f30 <PH_ReadVoltage+0x168>)
 8001f18:	601a      	str	r2, [r3, #0]

    return g_iir_voltage;
 8001f1a:	4b05      	ldr	r3, [pc, #20]	@ (8001f30 <PH_ReadVoltage+0x168>)
 8001f1c:	681b      	ldr	r3, [r3, #0]
 8001f1e:	46b5      	mov	sp, r6
}
 8001f20:	4618      	mov	r0, r3
 8001f22:	3724      	adds	r7, #36	@ 0x24
 8001f24:	46bd      	mov	sp, r7
 8001f26:	bdf0      	pop	{r4, r5, r6, r7, pc}
 8001f28:	c47a0000 	.word	0xc47a0000
 8001f2c:	447a0000 	.word	0x447a0000
 8001f30:	20000010 	.word	0x20000010
 8001f34:	3f333333 	.word	0x3f333333
 8001f38:	3e99999a 	.word	0x3e99999a

08001f3c <PH_ReadPH>:

float PH_ReadPH(float temp_c, float *voltage_out)
{
 8001f3c:	b590      	push	{r4, r7, lr}
 8001f3e:	b087      	sub	sp, #28
 8001f40:	af00      	add	r7, sp, #0
 8001f42:	6078      	str	r0, [r7, #4]
 8001f44:	6039      	str	r1, [r7, #0]
    float v = PH_ReadVoltage();
 8001f46:	f7ff ff3f 	bl	8001dc8 <PH_ReadVoltage>
 8001f4a:	6138      	str	r0, [r7, #16]

    if (voltage_out)
 8001f4c:	683b      	ldr	r3, [r7, #0]
 8001f4e:	2b00      	cmp	r3, #0
 8001f50:	d002      	beq.n	8001f58 <PH_ReadPH+0x1c>
    {
        *voltage_out = v;
 8001f52:	683b      	ldr	r3, [r7, #0]
 8001f54:	693a      	ldr	r2, [r7, #16]
 8001f56:	601a      	str	r2, [r3, #0]
    }

    float k25 = (9.18f - 4.00f) / (g_ph_cal.v918 - g_ph_cal.v4);
 8001f58:	4b25      	ldr	r3, [pc, #148]	@ (8001ff0 <PH_ReadPH+0xb4>)
 8001f5a:	689b      	ldr	r3, [r3, #8]
 8001f5c:	4a24      	ldr	r2, [pc, #144]	@ (8001ff0 <PH_ReadPH+0xb4>)
 8001f5e:	6812      	ldr	r2, [r2, #0]
 8001f60:	4611      	mov	r1, r2
 8001f62:	4618      	mov	r0, r3
 8001f64:	f7fe f8f6 	bl	8000154 <__aeabi_fsub>
 8001f68:	4603      	mov	r3, r0
 8001f6a:	4619      	mov	r1, r3
 8001f6c:	4821      	ldr	r0, [pc, #132]	@ (8001ff4 <PH_ReadPH+0xb8>)
 8001f6e:	f7fe faaf 	bl	80004d0 <__aeabi_fdiv>
 8001f72:	4603      	mov	r3, r0
 8001f74:	60fb      	str	r3, [r7, #12]
    float kt  = k25 * 298.0f / (273.0f + temp_c);
 8001f76:	4920      	ldr	r1, [pc, #128]	@ (8001ff8 <PH_ReadPH+0xbc>)
 8001f78:	68f8      	ldr	r0, [r7, #12]
 8001f7a:	f7fe f9f5 	bl	8000368 <__aeabi_fmul>
 8001f7e:	4603      	mov	r3, r0
 8001f80:	461c      	mov	r4, r3
 8001f82:	491e      	ldr	r1, [pc, #120]	@ (8001ffc <PH_ReadPH+0xc0>)
 8001f84:	6878      	ldr	r0, [r7, #4]
 8001f86:	f7fe f8e7 	bl	8000158 <__addsf3>
 8001f8a:	4603      	mov	r3, r0
 8001f8c:	4619      	mov	r1, r3
 8001f8e:	4620      	mov	r0, r4
 8001f90:	f7fe fa9e 	bl	80004d0 <__aeabi_fdiv>
 8001f94:	4603      	mov	r3, r0
 8001f96:	60bb      	str	r3, [r7, #8]
    float ph  = 6.86f + (v - g_ph_cal.v686) * kt;
 8001f98:	4b15      	ldr	r3, [pc, #84]	@ (8001ff0 <PH_ReadPH+0xb4>)
 8001f9a:	685b      	ldr	r3, [r3, #4]
 8001f9c:	4619      	mov	r1, r3
 8001f9e:	6938      	ldr	r0, [r7, #16]
 8001fa0:	f7fe f8d8 	bl	8000154 <__aeabi_fsub>
 8001fa4:	4603      	mov	r3, r0
 8001fa6:	68b9      	ldr	r1, [r7, #8]
 8001fa8:	4618      	mov	r0, r3
 8001faa:	f7fe f9dd 	bl	8000368 <__aeabi_fmul>
 8001fae:	4603      	mov	r3, r0
 8001fb0:	4913      	ldr	r1, [pc, #76]	@ (8002000 <PH_ReadPH+0xc4>)
 8001fb2:	4618      	mov	r0, r3
 8001fb4:	f7fe f8d0 	bl	8000158 <__addsf3>
 8001fb8:	4603      	mov	r3, r0
 8001fba:	617b      	str	r3, [r7, #20]

    if (ph < 0.0f)  ph = 0.0f;
 8001fbc:	f04f 0100 	mov.w	r1, #0
 8001fc0:	6978      	ldr	r0, [r7, #20]
 8001fc2:	f7fe fb6f 	bl	80006a4 <__aeabi_fcmplt>
 8001fc6:	4603      	mov	r3, r0
 8001fc8:	2b00      	cmp	r3, #0
 8001fca:	d002      	beq.n	8001fd2 <PH_ReadPH+0x96>
 8001fcc:	f04f 0300 	mov.w	r3, #0
 8001fd0:	617b      	str	r3, [r7, #20]
    if (ph > 14.0f) ph = 14.0f;
 8001fd2:	490c      	ldr	r1, [pc, #48]	@ (8002004 <PH_ReadPH+0xc8>)
 8001fd4:	6978      	ldr	r0, [r7, #20]
 8001fd6:	f7fe fb83 	bl	80006e0 <__aeabi_fcmpgt>
 8001fda:	4603      	mov	r3, r0
 8001fdc:	2b00      	cmp	r3, #0
 8001fde:	d001      	beq.n	8001fe4 <PH_ReadPH+0xa8>
 8001fe0:	4b08      	ldr	r3, [pc, #32]	@ (8002004 <PH_ReadPH+0xc8>)
 8001fe2:	617b      	str	r3, [r7, #20]

    return ph;
 8001fe4:	697b      	ldr	r3, [r7, #20]
}
 8001fe6:	4618      	mov	r0, r3
 8001fe8:	371c      	adds	r7, #28
 8001fea:	46bd      	mov	sp, r7
 8001fec:	bd90      	pop	{r4, r7, pc}
 8001fee:	bf00      	nop
 8001ff0:	20000004 	.word	0x20000004
 8001ff4:	40a5c290 	.word	0x40a5c290
 8001ff8:	43950000 	.word	0x43950000
 8001ffc:	43888000 	.word	0x43888000
 8002000:	40db851f 	.word	0x40db851f
 8002004:	41600000 	.word	0x41600000

08002008 <__io_putchar>:
#ifdef __GNUC__
int __io_putchar(int ch)
#else
int fputc(int ch, FILE *f)
#endif
{
 8002008:	b580      	push	{r7, lr}
 800200a:	b084      	sub	sp, #16
 800200c:	af00      	add	r7, sp, #0
 800200e:	6078      	str	r0, [r7, #4]
    uint8_t c = (uint8_t)ch;
 8002010:	687b      	ldr	r3, [r7, #4]
 8002012:	b2db      	uxtb	r3, r3
 8002014:	73fb      	strb	r3, [r7, #15]
    HAL_UART_Transmit(&huart1, &c, 1, 10);
 8002016:	f107 010f 	add.w	r1, r7, #15
 800201a:	230a      	movs	r3, #10
 800201c:	2201      	movs	r2, #1
 800201e:	4804      	ldr	r0, [pc, #16]	@ (8002030 <__io_putchar+0x28>)
 8002020:	f002 fae2 	bl	80045e8 <HAL_UART_Transmit>
    return ch;
 8002024:	687b      	ldr	r3, [r7, #4]
}
 8002026:	4618      	mov	r0, r3
 8002028:	3710      	adds	r7, #16
 800202a:	46bd      	mov	sp, r7
 800202c:	bd80      	pop	{r7, pc}
 800202e:	bf00      	nop
 8002030:	2000011c 	.word	0x2000011c

08002034 <is_leap_year>:
    .min   = 30,
    .sec   = 0
};

static uint8_t is_leap_year(uint16_t year)
{
 8002034:	b480      	push	{r7}
 8002036:	b083      	sub	sp, #12
 8002038:	af00      	add	r7, sp, #0
 800203a:	4603      	mov	r3, r0
 800203c:	80fb      	strh	r3, [r7, #6]
    return ((year % 4 == 0U && year % 100 != 0U) || (year % 400 == 0U));
 800203e:	88fb      	ldrh	r3, [r7, #6]
 8002040:	f003 0303 	and.w	r3, r3, #3
 8002044:	b29b      	uxth	r3, r3
 8002046:	2b00      	cmp	r3, #0
 8002048:	d10b      	bne.n	8002062 <is_leap_year+0x2e>
 800204a:	88fb      	ldrh	r3, [r7, #6]
 800204c:	4a10      	ldr	r2, [pc, #64]	@ (8002090 <is_leap_year+0x5c>)
 800204e:	fba2 1203 	umull	r1, r2, r2, r3
 8002052:	0952      	lsrs	r2, r2, #5
 8002054:	2164      	movs	r1, #100	@ 0x64
 8002056:	fb01 f202 	mul.w	r2, r1, r2
 800205a:	1a9b      	subs	r3, r3, r2
 800205c:	b29b      	uxth	r3, r3
 800205e:	2b00      	cmp	r3, #0
 8002060:	d10c      	bne.n	800207c <is_leap_year+0x48>
 8002062:	88fb      	ldrh	r3, [r7, #6]
 8002064:	4a0a      	ldr	r2, [pc, #40]	@ (8002090 <is_leap_year+0x5c>)
 8002066:	fba2 1203 	umull	r1, r2, r2, r3
 800206a:	09d2      	lsrs	r2, r2, #7
 800206c:	f44f 71c8 	mov.w	r1, #400	@ 0x190
 8002070:	fb01 f202 	mul.w	r2, r1, r2
 8002074:	1a9b      	subs	r3, r3, r2
 8002076:	b29b      	uxth	r3, r3
 8002078:	2b00      	cmp	r3, #0
 800207a:	d101      	bne.n	8002080 <is_leap_year+0x4c>
 800207c:	2301      	movs	r3, #1
 800207e:	e000      	b.n	8002082 <is_leap_year+0x4e>
 8002080:	2300      	movs	r3, #0
 8002082:	b2db      	uxtb	r3, r3
}
 8002084:	4618      	mov	r0, r3
 8002086:	370c      	adds	r7, #12
 8002088:	46bd      	mov	sp, r7
 800208a:	bc80      	pop	{r7}
 800208c:	4770      	bx	lr
 800208e:	bf00      	nop
 8002090:	51eb851f 	.word	0x51eb851f

08002094 <days_in_month>:

static uint8_t days_in_month(uint16_t year, uint8_t month)
{
 8002094:	b590      	push	{r4, r7, lr}
 8002096:	b083      	sub	sp, #12
 8002098:	af00      	add	r7, sp, #0
 800209a:	4603      	mov	r3, r0
 800209c:	460a      	mov	r2, r1
 800209e:	80fb      	strh	r3, [r7, #6]
 80020a0:	4613      	mov	r3, r2
 80020a2:	717b      	strb	r3, [r7, #5]
    static const uint8_t days_tbl[12] =
    {
        31, 28, 31, 30, 31, 30, 31, 31, 30, 31, 30, 31
    };

    if (month == 2U)
 80020a4:	797b      	ldrb	r3, [r7, #5]
 80020a6:	2b02      	cmp	r3, #2
 80020a8:	d109      	bne.n	80020be <days_in_month+0x2a>
    {
        return days_tbl[1] + is_leap_year(year);
 80020aa:	4b09      	ldr	r3, [pc, #36]	@ (80020d0 <days_in_month+0x3c>)
 80020ac:	785c      	ldrb	r4, [r3, #1]
 80020ae:	88fb      	ldrh	r3, [r7, #6]
 80020b0:	4618      	mov	r0, r3
 80020b2:	f7ff ffbf 	bl	8002034 <is_leap_year>
 80020b6:	4603      	mov	r3, r0
 80020b8:	4423      	add	r3, r4
 80020ba:	b2db      	uxtb	r3, r3
 80020bc:	e003      	b.n	80020c6 <days_in_month+0x32>
    }

    return days_tbl[month - 1U];
 80020be:	797b      	ldrb	r3, [r7, #5]
 80020c0:	3b01      	subs	r3, #1
 80020c2:	4a03      	ldr	r2, [pc, #12]	@ (80020d0 <days_in_month+0x3c>)
 80020c4:	5cd3      	ldrb	r3, [r2, r3]
}
 80020c6:	4618      	mov	r0, r3
 80020c8:	370c      	adds	r7, #12
 80020ca:	46bd      	mov	sp, r7
 80020cc:	bd90      	pop	{r4, r7, pc}
 80020ce:	bf00      	nop
 80020d0:	08007450 	.word	0x08007450

080020d4 <APP_Time_InitDefault>:

void APP_Time_InitDefault(void)
{
 80020d4:	b480      	push	{r7}
 80020d6:	af00      	add	r7, sp, #0
    g_time.year  = 2026;
 80020d8:	4b0b      	ldr	r3, [pc, #44]	@ (8002108 <APP_Time_InitDefault+0x34>)
 80020da:	f240 72ea 	movw	r2, #2026	@ 0x7ea
 80020de:	801a      	strh	r2, [r3, #0]
    g_time.month = 4;
 80020e0:	4b09      	ldr	r3, [pc, #36]	@ (8002108 <APP_Time_InitDefault+0x34>)
 80020e2:	2204      	movs	r2, #4
 80020e4:	709a      	strb	r2, [r3, #2]
    g_time.day   = 17;
 80020e6:	4b08      	ldr	r3, [pc, #32]	@ (8002108 <APP_Time_InitDefault+0x34>)
 80020e8:	2211      	movs	r2, #17
 80020ea:	70da      	strb	r2, [r3, #3]
    g_time.hour  = 20;
 80020ec:	4b06      	ldr	r3, [pc, #24]	@ (8002108 <APP_Time_InitDefault+0x34>)
 80020ee:	2214      	movs	r2, #20
 80020f0:	711a      	strb	r2, [r3, #4]
    g_time.min   = 30;
 80020f2:	4b05      	ldr	r3, [pc, #20]	@ (8002108 <APP_Time_InitDefault+0x34>)
 80020f4:	221e      	movs	r2, #30
 80020f6:	715a      	strb	r2, [r3, #5]
    g_time.sec   = 0;
 80020f8:	4b03      	ldr	r3, [pc, #12]	@ (8002108 <APP_Time_InitDefault+0x34>)
 80020fa:	2200      	movs	r2, #0
 80020fc:	719a      	strb	r2, [r3, #6]
}
 80020fe:	bf00      	nop
 8002100:	46bd      	mov	sp, r7
 8002102:	bc80      	pop	{r7}
 8002104:	4770      	bx	lr
 8002106:	bf00      	nop
 8002108:	20000014 	.word	0x20000014

0800210c <APP_Time_Tick1s>:

void APP_Time_Tick1s(void)
{
 800210c:	b598      	push	{r3, r4, r7, lr}
 800210e:	af00      	add	r7, sp, #0
    g_time.sec++;
 8002110:	4b28      	ldr	r3, [pc, #160]	@ (80021b4 <APP_Time_Tick1s+0xa8>)
 8002112:	799b      	ldrb	r3, [r3, #6]
 8002114:	3301      	adds	r3, #1
 8002116:	b2da      	uxtb	r2, r3
 8002118:	4b26      	ldr	r3, [pc, #152]	@ (80021b4 <APP_Time_Tick1s+0xa8>)
 800211a:	719a      	strb	r2, [r3, #6]
    if (g_time.sec >= 60U)
 800211c:	4b25      	ldr	r3, [pc, #148]	@ (80021b4 <APP_Time_Tick1s+0xa8>)
 800211e:	799b      	ldrb	r3, [r3, #6]
 8002120:	2b3b      	cmp	r3, #59	@ 0x3b
 8002122:	d945      	bls.n	80021b0 <APP_Time_Tick1s+0xa4>
    {
        g_time.sec = 0;
 8002124:	4b23      	ldr	r3, [pc, #140]	@ (80021b4 <APP_Time_Tick1s+0xa8>)
 8002126:	2200      	movs	r2, #0
 8002128:	719a      	strb	r2, [r3, #6]
        g_time.min++;
 800212a:	4b22      	ldr	r3, [pc, #136]	@ (80021b4 <APP_Time_Tick1s+0xa8>)
 800212c:	795b      	ldrb	r3, [r3, #5]
 800212e:	3301      	adds	r3, #1
 8002130:	b2da      	uxtb	r2, r3
 8002132:	4b20      	ldr	r3, [pc, #128]	@ (80021b4 <APP_Time_Tick1s+0xa8>)
 8002134:	715a      	strb	r2, [r3, #5]
        if (g_time.min >= 60U)
 8002136:	4b1f      	ldr	r3, [pc, #124]	@ (80021b4 <APP_Time_Tick1s+0xa8>)
 8002138:	795b      	ldrb	r3, [r3, #5]
 800213a:	2b3b      	cmp	r3, #59	@ 0x3b
 800213c:	d938      	bls.n	80021b0 <APP_Time_Tick1s+0xa4>
        {
            g_time.min = 0;
 800213e:	4b1d      	ldr	r3, [pc, #116]	@ (80021b4 <APP_Time_Tick1s+0xa8>)
 8002140:	2200      	movs	r2, #0
 8002142:	715a      	strb	r2, [r3, #5]
            g_time.hour++;
 8002144:	4b1b      	ldr	r3, [pc, #108]	@ (80021b4 <APP_Time_Tick1s+0xa8>)
 8002146:	791b      	ldrb	r3, [r3, #4]
 8002148:	3301      	adds	r3, #1
 800214a:	b2da      	uxtb	r2, r3
 800214c:	4b19      	ldr	r3, [pc, #100]	@ (80021b4 <APP_Time_Tick1s+0xa8>)
 800214e:	711a      	strb	r2, [r3, #4]
            if (g_time.hour >= 24U)
 8002150:	4b18      	ldr	r3, [pc, #96]	@ (80021b4 <APP_Time_Tick1s+0xa8>)
 8002152:	791b      	ldrb	r3, [r3, #4]
 8002154:	2b17      	cmp	r3, #23
 8002156:	d92b      	bls.n	80021b0 <APP_Time_Tick1s+0xa4>
            {
                g_time.hour = 0;
 8002158:	4b16      	ldr	r3, [pc, #88]	@ (80021b4 <APP_Time_Tick1s+0xa8>)
 800215a:	2200      	movs	r2, #0
 800215c:	711a      	strb	r2, [r3, #4]
                g_time.day++;
 800215e:	4b15      	ldr	r3, [pc, #84]	@ (80021b4 <APP_Time_Tick1s+0xa8>)
 8002160:	78db      	ldrb	r3, [r3, #3]
 8002162:	3301      	adds	r3, #1
 8002164:	b2da      	uxtb	r2, r3
 8002166:	4b13      	ldr	r3, [pc, #76]	@ (80021b4 <APP_Time_Tick1s+0xa8>)
 8002168:	70da      	strb	r2, [r3, #3]
                if (g_time.day > days_in_month(g_time.year, g_time.month))
 800216a:	4b12      	ldr	r3, [pc, #72]	@ (80021b4 <APP_Time_Tick1s+0xa8>)
 800216c:	78dc      	ldrb	r4, [r3, #3]
 800216e:	4b11      	ldr	r3, [pc, #68]	@ (80021b4 <APP_Time_Tick1s+0xa8>)
 8002170:	881b      	ldrh	r3, [r3, #0]
 8002172:	4a10      	ldr	r2, [pc, #64]	@ (80021b4 <APP_Time_Tick1s+0xa8>)
 8002174:	7892      	ldrb	r2, [r2, #2]
 8002176:	4611      	mov	r1, r2
 8002178:	4618      	mov	r0, r3
 800217a:	f7ff ff8b 	bl	8002094 <days_in_month>
 800217e:	4603      	mov	r3, r0
 8002180:	429c      	cmp	r4, r3
 8002182:	d915      	bls.n	80021b0 <APP_Time_Tick1s+0xa4>
                {
                    g_time.day = 1;
 8002184:	4b0b      	ldr	r3, [pc, #44]	@ (80021b4 <APP_Time_Tick1s+0xa8>)
 8002186:	2201      	movs	r2, #1
 8002188:	70da      	strb	r2, [r3, #3]
                    g_time.month++;
 800218a:	4b0a      	ldr	r3, [pc, #40]	@ (80021b4 <APP_Time_Tick1s+0xa8>)
 800218c:	789b      	ldrb	r3, [r3, #2]
 800218e:	3301      	adds	r3, #1
 8002190:	b2da      	uxtb	r2, r3
 8002192:	4b08      	ldr	r3, [pc, #32]	@ (80021b4 <APP_Time_Tick1s+0xa8>)
 8002194:	709a      	strb	r2, [r3, #2]
                    if (g_time.month > 12U)
 8002196:	4b07      	ldr	r3, [pc, #28]	@ (80021b4 <APP_Time_Tick1s+0xa8>)
 8002198:	789b      	ldrb	r3, [r3, #2]
 800219a:	2b0c      	cmp	r3, #12
 800219c:	d908      	bls.n	80021b0 <APP_Time_Tick1s+0xa4>
                    {
                        g_time.month = 1;
 800219e:	4b05      	ldr	r3, [pc, #20]	@ (80021b4 <APP_Time_Tick1s+0xa8>)
 80021a0:	2201      	movs	r2, #1
 80021a2:	709a      	strb	r2, [r3, #2]
                        g_time.year++;
 80021a4:	4b03      	ldr	r3, [pc, #12]	@ (80021b4 <APP_Time_Tick1s+0xa8>)
 80021a6:	881b      	ldrh	r3, [r3, #0]
 80021a8:	3301      	adds	r3, #1
 80021aa:	b29a      	uxth	r2, r3
 80021ac:	4b01      	ldr	r3, [pc, #4]	@ (80021b4 <APP_Time_Tick1s+0xa8>)
 80021ae:	801a      	strh	r2, [r3, #0]
                    }
                }
            }
        }
    }
}
 80021b0:	bf00      	nop
 80021b2:	bd98      	pop	{r3, r4, r7, pc}
 80021b4:	20000014 	.word	0x20000014

080021b8 <APP_Time_GetString>:

void APP_Time_GetString(char *buf, size_t len)
{
 80021b8:	b5b0      	push	{r4, r5, r7, lr}
 80021ba:	b088      	sub	sp, #32
 80021bc:	af06      	add	r7, sp, #24
 80021be:	6078      	str	r0, [r7, #4]
 80021c0:	6039      	str	r1, [r7, #0]
    snprintf(buf, len, "%04u-%02u-%02u %02u:%02u:%02u",
             g_time.year, g_time.month, g_time.day,
 80021c2:	4b10      	ldr	r3, [pc, #64]	@ (8002204 <APP_Time_GetString+0x4c>)
 80021c4:	881b      	ldrh	r3, [r3, #0]
    snprintf(buf, len, "%04u-%02u-%02u %02u:%02u:%02u",
 80021c6:	461d      	mov	r5, r3
             g_time.year, g_time.month, g_time.day,
 80021c8:	4b0e      	ldr	r3, [pc, #56]	@ (8002204 <APP_Time_GetString+0x4c>)
 80021ca:	789b      	ldrb	r3, [r3, #2]
    snprintf(buf, len, "%04u-%02u-%02u %02u:%02u:%02u",
 80021cc:	461a      	mov	r2, r3
             g_time.year, g_time.month, g_time.day,
 80021ce:	4b0d      	ldr	r3, [pc, #52]	@ (8002204 <APP_Time_GetString+0x4c>)
 80021d0:	78db      	ldrb	r3, [r3, #3]
    snprintf(buf, len, "%04u-%02u-%02u %02u:%02u:%02u",
 80021d2:	4619      	mov	r1, r3
             g_time.hour, g_time.min, g_time.sec);
 80021d4:	4b0b      	ldr	r3, [pc, #44]	@ (8002204 <APP_Time_GetString+0x4c>)
 80021d6:	791b      	ldrb	r3, [r3, #4]
    snprintf(buf, len, "%04u-%02u-%02u %02u:%02u:%02u",
 80021d8:	4618      	mov	r0, r3
             g_time.hour, g_time.min, g_time.sec);
 80021da:	4b0a      	ldr	r3, [pc, #40]	@ (8002204 <APP_Time_GetString+0x4c>)
 80021dc:	795b      	ldrb	r3, [r3, #5]
    snprintf(buf, len, "%04u-%02u-%02u %02u:%02u:%02u",
 80021de:	461c      	mov	r4, r3
             g_time.hour, g_time.min, g_time.sec);
 80021e0:	4b08      	ldr	r3, [pc, #32]	@ (8002204 <APP_Time_GetString+0x4c>)
 80021e2:	799b      	ldrb	r3, [r3, #6]
    snprintf(buf, len, "%04u-%02u-%02u %02u:%02u:%02u",
 80021e4:	9304      	str	r3, [sp, #16]
 80021e6:	9403      	str	r4, [sp, #12]
 80021e8:	9002      	str	r0, [sp, #8]
 80021ea:	9101      	str	r1, [sp, #4]
 80021ec:	9200      	str	r2, [sp, #0]
 80021ee:	462b      	mov	r3, r5
 80021f0:	4a05      	ldr	r2, [pc, #20]	@ (8002208 <APP_Time_GetString+0x50>)
 80021f2:	6839      	ldr	r1, [r7, #0]
 80021f4:	6878      	ldr	r0, [r7, #4]
 80021f6:	f002 fc9f 	bl	8004b38 <sniprintf>
}
 80021fa:	bf00      	nop
 80021fc:	3708      	adds	r7, #8
 80021fe:	46bd      	mov	sp, r7
 8002200:	bdb0      	pop	{r4, r5, r7, pc}
 8002202:	bf00      	nop
 8002204:	20000014 	.word	0x20000014
 8002208:	08005c58 	.word	0x08005c58

0800220c <HAL_Init>:
  *         need to ensure that the SysTick time base is always set to 1 millisecond
  *         to have correct HAL operation.
  * @retval HAL status
  */
HAL_StatusTypeDef HAL_Init(void)
{
 800220c:	b580      	push	{r7, lr}
 800220e:	af00      	add	r7, sp, #0
    defined(STM32F102x6) || defined(STM32F102xB) || \
    defined(STM32F103x6) || defined(STM32F103xB) || defined(STM32F103xE) || defined(STM32F103xG) || \
    defined(STM32F105xC) || defined(STM32F107xC)

  /* Prefetch buffer is not available on value line devices */
  __HAL_FLASH_PREFETCH_BUFFER_ENABLE();
 8002210:	4b08      	ldr	r3, [pc, #32]	@ (8002234 <HAL_Init+0x28>)
 8002212:	681b      	ldr	r3, [r3, #0]
 8002214:	4a07      	ldr	r2, [pc, #28]	@ (8002234 <HAL_Init+0x28>)
 8002216:	f043 0310 	orr.w	r3, r3, #16
 800221a:	6013      	str	r3, [r2, #0]
#endif
#endif /* PREFETCH_ENABLE */

  /* Set Interrupt Group Priority */
  HAL_NVIC_SetPriorityGrouping(NVIC_PRIORITYGROUP_4);
 800221c:	2003      	movs	r0, #3
 800221e:	f000 fe4d 	bl	8002ebc <HAL_NVIC_SetPriorityGrouping>

  /* Use systick as time base source and configure 1ms tick (default clock after Reset is HSI) */
  HAL_InitTick(TICK_INT_PRIORITY);
 8002222:	200f      	movs	r0, #15
 8002224:	f000 f808 	bl	8002238 <HAL_InitTick>

  /* Init the low level hardware */
  HAL_MspInit();
 8002228:	f7fe fc12 	bl	8000a50 <HAL_MspInit>

  /* Return function status */
  return HAL_OK;
 800222c:	2300      	movs	r3, #0
}
 800222e:	4618      	mov	r0, r3
 8002230:	bd80      	pop	{r7, pc}
 8002232:	bf00      	nop
 8002234:	40022000 	.word	0x40022000

08002238 <HAL_InitTick>:
  *       implementation  in user file.
  * @param TickPriority Tick interrupt priority.
  * @retval HAL status
  */
__weak HAL_StatusTypeDef HAL_InitTick(uint32_t TickPriority)
{
 8002238:	b580      	push	{r7, lr}
 800223a:	b082      	sub	sp, #8
 800223c:	af00      	add	r7, sp, #0
 800223e:	6078      	str	r0, [r7, #4]
  /* Configure the SysTick to have interrupt in 1ms time basis*/
  if (HAL_SYSTICK_Config(SystemCoreClock / (1000U / uwTickFreq)) > 0U)
 8002240:	4b12      	ldr	r3, [pc, #72]	@ (800228c <HAL_InitTick+0x54>)
 8002242:	681a      	ldr	r2, [r3, #0]
 8002244:	4b12      	ldr	r3, [pc, #72]	@ (8002290 <HAL_InitTick+0x58>)
 8002246:	781b      	ldrb	r3, [r3, #0]
 8002248:	4619      	mov	r1, r3
 800224a:	f44f 737a 	mov.w	r3, #1000	@ 0x3e8
 800224e:	fbb3 f3f1 	udiv	r3, r3, r1
 8002252:	fbb2 f3f3 	udiv	r3, r2, r3
 8002256:	4618      	mov	r0, r3
 8002258:	f000 fe65 	bl	8002f26 <HAL_SYSTICK_Config>
 800225c:	4603      	mov	r3, r0
 800225e:	2b00      	cmp	r3, #0
 8002260:	d001      	beq.n	8002266 <HAL_InitTick+0x2e>
  {
    return HAL_ERROR;
 8002262:	2301      	movs	r3, #1
 8002264:	e00e      	b.n	8002284 <HAL_InitTick+0x4c>
  }

  /* Configure the SysTick IRQ priority */
  if (TickPriority < (1UL << __NVIC_PRIO_BITS))
 8002266:	687b      	ldr	r3, [r7, #4]
 8002268:	2b0f      	cmp	r3, #15
 800226a:	d80a      	bhi.n	8002282 <HAL_InitTick+0x4a>
  {
    HAL_NVIC_SetPriority(SysTick_IRQn, TickPriority, 0U);
 800226c:	2200      	movs	r2, #0
 800226e:	6879      	ldr	r1, [r7, #4]
 8002270:	f04f 30ff 	mov.w	r0, #4294967295
 8002274:	f000 fe2d 	bl	8002ed2 <HAL_NVIC_SetPriority>
    uwTickPrio = TickPriority;
 8002278:	4a06      	ldr	r2, [pc, #24]	@ (8002294 <HAL_InitTick+0x5c>)
 800227a:	687b      	ldr	r3, [r7, #4]
 800227c:	6013      	str	r3, [r2, #0]
  {
    return HAL_ERROR;
  }

  /* Return function status */
  return HAL_OK;
 800227e:	2300      	movs	r3, #0
 8002280:	e000      	b.n	8002284 <HAL_InitTick+0x4c>
    return HAL_ERROR;
 8002282:	2301      	movs	r3, #1
}
 8002284:	4618      	mov	r0, r3
 8002286:	3708      	adds	r7, #8
 8002288:	46bd      	mov	sp, r7
 800228a:	bd80      	pop	{r7, pc}
 800228c:	20000000 	.word	0x20000000
 8002290:	20000020 	.word	0x20000020
 8002294:	2000001c 	.word	0x2000001c

08002298 <HAL_IncTick>:
  * @note This function is declared as __weak to be overwritten in case of other
  *      implementations in user file.
  * @retval None
  */
__weak void HAL_IncTick(void)
{
 8002298:	b480      	push	{r7}
 800229a:	af00      	add	r7, sp, #0
  uwTick += uwTickFreq;
 800229c:	4b05      	ldr	r3, [pc, #20]	@ (80022b4 <HAL_IncTick+0x1c>)
 800229e:	781b      	ldrb	r3, [r3, #0]
 80022a0:	461a      	mov	r2, r3
 80022a2:	4b05      	ldr	r3, [pc, #20]	@ (80022b8 <HAL_IncTick+0x20>)
 80022a4:	681b      	ldr	r3, [r3, #0]
 80022a6:	4413      	add	r3, r2
 80022a8:	4a03      	ldr	r2, [pc, #12]	@ (80022b8 <HAL_IncTick+0x20>)
 80022aa:	6013      	str	r3, [r2, #0]
}
 80022ac:	bf00      	nop
 80022ae:	46bd      	mov	sp, r7
 80022b0:	bc80      	pop	{r7}
 80022b2:	4770      	bx	lr
 80022b4:	20000020 	.word	0x20000020
 80022b8:	20000570 	.word	0x20000570

080022bc <HAL_GetTick>:
  * @note  This function is declared as __weak to be overwritten in case of other
  *       implementations in user file.
  * @retval tick value
  */
__weak uint32_t HAL_GetTick(void)
{
 80022bc:	b480      	push	{r7}
 80022be:	af00      	add	r7, sp, #0
  return uwTick;
 80022c0:	4b02      	ldr	r3, [pc, #8]	@ (80022cc <HAL_GetTick+0x10>)
 80022c2:	681b      	ldr	r3, [r3, #0]
}
 80022c4:	4618      	mov	r0, r3
 80022c6:	46bd      	mov	sp, r7
 80022c8:	bc80      	pop	{r7}
 80022ca:	4770      	bx	lr
 80022cc:	20000570 	.word	0x20000570

080022d0 <HAL_Delay>:
  *       implementations in user file.
  * @param Delay specifies the delay time length, in milliseconds.
  * @retval None
  */
__weak void HAL_Delay(uint32_t Delay)
{
 80022d0:	b580      	push	{r7, lr}
 80022d2:	b084      	sub	sp, #16
 80022d4:	af00      	add	r7, sp, #0
 80022d6:	6078      	str	r0, [r7, #4]
  uint32_t tickstart = HAL_GetTick();
 80022d8:	f7ff fff0 	bl	80022bc <HAL_GetTick>
 80022dc:	60b8      	str	r0, [r7, #8]
  uint32_t wait = Delay;
 80022de:	687b      	ldr	r3, [r7, #4]
 80022e0:	60fb      	str	r3, [r7, #12]

  /* Add a freq to guarantee minimum wait */
  if (wait < HAL_MAX_DELAY)
 80022e2:	68fb      	ldr	r3, [r7, #12]
 80022e4:	f1b3 3fff 	cmp.w	r3, #4294967295
 80022e8:	d005      	beq.n	80022f6 <HAL_Delay+0x26>
  {
    wait += (uint32_t)(uwTickFreq);
 80022ea:	4b0a      	ldr	r3, [pc, #40]	@ (8002314 <HAL_Delay+0x44>)
 80022ec:	781b      	ldrb	r3, [r3, #0]
 80022ee:	461a      	mov	r2, r3
 80022f0:	68fb      	ldr	r3, [r7, #12]
 80022f2:	4413      	add	r3, r2
 80022f4:	60fb      	str	r3, [r7, #12]
  }

  while ((HAL_GetTick() - tickstart) < wait)
 80022f6:	bf00      	nop
 80022f8:	f7ff ffe0 	bl	80022bc <HAL_GetTick>
 80022fc:	4602      	mov	r2, r0
 80022fe:	68bb      	ldr	r3, [r7, #8]
 8002300:	1ad3      	subs	r3, r2, r3
 8002302:	68fa      	ldr	r2, [r7, #12]
 8002304:	429a      	cmp	r2, r3
 8002306:	d8f7      	bhi.n	80022f8 <HAL_Delay+0x28>
  {
  }
}
 8002308:	bf00      	nop
 800230a:	bf00      	nop
 800230c:	3710      	adds	r7, #16
 800230e:	46bd      	mov	sp, r7
 8002310:	bd80      	pop	{r7, pc}
 8002312:	bf00      	nop
 8002314:	20000020 	.word	0x20000020

08002318 <HAL_ADC_Init>:
  *         of structure "ADC_InitTypeDef".
  * @param  hadc: ADC handle
  * @retval HAL status
  */
HAL_StatusTypeDef HAL_ADC_Init(ADC_HandleTypeDef* hadc)
{
 8002318:	b580      	push	{r7, lr}
 800231a:	b086      	sub	sp, #24
 800231c:	af00      	add	r7, sp, #0
 800231e:	6078      	str	r0, [r7, #4]
  HAL_StatusTypeDef tmp_hal_status = HAL_OK;
 8002320:	2300      	movs	r3, #0
 8002322:	75fb      	strb	r3, [r7, #23]
  uint32_t tmp_cr1 = 0U;
 8002324:	2300      	movs	r3, #0
 8002326:	613b      	str	r3, [r7, #16]
  uint32_t tmp_cr2 = 0U;
 8002328:	2300      	movs	r3, #0
 800232a:	60bb      	str	r3, [r7, #8]
  uint32_t tmp_sqr1 = 0U;
 800232c:	2300      	movs	r3, #0
 800232e:	60fb      	str	r3, [r7, #12]
  
  /* Check ADC handle */
  if(hadc == NULL)
 8002330:	687b      	ldr	r3, [r7, #4]
 8002332:	2b00      	cmp	r3, #0
 8002334:	d101      	bne.n	800233a <HAL_ADC_Init+0x22>
  {
    return HAL_ERROR;
 8002336:	2301      	movs	r3, #1
 8002338:	e0be      	b.n	80024b8 <HAL_ADC_Init+0x1a0>
  assert_param(IS_ADC_DATA_ALIGN(hadc->Init.DataAlign));
  assert_param(IS_ADC_SCAN_MODE(hadc->Init.ScanConvMode));
  assert_param(IS_FUNCTIONAL_STATE(hadc->Init.ContinuousConvMode));
  assert_param(IS_ADC_EXTTRIG(hadc->Init.ExternalTrigConv));
  
  if(hadc->Init.ScanConvMode != ADC_SCAN_DISABLE)
 800233a:	687b      	ldr	r3, [r7, #4]
 800233c:	689b      	ldr	r3, [r3, #8]
 800233e:	2b00      	cmp	r3, #0
  /* Refer to header of this file for more details on clock enabling          */
  /* procedure.                                                               */

  /* Actions performed only if ADC is coming from state reset:                */
  /* - Initialization of ADC MSP                                              */
  if (hadc->State == HAL_ADC_STATE_RESET)
 8002340:	687b      	ldr	r3, [r7, #4]
 8002342:	6a9b      	ldr	r3, [r3, #40]	@ 0x28
 8002344:	2b00      	cmp	r3, #0
 8002346:	d109      	bne.n	800235c <HAL_ADC_Init+0x44>
  {
    /* Initialize ADC error code */
    ADC_CLEAR_ERRORCODE(hadc);
 8002348:	687b      	ldr	r3, [r7, #4]
 800234a:	2200      	movs	r2, #0
 800234c:	62da      	str	r2, [r3, #44]	@ 0x2c
    
    /* Allocate lock resource and initialize it */
    hadc->Lock = HAL_UNLOCKED;
 800234e:	687b      	ldr	r3, [r7, #4]
 8002350:	2200      	movs	r2, #0
 8002352:	f883 2024 	strb.w	r2, [r3, #36]	@ 0x24
    
    /* Init the low level hardware */
    hadc->MspInitCallback(hadc);
#else
    /* Init the low level hardware */
    HAL_ADC_MspInit(hadc);
 8002356:	6878      	ldr	r0, [r7, #4]
 8002358:	f7fe fa30 	bl	80007bc <HAL_ADC_MspInit>
  /* Stop potential conversion on going, on regular and injected groups */
  /* Disable ADC peripheral */
  /* Note: In case of ADC already enabled, precaution to not launch an        */
  /*       unwanted conversion while modifying register CR2 by writing 1 to   */
  /*       bit ADON.                                                          */
  tmp_hal_status = ADC_ConversionStop_Disable(hadc);
 800235c:	6878      	ldr	r0, [r7, #4]
 800235e:	f000 fbf1 	bl	8002b44 <ADC_ConversionStop_Disable>
 8002362:	4603      	mov	r3, r0
 8002364:	75fb      	strb	r3, [r7, #23]
  
  
  /* Configuration of ADC parameters if previous preliminary actions are      */ 
  /* correctly completed.                                                     */
  if (HAL_IS_BIT_CLR(hadc->State, HAL_ADC_STATE_ERROR_INTERNAL) &&
 8002366:	687b      	ldr	r3, [r7, #4]
 8002368:	6a9b      	ldr	r3, [r3, #40]	@ 0x28
 800236a:	f003 0310 	and.w	r3, r3, #16
 800236e:	2b00      	cmp	r3, #0
 8002370:	f040 8099 	bne.w	80024a6 <HAL_ADC_Init+0x18e>
 8002374:	7dfb      	ldrb	r3, [r7, #23]
 8002376:	2b00      	cmp	r3, #0
 8002378:	f040 8095 	bne.w	80024a6 <HAL_ADC_Init+0x18e>
      (tmp_hal_status == HAL_OK)                                  )
  {
    /* Set ADC state */
    ADC_STATE_CLR_SET(hadc->State,
 800237c:	687b      	ldr	r3, [r7, #4]
 800237e:	6a9b      	ldr	r3, [r3, #40]	@ 0x28
 8002380:	f423 5388 	bic.w	r3, r3, #4352	@ 0x1100
 8002384:	f023 0302 	bic.w	r3, r3, #2
 8002388:	f043 0202 	orr.w	r2, r3, #2
 800238c:	687b      	ldr	r3, [r7, #4]
 800238e:	629a      	str	r2, [r3, #40]	@ 0x28
    /*  - continuous conversion mode                                          */
    /* Note: External trigger polarity (ADC_CR2_EXTTRIG) is set into          */
    /*       HAL_ADC_Start_xxx functions because if set in this function,     */
    /*       a conversion on injected group would start a conversion also on  */
    /*       regular group after ADC enabling.                                */
    tmp_cr2 |= (hadc->Init.DataAlign                                          |
 8002390:	687b      	ldr	r3, [r7, #4]
 8002392:	685a      	ldr	r2, [r3, #4]
                ADC_CFGR_EXTSEL(hadc, hadc->Init.ExternalTrigConv)            |
 8002394:	687b      	ldr	r3, [r7, #4]
 8002396:	69db      	ldr	r3, [r3, #28]
    tmp_cr2 |= (hadc->Init.DataAlign                                          |
 8002398:	431a      	orrs	r2, r3
                ADC_CR2_CONTINUOUS((uint32_t)hadc->Init.ContinuousConvMode)   );
 800239a:	687b      	ldr	r3, [r7, #4]
 800239c:	7b1b      	ldrb	r3, [r3, #12]
 800239e:	005b      	lsls	r3, r3, #1
                ADC_CFGR_EXTSEL(hadc, hadc->Init.ExternalTrigConv)            |
 80023a0:	4313      	orrs	r3, r2
    tmp_cr2 |= (hadc->Init.DataAlign                                          |
 80023a2:	68ba      	ldr	r2, [r7, #8]
 80023a4:	4313      	orrs	r3, r2
 80023a6:	60bb      	str	r3, [r7, #8]

    /* Configuration of ADC:                                                  */
    /*  - scan mode                                                           */
    /*  - discontinuous mode disable/enable                                   */
    /*  - discontinuous mode number of conversions                            */
    tmp_cr1 |= (ADC_CR1_SCAN_SET(hadc->Init.ScanConvMode));
 80023a8:	687b      	ldr	r3, [r7, #4]
 80023aa:	689b      	ldr	r3, [r3, #8]
 80023ac:	f5b3 7f80 	cmp.w	r3, #256	@ 0x100
 80023b0:	d003      	beq.n	80023ba <HAL_ADC_Init+0xa2>
 80023b2:	687b      	ldr	r3, [r7, #4]
 80023b4:	689b      	ldr	r3, [r3, #8]
 80023b6:	2b01      	cmp	r3, #1
 80023b8:	d102      	bne.n	80023c0 <HAL_ADC_Init+0xa8>
 80023ba:	f44f 7380 	mov.w	r3, #256	@ 0x100
 80023be:	e000      	b.n	80023c2 <HAL_ADC_Init+0xaa>
 80023c0:	2300      	movs	r3, #0
 80023c2:	693a      	ldr	r2, [r7, #16]
 80023c4:	4313      	orrs	r3, r2
 80023c6:	613b      	str	r3, [r7, #16]
    
    /* Enable discontinuous mode only if continuous mode is disabled */
    /* Note: If parameter "Init.ScanConvMode" is set to disable, parameter    */
    /*       discontinuous is set anyway, but will have no effect on ADC HW.  */
    if (hadc->Init.DiscontinuousConvMode == ENABLE)
 80023c8:	687b      	ldr	r3, [r7, #4]
 80023ca:	7d1b      	ldrb	r3, [r3, #20]
 80023cc:	2b01      	cmp	r3, #1
 80023ce:	d119      	bne.n	8002404 <HAL_ADC_Init+0xec>
    {
      if (hadc->Init.ContinuousConvMode == DISABLE)
 80023d0:	687b      	ldr	r3, [r7, #4]
 80023d2:	7b1b      	ldrb	r3, [r3, #12]
 80023d4:	2b00      	cmp	r3, #0
 80023d6:	d109      	bne.n	80023ec <HAL_ADC_Init+0xd4>
      {
        /* Enable the selected ADC regular discontinuous mode */
        /* Set the number of channels to be converted in discontinuous mode */
        SET_BIT(tmp_cr1, ADC_CR1_DISCEN                                            |
 80023d8:	687b      	ldr	r3, [r7, #4]
 80023da:	699b      	ldr	r3, [r3, #24]
 80023dc:	3b01      	subs	r3, #1
 80023de:	035a      	lsls	r2, r3, #13
 80023e0:	693b      	ldr	r3, [r7, #16]
 80023e2:	4313      	orrs	r3, r2
 80023e4:	f443 6300 	orr.w	r3, r3, #2048	@ 0x800
 80023e8:	613b      	str	r3, [r7, #16]
 80023ea:	e00b      	b.n	8002404 <HAL_ADC_Init+0xec>
      {
        /* ADC regular group settings continuous and sequencer discontinuous*/
        /* cannot be enabled simultaneously.                                */
        
        /* Update ADC state machine to error */
        SET_BIT(hadc->State, HAL_ADC_STATE_ERROR_CONFIG);
 80023ec:	687b      	ldr	r3, [r7, #4]
 80023ee:	6a9b      	ldr	r3, [r3, #40]	@ 0x28
 80023f0:	f043 0220 	orr.w	r2, r3, #32
 80023f4:	687b      	ldr	r3, [r7, #4]
 80023f6:	629a      	str	r2, [r3, #40]	@ 0x28
        
        /* Set ADC error code to ADC IP internal error */
        SET_BIT(hadc->ErrorCode, HAL_ADC_ERROR_INTERNAL);
 80023f8:	687b      	ldr	r3, [r7, #4]
 80023fa:	6adb      	ldr	r3, [r3, #44]	@ 0x2c
 80023fc:	f043 0201 	orr.w	r2, r3, #1
 8002400:	687b      	ldr	r3, [r7, #4]
 8002402:	62da      	str	r2, [r3, #44]	@ 0x2c
      }
    }
    
    /* Update ADC configuration register CR1 with previous settings */
      MODIFY_REG(hadc->Instance->CR1,
 8002404:	687b      	ldr	r3, [r7, #4]
 8002406:	681b      	ldr	r3, [r3, #0]
 8002408:	685b      	ldr	r3, [r3, #4]
 800240a:	f423 4169 	bic.w	r1, r3, #59648	@ 0xe900
 800240e:	687b      	ldr	r3, [r7, #4]
 8002410:	681b      	ldr	r3, [r3, #0]
 8002412:	693a      	ldr	r2, [r7, #16]
 8002414:	430a      	orrs	r2, r1
 8002416:	605a      	str	r2, [r3, #4]
                 ADC_CR1_DISCEN  |
                 ADC_CR1_DISCNUM    ,
                 tmp_cr1             );
    
    /* Update ADC configuration register CR2 with previous settings */
      MODIFY_REG(hadc->Instance->CR2,
 8002418:	687b      	ldr	r3, [r7, #4]
 800241a:	681b      	ldr	r3, [r3, #0]
 800241c:	689a      	ldr	r2, [r3, #8]
 800241e:	4b28      	ldr	r3, [pc, #160]	@ (80024c0 <HAL_ADC_Init+0x1a8>)
 8002420:	4013      	ands	r3, r2
 8002422:	687a      	ldr	r2, [r7, #4]
 8002424:	6812      	ldr	r2, [r2, #0]
 8002426:	68b9      	ldr	r1, [r7, #8]
 8002428:	430b      	orrs	r3, r1
 800242a:	6093      	str	r3, [r2, #8]
    /*   Note: Scan mode is present by hardware on this device and, if        */
    /*   disabled, discards automatically nb of conversions. Anyway, nb of    */
    /*   conversions is forced to 0x00 for alignment over all STM32 devices.  */
    /* - if scan mode is enabled, regular channels sequence length is set to  */
    /*   parameter "NbrOfConversion"                                          */
    if (ADC_CR1_SCAN_SET(hadc->Init.ScanConvMode) == ADC_SCAN_ENABLE)
 800242c:	687b      	ldr	r3, [r7, #4]
 800242e:	689b      	ldr	r3, [r3, #8]
 8002430:	f5b3 7f80 	cmp.w	r3, #256	@ 0x100
 8002434:	d003      	beq.n	800243e <HAL_ADC_Init+0x126>
 8002436:	687b      	ldr	r3, [r7, #4]
 8002438:	689b      	ldr	r3, [r3, #8]
 800243a:	2b01      	cmp	r3, #1
 800243c:	d104      	bne.n	8002448 <HAL_ADC_Init+0x130>
    {
      tmp_sqr1 = ADC_SQR1_L_SHIFT(hadc->Init.NbrOfConversion);
 800243e:	687b      	ldr	r3, [r7, #4]
 8002440:	691b      	ldr	r3, [r3, #16]
 8002442:	3b01      	subs	r3, #1
 8002444:	051b      	lsls	r3, r3, #20
 8002446:	60fb      	str	r3, [r7, #12]
    }
      
    MODIFY_REG(hadc->Instance->SQR1,
 8002448:	687b      	ldr	r3, [r7, #4]
 800244a:	681b      	ldr	r3, [r3, #0]
 800244c:	6adb      	ldr	r3, [r3, #44]	@ 0x2c
 800244e:	f423 0170 	bic.w	r1, r3, #15728640	@ 0xf00000
 8002452:	687b      	ldr	r3, [r7, #4]
 8002454:	681b      	ldr	r3, [r3, #0]
 8002456:	68fa      	ldr	r2, [r7, #12]
 8002458:	430a      	orrs	r2, r1
 800245a:	62da      	str	r2, [r3, #44]	@ 0x2c
    /* ensure of no potential problem of ADC core IP clocking.                */
    /* Check through register CR2 (excluding bits set in other functions:     */
    /* execution control bits (ADON, JSWSTART, SWSTART), regular group bits   */
    /* (DMA), injected group bits (JEXTTRIG and JEXTSEL), channel internal    */
    /* measurement path bit (TSVREFE).                                        */
    if (READ_BIT(hadc->Instance->CR2, ~(ADC_CR2_ADON | ADC_CR2_DMA |
 800245c:	687b      	ldr	r3, [r7, #4]
 800245e:	681b      	ldr	r3, [r3, #0]
 8002460:	689a      	ldr	r2, [r3, #8]
 8002462:	4b18      	ldr	r3, [pc, #96]	@ (80024c4 <HAL_ADC_Init+0x1ac>)
 8002464:	4013      	ands	r3, r2
 8002466:	68ba      	ldr	r2, [r7, #8]
 8002468:	429a      	cmp	r2, r3
 800246a:	d10b      	bne.n	8002484 <HAL_ADC_Init+0x16c>
                                        ADC_CR2_JEXTTRIG | ADC_CR2_JEXTSEL |
                                        ADC_CR2_TSVREFE                     ))
         == tmp_cr2)
    {
      /* Set ADC error code to none */
      ADC_CLEAR_ERRORCODE(hadc);
 800246c:	687b      	ldr	r3, [r7, #4]
 800246e:	2200      	movs	r2, #0
 8002470:	62da      	str	r2, [r3, #44]	@ 0x2c
      
      /* Set the ADC state */
      ADC_STATE_CLR_SET(hadc->State,
 8002472:	687b      	ldr	r3, [r7, #4]
 8002474:	6a9b      	ldr	r3, [r3, #40]	@ 0x28
 8002476:	f023 0303 	bic.w	r3, r3, #3
 800247a:	f043 0201 	orr.w	r2, r3, #1
 800247e:	687b      	ldr	r3, [r7, #4]
 8002480:	629a      	str	r2, [r3, #40]	@ 0x28
    if (READ_BIT(hadc->Instance->CR2, ~(ADC_CR2_ADON | ADC_CR2_DMA |
 8002482:	e018      	b.n	80024b6 <HAL_ADC_Init+0x19e>
                        HAL_ADC_STATE_READY);
    }
    else
    {
      /* Update ADC state machine to error */
      ADC_STATE_CLR_SET(hadc->State,
 8002484:	687b      	ldr	r3, [r7, #4]
 8002486:	6a9b      	ldr	r3, [r3, #40]	@ 0x28
 8002488:	f023 0312 	bic.w	r3, r3, #18
 800248c:	f043 0210 	orr.w	r2, r3, #16
 8002490:	687b      	ldr	r3, [r7, #4]
 8002492:	629a      	str	r2, [r3, #40]	@ 0x28
                        HAL_ADC_STATE_BUSY_INTERNAL,
                        HAL_ADC_STATE_ERROR_INTERNAL);
      
      /* Set ADC error code to ADC IP internal error */
      SET_BIT(hadc->ErrorCode, HAL_ADC_ERROR_INTERNAL);
 8002494:	687b      	ldr	r3, [r7, #4]
 8002496:	6adb      	ldr	r3, [r3, #44]	@ 0x2c
 8002498:	f043 0201 	orr.w	r2, r3, #1
 800249c:	687b      	ldr	r3, [r7, #4]
 800249e:	62da      	str	r2, [r3, #44]	@ 0x2c
      
      tmp_hal_status = HAL_ERROR;
 80024a0:	2301      	movs	r3, #1
 80024a2:	75fb      	strb	r3, [r7, #23]
    if (READ_BIT(hadc->Instance->CR2, ~(ADC_CR2_ADON | ADC_CR2_DMA |
 80024a4:	e007      	b.n	80024b6 <HAL_ADC_Init+0x19e>
  
  }
  else
  {
    /* Update ADC state machine to error */
    SET_BIT(hadc->State, HAL_ADC_STATE_ERROR_INTERNAL);
 80024a6:	687b      	ldr	r3, [r7, #4]
 80024a8:	6a9b      	ldr	r3, [r3, #40]	@ 0x28
 80024aa:	f043 0210 	orr.w	r2, r3, #16
 80024ae:	687b      	ldr	r3, [r7, #4]
 80024b0:	629a      	str	r2, [r3, #40]	@ 0x28
        
    tmp_hal_status = HAL_ERROR;
 80024b2:	2301      	movs	r3, #1
 80024b4:	75fb      	strb	r3, [r7, #23]
  }
  
  /* Return function status */
  return tmp_hal_status;
 80024b6:	7dfb      	ldrb	r3, [r7, #23]
}
 80024b8:	4618      	mov	r0, r3
 80024ba:	3718      	adds	r7, #24
 80024bc:	46bd      	mov	sp, r7
 80024be:	bd80      	pop	{r7, pc}
 80024c0:	ffe1f7fd 	.word	0xffe1f7fd
 80024c4:	ff1f0efe 	.word	0xff1f0efe

080024c8 <HAL_ADC_Start>:
  *         Interruptions enabled in this function: None.
  * @param  hadc: ADC handle
  * @retval HAL status
  */
HAL_StatusTypeDef HAL_ADC_Start(ADC_HandleTypeDef* hadc)
{
 80024c8:	b580      	push	{r7, lr}
 80024ca:	b084      	sub	sp, #16
 80024cc:	af00      	add	r7, sp, #0
 80024ce:	6078      	str	r0, [r7, #4]
  HAL_StatusTypeDef tmp_hal_status = HAL_OK;
 80024d0:	2300      	movs	r3, #0
 80024d2:	73fb      	strb	r3, [r7, #15]
  
  /* Check the parameters */
  assert_param(IS_ADC_ALL_INSTANCE(hadc->Instance));
  
  /* Process locked */
  __HAL_LOCK(hadc);
 80024d4:	687b      	ldr	r3, [r7, #4]
 80024d6:	f893 3024 	ldrb.w	r3, [r3, #36]	@ 0x24
 80024da:	2b01      	cmp	r3, #1
 80024dc:	d101      	bne.n	80024e2 <HAL_ADC_Start+0x1a>
 80024de:	2302      	movs	r3, #2
 80024e0:	e098      	b.n	8002614 <HAL_ADC_Start+0x14c>
 80024e2:	687b      	ldr	r3, [r7, #4]
 80024e4:	2201      	movs	r2, #1
 80024e6:	f883 2024 	strb.w	r2, [r3, #36]	@ 0x24
   
  /* Enable the ADC peripheral */
  tmp_hal_status = ADC_Enable(hadc);
 80024ea:	6878      	ldr	r0, [r7, #4]
 80024ec:	f000 fad0 	bl	8002a90 <ADC_Enable>
 80024f0:	4603      	mov	r3, r0
 80024f2:	73fb      	strb	r3, [r7, #15]
  
  /* Start conversion if ADC is effectively enabled */
  if (tmp_hal_status == HAL_OK)
 80024f4:	7bfb      	ldrb	r3, [r7, #15]
 80024f6:	2b00      	cmp	r3, #0
 80024f8:	f040 8087 	bne.w	800260a <HAL_ADC_Start+0x142>
  {
    /* Set ADC state                                                          */
    /* - Clear state bitfield related to regular group conversion results     */
    /* - Set state bitfield related to regular operation                      */
    ADC_STATE_CLR_SET(hadc->State,
 80024fc:	687b      	ldr	r3, [r7, #4]
 80024fe:	6a9b      	ldr	r3, [r3, #40]	@ 0x28
 8002500:	f423 7340 	bic.w	r3, r3, #768	@ 0x300
 8002504:	f023 0301 	bic.w	r3, r3, #1
 8002508:	f443 7280 	orr.w	r2, r3, #256	@ 0x100
 800250c:	687b      	ldr	r3, [r7, #4]
 800250e:	629a      	str	r2, [r3, #40]	@ 0x28
                      HAL_ADC_STATE_REG_BUSY);
    
    /* Set group injected state (from auto-injection) and multimode state     */
    /* for all cases of multimode: independent mode, multimode ADC master     */
    /* or multimode ADC slave (for devices with several ADCs):                */
    if (ADC_NONMULTIMODE_OR_MULTIMODEMASTER(hadc))
 8002510:	687b      	ldr	r3, [r7, #4]
 8002512:	681b      	ldr	r3, [r3, #0]
 8002514:	4a41      	ldr	r2, [pc, #260]	@ (800261c <HAL_ADC_Start+0x154>)
 8002516:	4293      	cmp	r3, r2
 8002518:	d105      	bne.n	8002526 <HAL_ADC_Start+0x5e>
 800251a:	4b41      	ldr	r3, [pc, #260]	@ (8002620 <HAL_ADC_Start+0x158>)
 800251c:	685b      	ldr	r3, [r3, #4]
 800251e:	f403 2370 	and.w	r3, r3, #983040	@ 0xf0000
 8002522:	2b00      	cmp	r3, #0
 8002524:	d115      	bne.n	8002552 <HAL_ADC_Start+0x8a>
    {
      /* Set ADC state (ADC independent or master) */
      CLEAR_BIT(hadc->State, HAL_ADC_STATE_MULTIMODE_SLAVE);
 8002526:	687b      	ldr	r3, [r7, #4]
 8002528:	6a9b      	ldr	r3, [r3, #40]	@ 0x28
 800252a:	f423 1280 	bic.w	r2, r3, #1048576	@ 0x100000
 800252e:	687b      	ldr	r3, [r7, #4]
 8002530:	629a      	str	r2, [r3, #40]	@ 0x28
      
      /* If conversions on group regular are also triggering group injected,  */
      /* update ADC state.                                                    */
      if (READ_BIT(hadc->Instance->CR1, ADC_CR1_JAUTO) != RESET)
 8002532:	687b      	ldr	r3, [r7, #4]
 8002534:	681b      	ldr	r3, [r3, #0]
 8002536:	685b      	ldr	r3, [r3, #4]
 8002538:	f403 6380 	and.w	r3, r3, #1024	@ 0x400
 800253c:	2b00      	cmp	r3, #0
 800253e:	d026      	beq.n	800258e <HAL_ADC_Start+0xc6>
      {
        ADC_STATE_CLR_SET(hadc->State, HAL_ADC_STATE_INJ_EOC, HAL_ADC_STATE_INJ_BUSY);  
 8002540:	687b      	ldr	r3, [r7, #4]
 8002542:	6a9b      	ldr	r3, [r3, #40]	@ 0x28
 8002544:	f423 5340 	bic.w	r3, r3, #12288	@ 0x3000
 8002548:	f443 5280 	orr.w	r2, r3, #4096	@ 0x1000
 800254c:	687b      	ldr	r3, [r7, #4]
 800254e:	629a      	str	r2, [r3, #40]	@ 0x28
      if (READ_BIT(hadc->Instance->CR1, ADC_CR1_JAUTO) != RESET)
 8002550:	e01d      	b.n	800258e <HAL_ADC_Start+0xc6>
      }
    }
    else
    {
      /* Set ADC state (ADC slave) */
      SET_BIT(hadc->State, HAL_ADC_STATE_MULTIMODE_SLAVE);
 8002552:	687b      	ldr	r3, [r7, #4]
 8002554:	6a9b      	ldr	r3, [r3, #40]	@ 0x28
 8002556:	f443 1280 	orr.w	r2, r3, #1048576	@ 0x100000
 800255a:	687b      	ldr	r3, [r7, #4]
 800255c:	629a      	str	r2, [r3, #40]	@ 0x28
      
      /* If conversions on group regular are also triggering group injected,  */
      /* update ADC state.                                                    */
      if (ADC_MULTIMODE_AUTO_INJECTED(hadc))
 800255e:	687b      	ldr	r3, [r7, #4]
 8002560:	681b      	ldr	r3, [r3, #0]
 8002562:	4a2f      	ldr	r2, [pc, #188]	@ (8002620 <HAL_ADC_Start+0x158>)
 8002564:	4293      	cmp	r3, r2
 8002566:	d004      	beq.n	8002572 <HAL_ADC_Start+0xaa>
 8002568:	687b      	ldr	r3, [r7, #4]
 800256a:	681b      	ldr	r3, [r3, #0]
 800256c:	4a2b      	ldr	r2, [pc, #172]	@ (800261c <HAL_ADC_Start+0x154>)
 800256e:	4293      	cmp	r3, r2
 8002570:	d10d      	bne.n	800258e <HAL_ADC_Start+0xc6>
 8002572:	4b2b      	ldr	r3, [pc, #172]	@ (8002620 <HAL_ADC_Start+0x158>)
 8002574:	685b      	ldr	r3, [r3, #4]
 8002576:	f403 6380 	and.w	r3, r3, #1024	@ 0x400
 800257a:	2b00      	cmp	r3, #0
 800257c:	d007      	beq.n	800258e <HAL_ADC_Start+0xc6>
      {
        ADC_STATE_CLR_SET(hadc->State, HAL_ADC_STATE_INJ_EOC, HAL_ADC_STATE_INJ_BUSY);
 800257e:	687b      	ldr	r3, [r7, #4]
 8002580:	6a9b      	ldr	r3, [r3, #40]	@ 0x28
 8002582:	f423 5340 	bic.w	r3, r3, #12288	@ 0x3000
 8002586:	f443 5280 	orr.w	r2, r3, #4096	@ 0x1000
 800258a:	687b      	ldr	r3, [r7, #4]
 800258c:	629a      	str	r2, [r3, #40]	@ 0x28
      }
    }
    
    /* State machine update: Check if an injected conversion is ongoing */
    if (HAL_IS_BIT_SET(hadc->State, HAL_ADC_STATE_INJ_BUSY))
 800258e:	687b      	ldr	r3, [r7, #4]
 8002590:	6a9b      	ldr	r3, [r3, #40]	@ 0x28
 8002592:	f403 5380 	and.w	r3, r3, #4096	@ 0x1000
 8002596:	2b00      	cmp	r3, #0
 8002598:	d006      	beq.n	80025a8 <HAL_ADC_Start+0xe0>
    {
      /* Reset ADC error code fields related to conversions on group regular */
      CLEAR_BIT(hadc->ErrorCode, (HAL_ADC_ERROR_OVR | HAL_ADC_ERROR_DMA));         
 800259a:	687b      	ldr	r3, [r7, #4]
 800259c:	6adb      	ldr	r3, [r3, #44]	@ 0x2c
 800259e:	f023 0206 	bic.w	r2, r3, #6
 80025a2:	687b      	ldr	r3, [r7, #4]
 80025a4:	62da      	str	r2, [r3, #44]	@ 0x2c
 80025a6:	e002      	b.n	80025ae <HAL_ADC_Start+0xe6>
    }
    else
    {
      /* Reset ADC all error code fields */
      ADC_CLEAR_ERRORCODE(hadc);
 80025a8:	687b      	ldr	r3, [r7, #4]
 80025aa:	2200      	movs	r2, #0
 80025ac:	62da      	str	r2, [r3, #44]	@ 0x2c
    }
    
    /* Process unlocked */
    /* Unlock before starting ADC conversions: in case of potential           */
    /* interruption, to let the process to ADC IRQ Handler.                   */
    __HAL_UNLOCK(hadc);
 80025ae:	687b      	ldr	r3, [r7, #4]
 80025b0:	2200      	movs	r2, #0
 80025b2:	f883 2024 	strb.w	r2, [r3, #36]	@ 0x24
  
    /* Clear regular group conversion flag */
    /* (To ensure of no unknown state from potential previous ADC operations) */
    __HAL_ADC_CLEAR_FLAG(hadc, ADC_FLAG_EOC);
 80025b6:	687b      	ldr	r3, [r7, #4]
 80025b8:	681b      	ldr	r3, [r3, #0]
 80025ba:	f06f 0202 	mvn.w	r2, #2
 80025be:	601a      	str	r2, [r3, #0]
    /*  - if ADC is slave, ADC is enabled only (conversion is not started).   */
    /*  - if ADC is master, ADC is enabled and conversion is started.         */
    /* If ADC is master, ADC is enabled and conversion is started.            */
    /* Note: Alternate trigger for single conversion could be to force an     */
    /*       additional set of bit ADON "hadc->Instance->CR2 |= ADC_CR2_ADON;"*/
    if (ADC_IS_SOFTWARE_START_REGULAR(hadc)      &&
 80025c0:	687b      	ldr	r3, [r7, #4]
 80025c2:	681b      	ldr	r3, [r3, #0]
 80025c4:	689b      	ldr	r3, [r3, #8]
 80025c6:	f403 2360 	and.w	r3, r3, #917504	@ 0xe0000
 80025ca:	f5b3 2f60 	cmp.w	r3, #917504	@ 0xe0000
 80025ce:	d113      	bne.n	80025f8 <HAL_ADC_Start+0x130>
        ADC_NONMULTIMODE_OR_MULTIMODEMASTER(hadc)  )
 80025d0:	687b      	ldr	r3, [r7, #4]
 80025d2:	681b      	ldr	r3, [r3, #0]
    if (ADC_IS_SOFTWARE_START_REGULAR(hadc)      &&
 80025d4:	4a11      	ldr	r2, [pc, #68]	@ (800261c <HAL_ADC_Start+0x154>)
 80025d6:	4293      	cmp	r3, r2
 80025d8:	d105      	bne.n	80025e6 <HAL_ADC_Start+0x11e>
        ADC_NONMULTIMODE_OR_MULTIMODEMASTER(hadc)  )
 80025da:	4b11      	ldr	r3, [pc, #68]	@ (8002620 <HAL_ADC_Start+0x158>)
 80025dc:	685b      	ldr	r3, [r3, #4]
 80025de:	f403 2370 	and.w	r3, r3, #983040	@ 0xf0000
    if (ADC_IS_SOFTWARE_START_REGULAR(hadc)      &&
 80025e2:	2b00      	cmp	r3, #0
 80025e4:	d108      	bne.n	80025f8 <HAL_ADC_Start+0x130>
    {
      /* Start ADC conversion on regular group with SW start */
      SET_BIT(hadc->Instance->CR2, (ADC_CR2_SWSTART | ADC_CR2_EXTTRIG));
 80025e6:	687b      	ldr	r3, [r7, #4]
 80025e8:	681b      	ldr	r3, [r3, #0]
 80025ea:	689a      	ldr	r2, [r3, #8]
 80025ec:	687b      	ldr	r3, [r7, #4]
 80025ee:	681b      	ldr	r3, [r3, #0]
 80025f0:	f442 02a0 	orr.w	r2, r2, #5242880	@ 0x500000
 80025f4:	609a      	str	r2, [r3, #8]
 80025f6:	e00c      	b.n	8002612 <HAL_ADC_Start+0x14a>
    }
    else
    {
      /* Start ADC conversion on regular group with external trigger */
      SET_BIT(hadc->Instance->CR2, ADC_CR2_EXTTRIG);
 80025f8:	687b      	ldr	r3, [r7, #4]
 80025fa:	681b      	ldr	r3, [r3, #0]
 80025fc:	689a      	ldr	r2, [r3, #8]
 80025fe:	687b      	ldr	r3, [r7, #4]
 8002600:	681b      	ldr	r3, [r3, #0]
 8002602:	f442 1280 	orr.w	r2, r2, #1048576	@ 0x100000
 8002606:	609a      	str	r2, [r3, #8]
 8002608:	e003      	b.n	8002612 <HAL_ADC_Start+0x14a>
    }
  }
  else
  {
    /* Process unlocked */
    __HAL_UNLOCK(hadc);
 800260a:	687b      	ldr	r3, [r7, #4]
 800260c:	2200      	movs	r2, #0
 800260e:	f883 2024 	strb.w	r2, [r3, #36]	@ 0x24
  }
    
  /* Return function status */
  return tmp_hal_status;
 8002612:	7bfb      	ldrb	r3, [r7, #15]
}
 8002614:	4618      	mov	r0, r3
 8002616:	3710      	adds	r7, #16
 8002618:	46bd      	mov	sp, r7
 800261a:	bd80      	pop	{r7, pc}
 800261c:	40012800 	.word	0x40012800
 8002620:	40012400 	.word	0x40012400

08002624 <HAL_ADC_Stop>:
  *         should be preliminarily stopped using HAL_ADCEx_InjectedStop function.
  * @param  hadc: ADC handle
  * @retval HAL status.
  */
HAL_StatusTypeDef HAL_ADC_Stop(ADC_HandleTypeDef* hadc)
{
 8002624:	b580      	push	{r7, lr}
 8002626:	b084      	sub	sp, #16
 8002628:	af00      	add	r7, sp, #0
 800262a:	6078      	str	r0, [r7, #4]
  HAL_StatusTypeDef tmp_hal_status = HAL_OK;
 800262c:	2300      	movs	r3, #0
 800262e:	73fb      	strb	r3, [r7, #15]
  
  /* Check the parameters */
  assert_param(IS_ADC_ALL_INSTANCE(hadc->Instance));
     
  /* Process locked */
  __HAL_LOCK(hadc);
 8002630:	687b      	ldr	r3, [r7, #4]
 8002632:	f893 3024 	ldrb.w	r3, [r3, #36]	@ 0x24
 8002636:	2b01      	cmp	r3, #1
 8002638:	d101      	bne.n	800263e <HAL_ADC_Stop+0x1a>
 800263a:	2302      	movs	r3, #2
 800263c:	e01a      	b.n	8002674 <HAL_ADC_Stop+0x50>
 800263e:	687b      	ldr	r3, [r7, #4]
 8002640:	2201      	movs	r2, #1
 8002642:	f883 2024 	strb.w	r2, [r3, #36]	@ 0x24
  
  /* Stop potential conversion on going, on regular and injected groups */
  /* Disable ADC peripheral */
  tmp_hal_status = ADC_ConversionStop_Disable(hadc);
 8002646:	6878      	ldr	r0, [r7, #4]
 8002648:	f000 fa7c 	bl	8002b44 <ADC_ConversionStop_Disable>
 800264c:	4603      	mov	r3, r0
 800264e:	73fb      	strb	r3, [r7, #15]
  
  /* Check if ADC is effectively disabled */
  if (tmp_hal_status == HAL_OK)
 8002650:	7bfb      	ldrb	r3, [r7, #15]
 8002652:	2b00      	cmp	r3, #0
 8002654:	d109      	bne.n	800266a <HAL_ADC_Stop+0x46>
  {
    /* Set ADC state */
    ADC_STATE_CLR_SET(hadc->State,
 8002656:	687b      	ldr	r3, [r7, #4]
 8002658:	6a9b      	ldr	r3, [r3, #40]	@ 0x28
 800265a:	f423 5388 	bic.w	r3, r3, #4352	@ 0x1100
 800265e:	f023 0301 	bic.w	r3, r3, #1
 8002662:	f043 0201 	orr.w	r2, r3, #1
 8002666:	687b      	ldr	r3, [r7, #4]
 8002668:	629a      	str	r2, [r3, #40]	@ 0x28
                      HAL_ADC_STATE_REG_BUSY | HAL_ADC_STATE_INJ_BUSY,
                      HAL_ADC_STATE_READY);
  }
  
  /* Process unlocked */
  __HAL_UNLOCK(hadc);
 800266a:	687b      	ldr	r3, [r7, #4]
 800266c:	2200      	movs	r2, #0
 800266e:	f883 2024 	strb.w	r2, [r3, #36]	@ 0x24
  
  /* Return function status */
  return tmp_hal_status;
 8002672:	7bfb      	ldrb	r3, [r7, #15]
}
 8002674:	4618      	mov	r0, r3
 8002676:	3710      	adds	r7, #16
 8002678:	46bd      	mov	sp, r7
 800267a:	bd80      	pop	{r7, pc}

0800267c <HAL_ADC_PollForConversion>:
  * @param  hadc: ADC handle
  * @param  Timeout: Timeout value in millisecond.
  * @retval HAL status
  */
HAL_StatusTypeDef HAL_ADC_PollForConversion(ADC_HandleTypeDef* hadc, uint32_t Timeout)
{
 800267c:	b590      	push	{r4, r7, lr}
 800267e:	b087      	sub	sp, #28
 8002680:	af00      	add	r7, sp, #0
 8002682:	6078      	str	r0, [r7, #4]
 8002684:	6039      	str	r1, [r7, #0]
  uint32_t tickstart = 0U;
 8002686:	2300      	movs	r3, #0
 8002688:	617b      	str	r3, [r7, #20]
  
  /* Variables for polling in case of scan mode enabled and polling for each  */
  /* conversion.                                                              */
  __IO uint32_t Conversion_Timeout_CPU_cycles = 0U;
 800268a:	2300      	movs	r3, #0
 800268c:	60fb      	str	r3, [r7, #12]
  uint32_t Conversion_Timeout_CPU_cycles_max = 0U;
 800268e:	2300      	movs	r3, #0
 8002690:	613b      	str	r3, [r7, #16]
 
  /* Check the parameters */
  assert_param(IS_ADC_ALL_INSTANCE(hadc->Instance));
  
  /* Get tick count */
  tickstart = HAL_GetTick();
 8002692:	f7ff fe13 	bl	80022bc <HAL_GetTick>
 8002696:	6178      	str	r0, [r7, #20]
  
  /* Verification that ADC configuration is compliant with polling for        */
  /* each conversion:                                                         */
  /* Particular case is ADC configured in DMA mode                            */
  if (HAL_IS_BIT_SET(hadc->Instance->CR2, ADC_CR2_DMA))
 8002698:	687b      	ldr	r3, [r7, #4]
 800269a:	681b      	ldr	r3, [r3, #0]
 800269c:	689b      	ldr	r3, [r3, #8]
 800269e:	f403 7380 	and.w	r3, r3, #256	@ 0x100
 80026a2:	2b00      	cmp	r3, #0
 80026a4:	d00b      	beq.n	80026be <HAL_ADC_PollForConversion+0x42>
  {
    /* Update ADC state machine to error */
    SET_BIT(hadc->State, HAL_ADC_STATE_ERROR_CONFIG);
 80026a6:	687b      	ldr	r3, [r7, #4]
 80026a8:	6a9b      	ldr	r3, [r3, #40]	@ 0x28
 80026aa:	f043 0220 	orr.w	r2, r3, #32
 80026ae:	687b      	ldr	r3, [r7, #4]
 80026b0:	629a      	str	r2, [r3, #40]	@ 0x28
    
    /* Process unlocked */
    __HAL_UNLOCK(hadc);
 80026b2:	687b      	ldr	r3, [r7, #4]
 80026b4:	2200      	movs	r2, #0
 80026b6:	f883 2024 	strb.w	r2, [r3, #36]	@ 0x24
    
    return HAL_ERROR;
 80026ba:	2301      	movs	r3, #1
 80026bc:	e0d3      	b.n	8002866 <HAL_ADC_PollForConversion+0x1ea>
  /*    from ADC conversion time (selected sampling time + conversion time of */
  /*    12.5 ADC clock cycles) and APB2/ADC clock prescalers (depending on    */
  /*    settings, conversion time range can be from 28 to 32256 CPU cycles).  */
  /*    As flag EOC is not set after each conversion, no timeout status can   */
  /*    be set.                                                               */
  if (HAL_IS_BIT_CLR(hadc->Instance->CR1, ADC_CR1_SCAN) &&
 80026be:	687b      	ldr	r3, [r7, #4]
 80026c0:	681b      	ldr	r3, [r3, #0]
 80026c2:	685b      	ldr	r3, [r3, #4]
 80026c4:	f403 7380 	and.w	r3, r3, #256	@ 0x100
 80026c8:	2b00      	cmp	r3, #0
 80026ca:	d131      	bne.n	8002730 <HAL_ADC_PollForConversion+0xb4>
      HAL_IS_BIT_CLR(hadc->Instance->SQR1, ADC_SQR1_L)    )
 80026cc:	687b      	ldr	r3, [r7, #4]
 80026ce:	681b      	ldr	r3, [r3, #0]
 80026d0:	6adb      	ldr	r3, [r3, #44]	@ 0x2c
 80026d2:	f403 0370 	and.w	r3, r3, #15728640	@ 0xf00000
  if (HAL_IS_BIT_CLR(hadc->Instance->CR1, ADC_CR1_SCAN) &&
 80026d6:	2b00      	cmp	r3, #0
 80026d8:	d12a      	bne.n	8002730 <HAL_ADC_PollForConversion+0xb4>
  {
    /* Wait until End of Conversion flag is raised */
    while(HAL_IS_BIT_CLR(hadc->Instance->SR, ADC_FLAG_EOC))
 80026da:	e021      	b.n	8002720 <HAL_ADC_PollForConversion+0xa4>
    {
      /* Check if timeout is disabled (set to infinite wait) */
      if(Timeout != HAL_MAX_DELAY)
 80026dc:	683b      	ldr	r3, [r7, #0]
 80026de:	f1b3 3fff 	cmp.w	r3, #4294967295
 80026e2:	d01d      	beq.n	8002720 <HAL_ADC_PollForConversion+0xa4>
      {
        if((Timeout == 0U) || ((HAL_GetTick() - tickstart ) > Timeout))
 80026e4:	683b      	ldr	r3, [r7, #0]
 80026e6:	2b00      	cmp	r3, #0
 80026e8:	d007      	beq.n	80026fa <HAL_ADC_PollForConversion+0x7e>
 80026ea:	f7ff fde7 	bl	80022bc <HAL_GetTick>
 80026ee:	4602      	mov	r2, r0
 80026f0:	697b      	ldr	r3, [r7, #20]
 80026f2:	1ad3      	subs	r3, r2, r3
 80026f4:	683a      	ldr	r2, [r7, #0]
 80026f6:	429a      	cmp	r2, r3
 80026f8:	d212      	bcs.n	8002720 <HAL_ADC_PollForConversion+0xa4>
        {
          /* New check to avoid false timeout detection in case of preemption */
          if(HAL_IS_BIT_CLR(hadc->Instance->SR, ADC_FLAG_EOC))
 80026fa:	687b      	ldr	r3, [r7, #4]
 80026fc:	681b      	ldr	r3, [r3, #0]
 80026fe:	681b      	ldr	r3, [r3, #0]
 8002700:	f003 0302 	and.w	r3, r3, #2
 8002704:	2b00      	cmp	r3, #0
 8002706:	d10b      	bne.n	8002720 <HAL_ADC_PollForConversion+0xa4>
          {
            /* Update ADC state machine to timeout */
            SET_BIT(hadc->State, HAL_ADC_STATE_TIMEOUT);
 8002708:	687b      	ldr	r3, [r7, #4]
 800270a:	6a9b      	ldr	r3, [r3, #40]	@ 0x28
 800270c:	f043 0204 	orr.w	r2, r3, #4
 8002710:	687b      	ldr	r3, [r7, #4]
 8002712:	629a      	str	r2, [r3, #40]	@ 0x28
            
            /* Process unlocked */
            __HAL_UNLOCK(hadc);
 8002714:	687b      	ldr	r3, [r7, #4]
 8002716:	2200      	movs	r2, #0
 8002718:	f883 2024 	strb.w	r2, [r3, #36]	@ 0x24
            
            return HAL_TIMEOUT;
 800271c:	2303      	movs	r3, #3
 800271e:	e0a2      	b.n	8002866 <HAL_ADC_PollForConversion+0x1ea>
    while(HAL_IS_BIT_CLR(hadc->Instance->SR, ADC_FLAG_EOC))
 8002720:	687b      	ldr	r3, [r7, #4]
 8002722:	681b      	ldr	r3, [r3, #0]
 8002724:	681b      	ldr	r3, [r3, #0]
 8002726:	f003 0302 	and.w	r3, r3, #2
 800272a:	2b00      	cmp	r3, #0
 800272c:	d0d6      	beq.n	80026dc <HAL_ADC_PollForConversion+0x60>
  if (HAL_IS_BIT_CLR(hadc->Instance->CR1, ADC_CR1_SCAN) &&
 800272e:	e070      	b.n	8002812 <HAL_ADC_PollForConversion+0x196>
    /* Replace polling by wait for maximum conversion time */
    /*  - Computation of CPU clock cycles corresponding to ADC clock cycles   */
    /*    and ADC maximum conversion cycles on all channels.                  */
    /*  - Wait for the expected ADC clock cycles delay                        */
    Conversion_Timeout_CPU_cycles_max = ((SystemCoreClock
                                          / HAL_RCCEx_GetPeriphCLKFreq(RCC_PERIPHCLK_ADC))
 8002730:	4b4f      	ldr	r3, [pc, #316]	@ (8002870 <HAL_ADC_PollForConversion+0x1f4>)
 8002732:	681c      	ldr	r4, [r3, #0]
 8002734:	2002      	movs	r0, #2
 8002736:	f001 fa75 	bl	8003c24 <HAL_RCCEx_GetPeriphCLKFreq>
 800273a:	4603      	mov	r3, r0
 800273c:	fbb4 f2f3 	udiv	r2, r4, r3
                                         * ADC_CONVCYCLES_MAX_RANGE(hadc)                 );
 8002740:	687b      	ldr	r3, [r7, #4]
 8002742:	681b      	ldr	r3, [r3, #0]
 8002744:	6919      	ldr	r1, [r3, #16]
 8002746:	4b4b      	ldr	r3, [pc, #300]	@ (8002874 <HAL_ADC_PollForConversion+0x1f8>)
 8002748:	400b      	ands	r3, r1
 800274a:	2b00      	cmp	r3, #0
 800274c:	d118      	bne.n	8002780 <HAL_ADC_PollForConversion+0x104>
 800274e:	687b      	ldr	r3, [r7, #4]
 8002750:	681b      	ldr	r3, [r3, #0]
 8002752:	68d9      	ldr	r1, [r3, #12]
 8002754:	4b48      	ldr	r3, [pc, #288]	@ (8002878 <HAL_ADC_PollForConversion+0x1fc>)
 8002756:	400b      	ands	r3, r1
 8002758:	2b00      	cmp	r3, #0
 800275a:	d111      	bne.n	8002780 <HAL_ADC_PollForConversion+0x104>
 800275c:	687b      	ldr	r3, [r7, #4]
 800275e:	681b      	ldr	r3, [r3, #0]
 8002760:	6919      	ldr	r1, [r3, #16]
 8002762:	4b46      	ldr	r3, [pc, #280]	@ (800287c <HAL_ADC_PollForConversion+0x200>)
 8002764:	400b      	ands	r3, r1
 8002766:	2b00      	cmp	r3, #0
 8002768:	d108      	bne.n	800277c <HAL_ADC_PollForConversion+0x100>
 800276a:	687b      	ldr	r3, [r7, #4]
 800276c:	681b      	ldr	r3, [r3, #0]
 800276e:	68d9      	ldr	r1, [r3, #12]
 8002770:	4b43      	ldr	r3, [pc, #268]	@ (8002880 <HAL_ADC_PollForConversion+0x204>)
 8002772:	400b      	ands	r3, r1
 8002774:	2b00      	cmp	r3, #0
 8002776:	d101      	bne.n	800277c <HAL_ADC_PollForConversion+0x100>
 8002778:	2314      	movs	r3, #20
 800277a:	e020      	b.n	80027be <HAL_ADC_PollForConversion+0x142>
 800277c:	2329      	movs	r3, #41	@ 0x29
 800277e:	e01e      	b.n	80027be <HAL_ADC_PollForConversion+0x142>
 8002780:	687b      	ldr	r3, [r7, #4]
 8002782:	681b      	ldr	r3, [r3, #0]
 8002784:	6919      	ldr	r1, [r3, #16]
 8002786:	4b3d      	ldr	r3, [pc, #244]	@ (800287c <HAL_ADC_PollForConversion+0x200>)
 8002788:	400b      	ands	r3, r1
 800278a:	2b00      	cmp	r3, #0
 800278c:	d106      	bne.n	800279c <HAL_ADC_PollForConversion+0x120>
 800278e:	687b      	ldr	r3, [r7, #4]
 8002790:	681b      	ldr	r3, [r3, #0]
 8002792:	68d9      	ldr	r1, [r3, #12]
 8002794:	4b3a      	ldr	r3, [pc, #232]	@ (8002880 <HAL_ADC_PollForConversion+0x204>)
 8002796:	400b      	ands	r3, r1
 8002798:	2b00      	cmp	r3, #0
 800279a:	d00d      	beq.n	80027b8 <HAL_ADC_PollForConversion+0x13c>
 800279c:	687b      	ldr	r3, [r7, #4]
 800279e:	681b      	ldr	r3, [r3, #0]
 80027a0:	6919      	ldr	r1, [r3, #16]
 80027a2:	4b38      	ldr	r3, [pc, #224]	@ (8002884 <HAL_ADC_PollForConversion+0x208>)
 80027a4:	400b      	ands	r3, r1
 80027a6:	2b00      	cmp	r3, #0
 80027a8:	d108      	bne.n	80027bc <HAL_ADC_PollForConversion+0x140>
 80027aa:	687b      	ldr	r3, [r7, #4]
 80027ac:	681b      	ldr	r3, [r3, #0]
 80027ae:	68d9      	ldr	r1, [r3, #12]
 80027b0:	4b34      	ldr	r3, [pc, #208]	@ (8002884 <HAL_ADC_PollForConversion+0x208>)
 80027b2:	400b      	ands	r3, r1
 80027b4:	2b00      	cmp	r3, #0
 80027b6:	d101      	bne.n	80027bc <HAL_ADC_PollForConversion+0x140>
 80027b8:	2354      	movs	r3, #84	@ 0x54
 80027ba:	e000      	b.n	80027be <HAL_ADC_PollForConversion+0x142>
 80027bc:	23fc      	movs	r3, #252	@ 0xfc
    Conversion_Timeout_CPU_cycles_max = ((SystemCoreClock
 80027be:	fb02 f303 	mul.w	r3, r2, r3
 80027c2:	613b      	str	r3, [r7, #16]
    
    while(Conversion_Timeout_CPU_cycles < Conversion_Timeout_CPU_cycles_max)
 80027c4:	e021      	b.n	800280a <HAL_ADC_PollForConversion+0x18e>
    {
      /* Check if timeout is disabled (set to infinite wait) */
      if(Timeout != HAL_MAX_DELAY)
 80027c6:	683b      	ldr	r3, [r7, #0]
 80027c8:	f1b3 3fff 	cmp.w	r3, #4294967295
 80027cc:	d01a      	beq.n	8002804 <HAL_ADC_PollForConversion+0x188>
      {
        if((Timeout == 0U) || ((HAL_GetTick() - tickstart) > Timeout))
 80027ce:	683b      	ldr	r3, [r7, #0]
 80027d0:	2b00      	cmp	r3, #0
 80027d2:	d007      	beq.n	80027e4 <HAL_ADC_PollForConversion+0x168>
 80027d4:	f7ff fd72 	bl	80022bc <HAL_GetTick>
 80027d8:	4602      	mov	r2, r0
 80027da:	697b      	ldr	r3, [r7, #20]
 80027dc:	1ad3      	subs	r3, r2, r3
 80027de:	683a      	ldr	r2, [r7, #0]
 80027e0:	429a      	cmp	r2, r3
 80027e2:	d20f      	bcs.n	8002804 <HAL_ADC_PollForConversion+0x188>
        {
          /* New check to avoid false timeout detection in case of preemption */
          if(Conversion_Timeout_CPU_cycles < Conversion_Timeout_CPU_cycles_max)
 80027e4:	68fb      	ldr	r3, [r7, #12]
 80027e6:	693a      	ldr	r2, [r7, #16]
 80027e8:	429a      	cmp	r2, r3
 80027ea:	d90b      	bls.n	8002804 <HAL_ADC_PollForConversion+0x188>
          {
            /* Update ADC state machine to timeout */
            SET_BIT(hadc->State, HAL_ADC_STATE_TIMEOUT);
 80027ec:	687b      	ldr	r3, [r7, #4]
 80027ee:	6a9b      	ldr	r3, [r3, #40]	@ 0x28
 80027f0:	f043 0204 	orr.w	r2, r3, #4
 80027f4:	687b      	ldr	r3, [r7, #4]
 80027f6:	629a      	str	r2, [r3, #40]	@ 0x28

            /* Process unlocked */
            __HAL_UNLOCK(hadc);
 80027f8:	687b      	ldr	r3, [r7, #4]
 80027fa:	2200      	movs	r2, #0
 80027fc:	f883 2024 	strb.w	r2, [r3, #36]	@ 0x24

            return HAL_TIMEOUT;
 8002800:	2303      	movs	r3, #3
 8002802:	e030      	b.n	8002866 <HAL_ADC_PollForConversion+0x1ea>
          }
        }
      }
      Conversion_Timeout_CPU_cycles ++;
 8002804:	68fb      	ldr	r3, [r7, #12]
 8002806:	3301      	adds	r3, #1
 8002808:	60fb      	str	r3, [r7, #12]
    while(Conversion_Timeout_CPU_cycles < Conversion_Timeout_CPU_cycles_max)
 800280a:	68fb      	ldr	r3, [r7, #12]
 800280c:	693a      	ldr	r2, [r7, #16]
 800280e:	429a      	cmp	r2, r3
 8002810:	d8d9      	bhi.n	80027c6 <HAL_ADC_PollForConversion+0x14a>
    }
  }
  
  /* Clear regular group conversion flag */
  __HAL_ADC_CLEAR_FLAG(hadc, ADC_FLAG_STRT | ADC_FLAG_EOC);
 8002812:	687b      	ldr	r3, [r7, #4]
 8002814:	681b      	ldr	r3, [r3, #0]
 8002816:	f06f 0212 	mvn.w	r2, #18
 800281a:	601a      	str	r2, [r3, #0]
  
  /* Update ADC state machine */
  SET_BIT(hadc->State, HAL_ADC_STATE_REG_EOC);
 800281c:	687b      	ldr	r3, [r7, #4]
 800281e:	6a9b      	ldr	r3, [r3, #40]	@ 0x28
 8002820:	f443 7200 	orr.w	r2, r3, #512	@ 0x200
 8002824:	687b      	ldr	r3, [r7, #4]
 8002826:	629a      	str	r2, [r3, #40]	@ 0x28
  /* Determine whether any further conversion upcoming on group regular       */
  /* by external trigger, continuous mode or scan sequence on going.          */
  /* Note: On STM32F1 devices, in case of sequencer enabled                   */
  /*       (several ranks selected), end of conversion flag is raised         */
  /*       at the end of the sequence.                                        */
  if(ADC_IS_SOFTWARE_START_REGULAR(hadc)        && 
 8002828:	687b      	ldr	r3, [r7, #4]
 800282a:	681b      	ldr	r3, [r3, #0]
 800282c:	689b      	ldr	r3, [r3, #8]
 800282e:	f403 2360 	and.w	r3, r3, #917504	@ 0xe0000
 8002832:	f5b3 2f60 	cmp.w	r3, #917504	@ 0xe0000
 8002836:	d115      	bne.n	8002864 <HAL_ADC_PollForConversion+0x1e8>
     (hadc->Init.ContinuousConvMode == DISABLE)   )
 8002838:	687b      	ldr	r3, [r7, #4]
 800283a:	7b1b      	ldrb	r3, [r3, #12]
  if(ADC_IS_SOFTWARE_START_REGULAR(hadc)        && 
 800283c:	2b00      	cmp	r3, #0
 800283e:	d111      	bne.n	8002864 <HAL_ADC_PollForConversion+0x1e8>
  {   
    /* Set ADC state */
    CLEAR_BIT(hadc->State, HAL_ADC_STATE_REG_BUSY);   
 8002840:	687b      	ldr	r3, [r7, #4]
 8002842:	6a9b      	ldr	r3, [r3, #40]	@ 0x28
 8002844:	f423 7280 	bic.w	r2, r3, #256	@ 0x100
 8002848:	687b      	ldr	r3, [r7, #4]
 800284a:	629a      	str	r2, [r3, #40]	@ 0x28

    if (HAL_IS_BIT_CLR(hadc->State, HAL_ADC_STATE_INJ_BUSY))
 800284c:	687b      	ldr	r3, [r7, #4]
 800284e:	6a9b      	ldr	r3, [r3, #40]	@ 0x28
 8002850:	f403 5380 	and.w	r3, r3, #4096	@ 0x1000
 8002854:	2b00      	cmp	r3, #0
 8002856:	d105      	bne.n	8002864 <HAL_ADC_PollForConversion+0x1e8>
    { 
      SET_BIT(hadc->State, HAL_ADC_STATE_READY);
 8002858:	687b      	ldr	r3, [r7, #4]
 800285a:	6a9b      	ldr	r3, [r3, #40]	@ 0x28
 800285c:	f043 0201 	orr.w	r2, r3, #1
 8002860:	687b      	ldr	r3, [r7, #4]
 8002862:	629a      	str	r2, [r3, #40]	@ 0x28
    }
  }
  
  /* Return ADC state */
  return HAL_OK;
 8002864:	2300      	movs	r3, #0
}
 8002866:	4618      	mov	r0, r3
 8002868:	371c      	adds	r7, #28
 800286a:	46bd      	mov	sp, r7
 800286c:	bd90      	pop	{r4, r7, pc}
 800286e:	bf00      	nop
 8002870:	20000000 	.word	0x20000000
 8002874:	24924924 	.word	0x24924924
 8002878:	00924924 	.word	0x00924924
 800287c:	12492492 	.word	0x12492492
 8002880:	00492492 	.word	0x00492492
 8002884:	00249249 	.word	0x00249249

08002888 <HAL_ADC_GetValue>:
  *         or @ref __HAL_ADC_CLEAR_FLAG(&hadc, ADC_FLAG_EOS).
  * @param  hadc: ADC handle
  * @retval ADC group regular conversion data
  */
uint32_t HAL_ADC_GetValue(ADC_HandleTypeDef* hadc)
{
 8002888:	b480      	push	{r7}
 800288a:	b083      	sub	sp, #12
 800288c:	af00      	add	r7, sp, #0
 800288e:	6078      	str	r0, [r7, #4]

  /* Note: EOC flag is not cleared here by software because automatically     */
  /*       cleared by hardware when reading register DR.                      */
  
  /* Return ADC converted value */ 
  return hadc->Instance->DR;
 8002890:	687b      	ldr	r3, [r7, #4]
 8002892:	681b      	ldr	r3, [r3, #0]
 8002894:	6cdb      	ldr	r3, [r3, #76]	@ 0x4c
}
 8002896:	4618      	mov	r0, r3
 8002898:	370c      	adds	r7, #12
 800289a:	46bd      	mov	sp, r7
 800289c:	bc80      	pop	{r7}
 800289e:	4770      	bx	lr

080028a0 <HAL_ADC_ConfigChannel>:
  * @param  hadc: ADC handle
  * @param  sConfig: Structure of ADC channel for regular group.
  * @retval HAL status
  */
HAL_StatusTypeDef HAL_ADC_ConfigChannel(ADC_HandleTypeDef* hadc, ADC_ChannelConfTypeDef* sConfig)
{ 
 80028a0:	b480      	push	{r7}
 80028a2:	b085      	sub	sp, #20
 80028a4:	af00      	add	r7, sp, #0
 80028a6:	6078      	str	r0, [r7, #4]
 80028a8:	6039      	str	r1, [r7, #0]
  HAL_StatusTypeDef tmp_hal_status = HAL_OK;
 80028aa:	2300      	movs	r3, #0
 80028ac:	73fb      	strb	r3, [r7, #15]
  __IO uint32_t wait_loop_index = 0U;
 80028ae:	2300      	movs	r3, #0
 80028b0:	60bb      	str	r3, [r7, #8]
  assert_param(IS_ADC_CHANNEL(sConfig->Channel));
  assert_param(IS_ADC_REGULAR_RANK(sConfig->Rank));
  assert_param(IS_ADC_SAMPLE_TIME(sConfig->SamplingTime));
  
  /* Process locked */
  __HAL_LOCK(hadc);
 80028b2:	687b      	ldr	r3, [r7, #4]
 80028b4:	f893 3024 	ldrb.w	r3, [r3, #36]	@ 0x24
 80028b8:	2b01      	cmp	r3, #1
 80028ba:	d101      	bne.n	80028c0 <HAL_ADC_ConfigChannel+0x20>
 80028bc:	2302      	movs	r3, #2
 80028be:	e0dc      	b.n	8002a7a <HAL_ADC_ConfigChannel+0x1da>
 80028c0:	687b      	ldr	r3, [r7, #4]
 80028c2:	2201      	movs	r2, #1
 80028c4:	f883 2024 	strb.w	r2, [r3, #36]	@ 0x24
  
  
  /* Regular sequence configuration */
  /* For Rank 1 to 6 */
  if (sConfig->Rank < 7U)
 80028c8:	683b      	ldr	r3, [r7, #0]
 80028ca:	685b      	ldr	r3, [r3, #4]
 80028cc:	2b06      	cmp	r3, #6
 80028ce:	d81c      	bhi.n	800290a <HAL_ADC_ConfigChannel+0x6a>
  {
    MODIFY_REG(hadc->Instance->SQR3                        ,
 80028d0:	687b      	ldr	r3, [r7, #4]
 80028d2:	681b      	ldr	r3, [r3, #0]
 80028d4:	6b59      	ldr	r1, [r3, #52]	@ 0x34
 80028d6:	683b      	ldr	r3, [r7, #0]
 80028d8:	685a      	ldr	r2, [r3, #4]
 80028da:	4613      	mov	r3, r2
 80028dc:	009b      	lsls	r3, r3, #2
 80028de:	4413      	add	r3, r2
 80028e0:	3b05      	subs	r3, #5
 80028e2:	221f      	movs	r2, #31
 80028e4:	fa02 f303 	lsl.w	r3, r2, r3
 80028e8:	43db      	mvns	r3, r3
 80028ea:	4019      	ands	r1, r3
 80028ec:	683b      	ldr	r3, [r7, #0]
 80028ee:	6818      	ldr	r0, [r3, #0]
 80028f0:	683b      	ldr	r3, [r7, #0]
 80028f2:	685a      	ldr	r2, [r3, #4]
 80028f4:	4613      	mov	r3, r2
 80028f6:	009b      	lsls	r3, r3, #2
 80028f8:	4413      	add	r3, r2
 80028fa:	3b05      	subs	r3, #5
 80028fc:	fa00 f203 	lsl.w	r2, r0, r3
 8002900:	687b      	ldr	r3, [r7, #4]
 8002902:	681b      	ldr	r3, [r3, #0]
 8002904:	430a      	orrs	r2, r1
 8002906:	635a      	str	r2, [r3, #52]	@ 0x34
 8002908:	e03c      	b.n	8002984 <HAL_ADC_ConfigChannel+0xe4>
               ADC_SQR3_RK(ADC_SQR3_SQ1, sConfig->Rank)    ,
               ADC_SQR3_RK(sConfig->Channel, sConfig->Rank) );
  }
  /* For Rank 7 to 12 */
  else if (sConfig->Rank < 13U)
 800290a:	683b      	ldr	r3, [r7, #0]
 800290c:	685b      	ldr	r3, [r3, #4]
 800290e:	2b0c      	cmp	r3, #12
 8002910:	d81c      	bhi.n	800294c <HAL_ADC_ConfigChannel+0xac>
  {
    MODIFY_REG(hadc->Instance->SQR2                        ,
 8002912:	687b      	ldr	r3, [r7, #4]
 8002914:	681b      	ldr	r3, [r3, #0]
 8002916:	6b19      	ldr	r1, [r3, #48]	@ 0x30
 8002918:	683b      	ldr	r3, [r7, #0]
 800291a:	685a      	ldr	r2, [r3, #4]
 800291c:	4613      	mov	r3, r2
 800291e:	009b      	lsls	r3, r3, #2
 8002920:	4413      	add	r3, r2
 8002922:	3b23      	subs	r3, #35	@ 0x23
 8002924:	221f      	movs	r2, #31
 8002926:	fa02 f303 	lsl.w	r3, r2, r3
 800292a:	43db      	mvns	r3, r3
 800292c:	4019      	ands	r1, r3
 800292e:	683b      	ldr	r3, [r7, #0]
 8002930:	6818      	ldr	r0, [r3, #0]
 8002932:	683b      	ldr	r3, [r7, #0]
 8002934:	685a      	ldr	r2, [r3, #4]
 8002936:	4613      	mov	r3, r2
 8002938:	009b      	lsls	r3, r3, #2
 800293a:	4413      	add	r3, r2
 800293c:	3b23      	subs	r3, #35	@ 0x23
 800293e:	fa00 f203 	lsl.w	r2, r0, r3
 8002942:	687b      	ldr	r3, [r7, #4]
 8002944:	681b      	ldr	r3, [r3, #0]
 8002946:	430a      	orrs	r2, r1
 8002948:	631a      	str	r2, [r3, #48]	@ 0x30
 800294a:	e01b      	b.n	8002984 <HAL_ADC_ConfigChannel+0xe4>
               ADC_SQR2_RK(sConfig->Channel, sConfig->Rank) );
  }
  /* For Rank 13 to 16 */
  else
  {
    MODIFY_REG(hadc->Instance->SQR1                        ,
 800294c:	687b      	ldr	r3, [r7, #4]
 800294e:	681b      	ldr	r3, [r3, #0]
 8002950:	6ad9      	ldr	r1, [r3, #44]	@ 0x2c
 8002952:	683b      	ldr	r3, [r7, #0]
 8002954:	685a      	ldr	r2, [r3, #4]
 8002956:	4613      	mov	r3, r2
 8002958:	009b      	lsls	r3, r3, #2
 800295a:	4413      	add	r3, r2
 800295c:	3b41      	subs	r3, #65	@ 0x41
 800295e:	221f      	movs	r2, #31
 8002960:	fa02 f303 	lsl.w	r3, r2, r3
 8002964:	43db      	mvns	r3, r3
 8002966:	4019      	ands	r1, r3
 8002968:	683b      	ldr	r3, [r7, #0]
 800296a:	6818      	ldr	r0, [r3, #0]
 800296c:	683b      	ldr	r3, [r7, #0]
 800296e:	685a      	ldr	r2, [r3, #4]
 8002970:	4613      	mov	r3, r2
 8002972:	009b      	lsls	r3, r3, #2
 8002974:	4413      	add	r3, r2
 8002976:	3b41      	subs	r3, #65	@ 0x41
 8002978:	fa00 f203 	lsl.w	r2, r0, r3
 800297c:	687b      	ldr	r3, [r7, #4]
 800297e:	681b      	ldr	r3, [r3, #0]
 8002980:	430a      	orrs	r2, r1
 8002982:	62da      	str	r2, [r3, #44]	@ 0x2c
  }
  
  
  /* Channel sampling time configuration */
  /* For channels 10 to 17 */
  if (sConfig->Channel >= ADC_CHANNEL_10)
 8002984:	683b      	ldr	r3, [r7, #0]
 8002986:	681b      	ldr	r3, [r3, #0]
 8002988:	2b09      	cmp	r3, #9
 800298a:	d91c      	bls.n	80029c6 <HAL_ADC_ConfigChannel+0x126>
  {
    MODIFY_REG(hadc->Instance->SMPR1                             ,
 800298c:	687b      	ldr	r3, [r7, #4]
 800298e:	681b      	ldr	r3, [r3, #0]
 8002990:	68d9      	ldr	r1, [r3, #12]
 8002992:	683b      	ldr	r3, [r7, #0]
 8002994:	681a      	ldr	r2, [r3, #0]
 8002996:	4613      	mov	r3, r2
 8002998:	005b      	lsls	r3, r3, #1
 800299a:	4413      	add	r3, r2
 800299c:	3b1e      	subs	r3, #30
 800299e:	2207      	movs	r2, #7
 80029a0:	fa02 f303 	lsl.w	r3, r2, r3
 80029a4:	43db      	mvns	r3, r3
 80029a6:	4019      	ands	r1, r3
 80029a8:	683b      	ldr	r3, [r7, #0]
 80029aa:	6898      	ldr	r0, [r3, #8]
 80029ac:	683b      	ldr	r3, [r7, #0]
 80029ae:	681a      	ldr	r2, [r3, #0]
 80029b0:	4613      	mov	r3, r2
 80029b2:	005b      	lsls	r3, r3, #1
 80029b4:	4413      	add	r3, r2
 80029b6:	3b1e      	subs	r3, #30
 80029b8:	fa00 f203 	lsl.w	r2, r0, r3
 80029bc:	687b      	ldr	r3, [r7, #4]
 80029be:	681b      	ldr	r3, [r3, #0]
 80029c0:	430a      	orrs	r2, r1
 80029c2:	60da      	str	r2, [r3, #12]
 80029c4:	e019      	b.n	80029fa <HAL_ADC_ConfigChannel+0x15a>
               ADC_SMPR1(ADC_SMPR1_SMP10, sConfig->Channel)      ,
               ADC_SMPR1(sConfig->SamplingTime, sConfig->Channel) );
  }
  else /* For channels 0 to 9 */
  {
    MODIFY_REG(hadc->Instance->SMPR2                             ,
 80029c6:	687b      	ldr	r3, [r7, #4]
 80029c8:	681b      	ldr	r3, [r3, #0]
 80029ca:	6919      	ldr	r1, [r3, #16]
 80029cc:	683b      	ldr	r3, [r7, #0]
 80029ce:	681a      	ldr	r2, [r3, #0]
 80029d0:	4613      	mov	r3, r2
 80029d2:	005b      	lsls	r3, r3, #1
 80029d4:	4413      	add	r3, r2
 80029d6:	2207      	movs	r2, #7
 80029d8:	fa02 f303 	lsl.w	r3, r2, r3
 80029dc:	43db      	mvns	r3, r3
 80029de:	4019      	ands	r1, r3
 80029e0:	683b      	ldr	r3, [r7, #0]
 80029e2:	6898      	ldr	r0, [r3, #8]
 80029e4:	683b      	ldr	r3, [r7, #0]
 80029e6:	681a      	ldr	r2, [r3, #0]
 80029e8:	4613      	mov	r3, r2
 80029ea:	005b      	lsls	r3, r3, #1
 80029ec:	4413      	add	r3, r2
 80029ee:	fa00 f203 	lsl.w	r2, r0, r3
 80029f2:	687b      	ldr	r3, [r7, #4]
 80029f4:	681b      	ldr	r3, [r3, #0]
 80029f6:	430a      	orrs	r2, r1
 80029f8:	611a      	str	r2, [r3, #16]
               ADC_SMPR2(sConfig->SamplingTime, sConfig->Channel) );
  }
  
  /* If ADC1 Channel_16 or Channel_17 is selected, enable Temperature sensor  */
  /* and VREFINT measurement path.                                            */
  if ((sConfig->Channel == ADC_CHANNEL_TEMPSENSOR) ||
 80029fa:	683b      	ldr	r3, [r7, #0]
 80029fc:	681b      	ldr	r3, [r3, #0]
 80029fe:	2b10      	cmp	r3, #16
 8002a00:	d003      	beq.n	8002a0a <HAL_ADC_ConfigChannel+0x16a>
      (sConfig->Channel == ADC_CHANNEL_VREFINT)      )
 8002a02:	683b      	ldr	r3, [r7, #0]
 8002a04:	681b      	ldr	r3, [r3, #0]
  if ((sConfig->Channel == ADC_CHANNEL_TEMPSENSOR) ||
 8002a06:	2b11      	cmp	r3, #17
 8002a08:	d132      	bne.n	8002a70 <HAL_ADC_ConfigChannel+0x1d0>
  {
    /* For STM32F1 devices with several ADC: Only ADC1 can access internal    */
    /* measurement channels (VrefInt/TempSensor). If these channels are       */
    /* intended to be set on other ADC instances, an error is reported.       */
    if (hadc->Instance == ADC1)
 8002a0a:	687b      	ldr	r3, [r7, #4]
 8002a0c:	681b      	ldr	r3, [r3, #0]
 8002a0e:	4a1d      	ldr	r2, [pc, #116]	@ (8002a84 <HAL_ADC_ConfigChannel+0x1e4>)
 8002a10:	4293      	cmp	r3, r2
 8002a12:	d125      	bne.n	8002a60 <HAL_ADC_ConfigChannel+0x1c0>
    {
      if (READ_BIT(hadc->Instance->CR2, ADC_CR2_TSVREFE) == RESET)
 8002a14:	687b      	ldr	r3, [r7, #4]
 8002a16:	681b      	ldr	r3, [r3, #0]
 8002a18:	689b      	ldr	r3, [r3, #8]
 8002a1a:	f403 0300 	and.w	r3, r3, #8388608	@ 0x800000
 8002a1e:	2b00      	cmp	r3, #0
 8002a20:	d126      	bne.n	8002a70 <HAL_ADC_ConfigChannel+0x1d0>
      {
        SET_BIT(hadc->Instance->CR2, ADC_CR2_TSVREFE);
 8002a22:	687b      	ldr	r3, [r7, #4]
 8002a24:	681b      	ldr	r3, [r3, #0]
 8002a26:	689a      	ldr	r2, [r3, #8]
 8002a28:	687b      	ldr	r3, [r7, #4]
 8002a2a:	681b      	ldr	r3, [r3, #0]
 8002a2c:	f442 0200 	orr.w	r2, r2, #8388608	@ 0x800000
 8002a30:	609a      	str	r2, [r3, #8]
        
        if (sConfig->Channel == ADC_CHANNEL_TEMPSENSOR)
 8002a32:	683b      	ldr	r3, [r7, #0]
 8002a34:	681b      	ldr	r3, [r3, #0]
 8002a36:	2b10      	cmp	r3, #16
 8002a38:	d11a      	bne.n	8002a70 <HAL_ADC_ConfigChannel+0x1d0>
        {
          /* Delay for temperature sensor stabilization time */
          /* Compute number of CPU cycles to wait for */
          wait_loop_index = (ADC_TEMPSENSOR_DELAY_US * (SystemCoreClock / 1000000U));
 8002a3a:	4b13      	ldr	r3, [pc, #76]	@ (8002a88 <HAL_ADC_ConfigChannel+0x1e8>)
 8002a3c:	681b      	ldr	r3, [r3, #0]
 8002a3e:	4a13      	ldr	r2, [pc, #76]	@ (8002a8c <HAL_ADC_ConfigChannel+0x1ec>)
 8002a40:	fba2 2303 	umull	r2, r3, r2, r3
 8002a44:	0c9a      	lsrs	r2, r3, #18
 8002a46:	4613      	mov	r3, r2
 8002a48:	009b      	lsls	r3, r3, #2
 8002a4a:	4413      	add	r3, r2
 8002a4c:	005b      	lsls	r3, r3, #1
 8002a4e:	60bb      	str	r3, [r7, #8]
          while(wait_loop_index != 0U)
 8002a50:	e002      	b.n	8002a58 <HAL_ADC_ConfigChannel+0x1b8>
          {
            wait_loop_index--;
 8002a52:	68bb      	ldr	r3, [r7, #8]
 8002a54:	3b01      	subs	r3, #1
 8002a56:	60bb      	str	r3, [r7, #8]
          while(wait_loop_index != 0U)
 8002a58:	68bb      	ldr	r3, [r7, #8]
 8002a5a:	2b00      	cmp	r3, #0
 8002a5c:	d1f9      	bne.n	8002a52 <HAL_ADC_ConfigChannel+0x1b2>
 8002a5e:	e007      	b.n	8002a70 <HAL_ADC_ConfigChannel+0x1d0>
      }
    }
    else
    {
      /* Update ADC state machine to error */
      SET_BIT(hadc->State, HAL_ADC_STATE_ERROR_CONFIG);
 8002a60:	687b      	ldr	r3, [r7, #4]
 8002a62:	6a9b      	ldr	r3, [r3, #40]	@ 0x28
 8002a64:	f043 0220 	orr.w	r2, r3, #32
 8002a68:	687b      	ldr	r3, [r7, #4]
 8002a6a:	629a      	str	r2, [r3, #40]	@ 0x28
      
      tmp_hal_status = HAL_ERROR;
 8002a6c:	2301      	movs	r3, #1
 8002a6e:	73fb      	strb	r3, [r7, #15]
    }
  }
  
  /* Process unlocked */
  __HAL_UNLOCK(hadc);
 8002a70:	687b      	ldr	r3, [r7, #4]
 8002a72:	2200      	movs	r2, #0
 8002a74:	f883 2024 	strb.w	r2, [r3, #36]	@ 0x24
  
  /* Return function status */
  return tmp_hal_status;
 8002a78:	7bfb      	ldrb	r3, [r7, #15]
}
 8002a7a:	4618      	mov	r0, r3
 8002a7c:	3714      	adds	r7, #20
 8002a7e:	46bd      	mov	sp, r7
 8002a80:	bc80      	pop	{r7}
 8002a82:	4770      	bx	lr
 8002a84:	40012400 	.word	0x40012400
 8002a88:	20000000 	.word	0x20000000
 8002a8c:	431bde83 	.word	0x431bde83

08002a90 <ADC_Enable>:
  *         and voltage regulator must be enabled (done into HAL_ADC_Init()).
  * @param  hadc: ADC handle
  * @retval HAL status.
  */
HAL_StatusTypeDef ADC_Enable(ADC_HandleTypeDef* hadc)
{
 8002a90:	b580      	push	{r7, lr}
 8002a92:	b084      	sub	sp, #16
 8002a94:	af00      	add	r7, sp, #0
 8002a96:	6078      	str	r0, [r7, #4]
  uint32_t tickstart = 0U;
 8002a98:	2300      	movs	r3, #0
 8002a9a:	60fb      	str	r3, [r7, #12]
  __IO uint32_t wait_loop_index = 0U;
 8002a9c:	2300      	movs	r3, #0
 8002a9e:	60bb      	str	r3, [r7, #8]
  
  /* ADC enable and wait for ADC ready (in case of ADC is disabled or         */
  /* enabling phase not yet completed: flag ADC ready not yet set).           */
  /* Timeout implemented to not be stuck if ADC cannot be enabled (possible   */
  /* causes: ADC clock not running, ...).                                     */
  if (ADC_IS_ENABLE(hadc) == RESET)
 8002aa0:	687b      	ldr	r3, [r7, #4]
 8002aa2:	681b      	ldr	r3, [r3, #0]
 8002aa4:	689b      	ldr	r3, [r3, #8]
 8002aa6:	f003 0301 	and.w	r3, r3, #1
 8002aaa:	2b01      	cmp	r3, #1
 8002aac:	d040      	beq.n	8002b30 <ADC_Enable+0xa0>
  {
    /* Enable the Peripheral */
    __HAL_ADC_ENABLE(hadc);
 8002aae:	687b      	ldr	r3, [r7, #4]
 8002ab0:	681b      	ldr	r3, [r3, #0]
 8002ab2:	689a      	ldr	r2, [r3, #8]
 8002ab4:	687b      	ldr	r3, [r7, #4]
 8002ab6:	681b      	ldr	r3, [r3, #0]
 8002ab8:	f042 0201 	orr.w	r2, r2, #1
 8002abc:	609a      	str	r2, [r3, #8]
    
    /* Delay for ADC stabilization time */
    /* Compute number of CPU cycles to wait for */
    wait_loop_index = (ADC_STAB_DELAY_US * (SystemCoreClock / 1000000U));
 8002abe:	4b1f      	ldr	r3, [pc, #124]	@ (8002b3c <ADC_Enable+0xac>)
 8002ac0:	681b      	ldr	r3, [r3, #0]
 8002ac2:	4a1f      	ldr	r2, [pc, #124]	@ (8002b40 <ADC_Enable+0xb0>)
 8002ac4:	fba2 2303 	umull	r2, r3, r2, r3
 8002ac8:	0c9b      	lsrs	r3, r3, #18
 8002aca:	60bb      	str	r3, [r7, #8]
    while(wait_loop_index != 0U)
 8002acc:	e002      	b.n	8002ad4 <ADC_Enable+0x44>
    {
      wait_loop_index--;
 8002ace:	68bb      	ldr	r3, [r7, #8]
 8002ad0:	3b01      	subs	r3, #1
 8002ad2:	60bb      	str	r3, [r7, #8]
    while(wait_loop_index != 0U)
 8002ad4:	68bb      	ldr	r3, [r7, #8]
 8002ad6:	2b00      	cmp	r3, #0
 8002ad8:	d1f9      	bne.n	8002ace <ADC_Enable+0x3e>
    }
    
    /* Get tick count */
    tickstart = HAL_GetTick();
 8002ada:	f7ff fbef 	bl	80022bc <HAL_GetTick>
 8002ade:	60f8      	str	r0, [r7, #12]

    /* Wait for ADC effectively enabled */
    while(ADC_IS_ENABLE(hadc) == RESET)
 8002ae0:	e01f      	b.n	8002b22 <ADC_Enable+0x92>
    {
      if((HAL_GetTick() - tickstart) > ADC_ENABLE_TIMEOUT)
 8002ae2:	f7ff fbeb 	bl	80022bc <HAL_GetTick>
 8002ae6:	4602      	mov	r2, r0
 8002ae8:	68fb      	ldr	r3, [r7, #12]
 8002aea:	1ad3      	subs	r3, r2, r3
 8002aec:	2b02      	cmp	r3, #2
 8002aee:	d918      	bls.n	8002b22 <ADC_Enable+0x92>
      {
        /* New check to avoid false timeout detection in case of preemption */
        if(ADC_IS_ENABLE(hadc) == RESET)
 8002af0:	687b      	ldr	r3, [r7, #4]
 8002af2:	681b      	ldr	r3, [r3, #0]
 8002af4:	689b      	ldr	r3, [r3, #8]
 8002af6:	f003 0301 	and.w	r3, r3, #1
 8002afa:	2b01      	cmp	r3, #1
 8002afc:	d011      	beq.n	8002b22 <ADC_Enable+0x92>
        {
          /* Update ADC state machine to error */
          SET_BIT(hadc->State, HAL_ADC_STATE_ERROR_INTERNAL);
 8002afe:	687b      	ldr	r3, [r7, #4]
 8002b00:	6a9b      	ldr	r3, [r3, #40]	@ 0x28
 8002b02:	f043 0210 	orr.w	r2, r3, #16
 8002b06:	687b      	ldr	r3, [r7, #4]
 8002b08:	629a      	str	r2, [r3, #40]	@ 0x28

          /* Set ADC error code to ADC IP internal error */
          SET_BIT(hadc->ErrorCode, HAL_ADC_ERROR_INTERNAL);
 8002b0a:	687b      	ldr	r3, [r7, #4]
 8002b0c:	6adb      	ldr	r3, [r3, #44]	@ 0x2c
 8002b0e:	f043 0201 	orr.w	r2, r3, #1
 8002b12:	687b      	ldr	r3, [r7, #4]
 8002b14:	62da      	str	r2, [r3, #44]	@ 0x2c

          /* Process unlocked */
          __HAL_UNLOCK(hadc);
 8002b16:	687b      	ldr	r3, [r7, #4]
 8002b18:	2200      	movs	r2, #0
 8002b1a:	f883 2024 	strb.w	r2, [r3, #36]	@ 0x24

          return HAL_ERROR;
 8002b1e:	2301      	movs	r3, #1
 8002b20:	e007      	b.n	8002b32 <ADC_Enable+0xa2>
    while(ADC_IS_ENABLE(hadc) == RESET)
 8002b22:	687b      	ldr	r3, [r7, #4]
 8002b24:	681b      	ldr	r3, [r3, #0]
 8002b26:	689b      	ldr	r3, [r3, #8]
 8002b28:	f003 0301 	and.w	r3, r3, #1
 8002b2c:	2b01      	cmp	r3, #1
 8002b2e:	d1d8      	bne.n	8002ae2 <ADC_Enable+0x52>
      }
    }
  }
   
  /* Return HAL status */
  return HAL_OK;
 8002b30:	2300      	movs	r3, #0
}
 8002b32:	4618      	mov	r0, r3
 8002b34:	3710      	adds	r7, #16
 8002b36:	46bd      	mov	sp, r7
 8002b38:	bd80      	pop	{r7, pc}
 8002b3a:	bf00      	nop
 8002b3c:	20000000 	.word	0x20000000
 8002b40:	431bde83 	.word	0x431bde83

08002b44 <ADC_ConversionStop_Disable>:
  *         stopped to disable the ADC.
  * @param  hadc: ADC handle
  * @retval HAL status.
  */
HAL_StatusTypeDef ADC_ConversionStop_Disable(ADC_HandleTypeDef* hadc)
{
 8002b44:	b580      	push	{r7, lr}
 8002b46:	b084      	sub	sp, #16
 8002b48:	af00      	add	r7, sp, #0
 8002b4a:	6078      	str	r0, [r7, #4]
  uint32_t tickstart = 0U;
 8002b4c:	2300      	movs	r3, #0
 8002b4e:	60fb      	str	r3, [r7, #12]
  
  /* Verification if ADC is not already disabled */
  if (ADC_IS_ENABLE(hadc) != RESET)
 8002b50:	687b      	ldr	r3, [r7, #4]
 8002b52:	681b      	ldr	r3, [r3, #0]
 8002b54:	689b      	ldr	r3, [r3, #8]
 8002b56:	f003 0301 	and.w	r3, r3, #1
 8002b5a:	2b01      	cmp	r3, #1
 8002b5c:	d12e      	bne.n	8002bbc <ADC_ConversionStop_Disable+0x78>
  {
    /* Disable the ADC peripheral */
    __HAL_ADC_DISABLE(hadc);
 8002b5e:	687b      	ldr	r3, [r7, #4]
 8002b60:	681b      	ldr	r3, [r3, #0]
 8002b62:	689a      	ldr	r2, [r3, #8]
 8002b64:	687b      	ldr	r3, [r7, #4]
 8002b66:	681b      	ldr	r3, [r3, #0]
 8002b68:	f022 0201 	bic.w	r2, r2, #1
 8002b6c:	609a      	str	r2, [r3, #8]
     
    /* Get tick count */
    tickstart = HAL_GetTick();
 8002b6e:	f7ff fba5 	bl	80022bc <HAL_GetTick>
 8002b72:	60f8      	str	r0, [r7, #12]
    
    /* Wait for ADC effectively disabled */
    while(ADC_IS_ENABLE(hadc) != RESET)
 8002b74:	e01b      	b.n	8002bae <ADC_ConversionStop_Disable+0x6a>
    {
      if((HAL_GetTick() - tickstart) > ADC_DISABLE_TIMEOUT)
 8002b76:	f7ff fba1 	bl	80022bc <HAL_GetTick>
 8002b7a:	4602      	mov	r2, r0
 8002b7c:	68fb      	ldr	r3, [r7, #12]
 8002b7e:	1ad3      	subs	r3, r2, r3
 8002b80:	2b02      	cmp	r3, #2
 8002b82:	d914      	bls.n	8002bae <ADC_ConversionStop_Disable+0x6a>
      {
        /* New check to avoid false timeout detection in case of preemption */
        if(ADC_IS_ENABLE(hadc) != RESET)
 8002b84:	687b      	ldr	r3, [r7, #4]
 8002b86:	681b      	ldr	r3, [r3, #0]
 8002b88:	689b      	ldr	r3, [r3, #8]
 8002b8a:	f003 0301 	and.w	r3, r3, #1
 8002b8e:	2b01      	cmp	r3, #1
 8002b90:	d10d      	bne.n	8002bae <ADC_ConversionStop_Disable+0x6a>
        {
          /* Update ADC state machine to error */
          SET_BIT(hadc->State, HAL_ADC_STATE_ERROR_INTERNAL);
 8002b92:	687b      	ldr	r3, [r7, #4]
 8002b94:	6a9b      	ldr	r3, [r3, #40]	@ 0x28
 8002b96:	f043 0210 	orr.w	r2, r3, #16
 8002b9a:	687b      	ldr	r3, [r7, #4]
 8002b9c:	629a      	str	r2, [r3, #40]	@ 0x28

          /* Set ADC error code to ADC IP internal error */
          SET_BIT(hadc->ErrorCode, HAL_ADC_ERROR_INTERNAL);
 8002b9e:	687b      	ldr	r3, [r7, #4]
 8002ba0:	6adb      	ldr	r3, [r3, #44]	@ 0x2c
 8002ba2:	f043 0201 	orr.w	r2, r3, #1
 8002ba6:	687b      	ldr	r3, [r7, #4]
 8002ba8:	62da      	str	r2, [r3, #44]	@ 0x2c

          return HAL_ERROR;
 8002baa:	2301      	movs	r3, #1
 8002bac:	e007      	b.n	8002bbe <ADC_ConversionStop_Disable+0x7a>
    while(ADC_IS_ENABLE(hadc) != RESET)
 8002bae:	687b      	ldr	r3, [r7, #4]
 8002bb0:	681b      	ldr	r3, [r3, #0]
 8002bb2:	689b      	ldr	r3, [r3, #8]
 8002bb4:	f003 0301 	and.w	r3, r3, #1
 8002bb8:	2b01      	cmp	r3, #1
 8002bba:	d0dc      	beq.n	8002b76 <ADC_ConversionStop_Disable+0x32>
      }
    }
  }
  
  /* Return HAL status */
  return HAL_OK;
 8002bbc:	2300      	movs	r3, #0
}
 8002bbe:	4618      	mov	r0, r3
 8002bc0:	3710      	adds	r7, #16
 8002bc2:	46bd      	mov	sp, r7
 8002bc4:	bd80      	pop	{r7, pc}
	...

08002bc8 <HAL_ADCEx_Calibration_Start>:
  *         the completion of this function.
  * @param  hadc: ADC handle
  * @retval HAL status
  */
HAL_StatusTypeDef HAL_ADCEx_Calibration_Start(ADC_HandleTypeDef* hadc)
{
 8002bc8:	b590      	push	{r4, r7, lr}
 8002bca:	b087      	sub	sp, #28
 8002bcc:	af00      	add	r7, sp, #0
 8002bce:	6078      	str	r0, [r7, #4]
  HAL_StatusTypeDef tmp_hal_status = HAL_OK;
 8002bd0:	2300      	movs	r3, #0
 8002bd2:	75fb      	strb	r3, [r7, #23]
  uint32_t tickstart;
  __IO uint32_t wait_loop_index = 0U;
 8002bd4:	2300      	movs	r3, #0
 8002bd6:	60fb      	str	r3, [r7, #12]
  
  /* Check the parameters */
  assert_param(IS_ADC_ALL_INSTANCE(hadc->Instance));

  /* Process locked */
  __HAL_LOCK(hadc);
 8002bd8:	687b      	ldr	r3, [r7, #4]
 8002bda:	f893 3024 	ldrb.w	r3, [r3, #36]	@ 0x24
 8002bde:	2b01      	cmp	r3, #1
 8002be0:	d101      	bne.n	8002be6 <HAL_ADCEx_Calibration_Start+0x1e>
 8002be2:	2302      	movs	r3, #2
 8002be4:	e097      	b.n	8002d16 <HAL_ADCEx_Calibration_Start+0x14e>
 8002be6:	687b      	ldr	r3, [r7, #4]
 8002be8:	2201      	movs	r2, #1
 8002bea:	f883 2024 	strb.w	r2, [r3, #36]	@ 0x24
    
   /* 1. Disable ADC peripheral                                                 */
   tmp_hal_status = ADC_ConversionStop_Disable(hadc);
 8002bee:	6878      	ldr	r0, [r7, #4]
 8002bf0:	f7ff ffa8 	bl	8002b44 <ADC_ConversionStop_Disable>
 8002bf4:	4603      	mov	r3, r0
 8002bf6:	75fb      	strb	r3, [r7, #23]
  
   /* 2. Calibration prerequisite delay before starting the calibration.       */
   /*    - ADC must be enabled for at least two ADC clock cycles               */
   tmp_hal_status = ADC_Enable(hadc);
 8002bf8:	6878      	ldr	r0, [r7, #4]
 8002bfa:	f7ff ff49 	bl	8002a90 <ADC_Enable>
 8002bfe:	4603      	mov	r3, r0
 8002c00:	75fb      	strb	r3, [r7, #23]

   /* Check if ADC is effectively enabled */
   if (tmp_hal_status == HAL_OK)
 8002c02:	7dfb      	ldrb	r3, [r7, #23]
 8002c04:	2b00      	cmp	r3, #0
 8002c06:	f040 8081 	bne.w	8002d0c <HAL_ADCEx_Calibration_Start+0x144>
   {
     /* Set ADC state */
     ADC_STATE_CLR_SET(hadc->State,
 8002c0a:	687b      	ldr	r3, [r7, #4]
 8002c0c:	6a9b      	ldr	r3, [r3, #40]	@ 0x28
 8002c0e:	f423 5388 	bic.w	r3, r3, #4352	@ 0x1100
 8002c12:	f023 0302 	bic.w	r3, r3, #2
 8002c16:	f043 0202 	orr.w	r2, r3, #2
 8002c1a:	687b      	ldr	r3, [r7, #4]
 8002c1c:	629a      	str	r2, [r3, #40]	@ 0x28
    
    /* Hardware prerequisite: delay before starting the calibration.          */
    /*  - Computation of CPU clock cycles corresponding to ADC clock cycles.  */
    /*  - Wait for the expected ADC clock cycles delay */
    wait_loop_index = ((SystemCoreClock
                        / HAL_RCCEx_GetPeriphCLKFreq(RCC_PERIPHCLK_ADC))
 8002c1e:	4b40      	ldr	r3, [pc, #256]	@ (8002d20 <HAL_ADCEx_Calibration_Start+0x158>)
 8002c20:	681c      	ldr	r4, [r3, #0]
 8002c22:	2002      	movs	r0, #2
 8002c24:	f000 fffe 	bl	8003c24 <HAL_RCCEx_GetPeriphCLKFreq>
 8002c28:	4603      	mov	r3, r0
 8002c2a:	fbb4 f3f3 	udiv	r3, r4, r3
                       * ADC_PRECALIBRATION_DELAY_ADCCLOCKCYCLES        );
 8002c2e:	005b      	lsls	r3, r3, #1
    wait_loop_index = ((SystemCoreClock
 8002c30:	60fb      	str	r3, [r7, #12]

    while(wait_loop_index != 0U)
 8002c32:	e002      	b.n	8002c3a <HAL_ADCEx_Calibration_Start+0x72>
    {
      wait_loop_index--;
 8002c34:	68fb      	ldr	r3, [r7, #12]
 8002c36:	3b01      	subs	r3, #1
 8002c38:	60fb      	str	r3, [r7, #12]
    while(wait_loop_index != 0U)
 8002c3a:	68fb      	ldr	r3, [r7, #12]
 8002c3c:	2b00      	cmp	r3, #0
 8002c3e:	d1f9      	bne.n	8002c34 <HAL_ADCEx_Calibration_Start+0x6c>
    }

    /* 3. Resets ADC calibration registers */  
    SET_BIT(hadc->Instance->CR2, ADC_CR2_RSTCAL);
 8002c40:	687b      	ldr	r3, [r7, #4]
 8002c42:	681b      	ldr	r3, [r3, #0]
 8002c44:	689a      	ldr	r2, [r3, #8]
 8002c46:	687b      	ldr	r3, [r7, #4]
 8002c48:	681b      	ldr	r3, [r3, #0]
 8002c4a:	f042 0208 	orr.w	r2, r2, #8
 8002c4e:	609a      	str	r2, [r3, #8]
    
    tickstart = HAL_GetTick();  
 8002c50:	f7ff fb34 	bl	80022bc <HAL_GetTick>
 8002c54:	6138      	str	r0, [r7, #16]

    /* Wait for calibration reset completion */
    while(HAL_IS_BIT_SET(hadc->Instance->CR2, ADC_CR2_RSTCAL))
 8002c56:	e01b      	b.n	8002c90 <HAL_ADCEx_Calibration_Start+0xc8>
    {
      if((HAL_GetTick() - tickstart) > ADC_CALIBRATION_TIMEOUT)
 8002c58:	f7ff fb30 	bl	80022bc <HAL_GetTick>
 8002c5c:	4602      	mov	r2, r0
 8002c5e:	693b      	ldr	r3, [r7, #16]
 8002c60:	1ad3      	subs	r3, r2, r3
 8002c62:	2b0a      	cmp	r3, #10
 8002c64:	d914      	bls.n	8002c90 <HAL_ADCEx_Calibration_Start+0xc8>
      {
        /* New check to avoid false timeout detection in case of preemption */
        if(HAL_IS_BIT_SET(hadc->Instance->CR2, ADC_CR2_RSTCAL))
 8002c66:	687b      	ldr	r3, [r7, #4]
 8002c68:	681b      	ldr	r3, [r3, #0]
 8002c6a:	689b      	ldr	r3, [r3, #8]
 8002c6c:	f003 0308 	and.w	r3, r3, #8
 8002c70:	2b00      	cmp	r3, #0
 8002c72:	d00d      	beq.n	8002c90 <HAL_ADCEx_Calibration_Start+0xc8>
        {
          /* Update ADC state machine to error */
          ADC_STATE_CLR_SET(hadc->State,
 8002c74:	687b      	ldr	r3, [r7, #4]
 8002c76:	6a9b      	ldr	r3, [r3, #40]	@ 0x28
 8002c78:	f023 0312 	bic.w	r3, r3, #18
 8002c7c:	f043 0210 	orr.w	r2, r3, #16
 8002c80:	687b      	ldr	r3, [r7, #4]
 8002c82:	629a      	str	r2, [r3, #40]	@ 0x28
                            HAL_ADC_STATE_BUSY_INTERNAL,
                            HAL_ADC_STATE_ERROR_INTERNAL);

          /* Process unlocked */
          __HAL_UNLOCK(hadc);
 8002c84:	687b      	ldr	r3, [r7, #4]
 8002c86:	2200      	movs	r2, #0
 8002c88:	f883 2024 	strb.w	r2, [r3, #36]	@ 0x24

          return HAL_ERROR;
 8002c8c:	2301      	movs	r3, #1
 8002c8e:	e042      	b.n	8002d16 <HAL_ADCEx_Calibration_Start+0x14e>
    while(HAL_IS_BIT_SET(hadc->Instance->CR2, ADC_CR2_RSTCAL))
 8002c90:	687b      	ldr	r3, [r7, #4]
 8002c92:	681b      	ldr	r3, [r3, #0]
 8002c94:	689b      	ldr	r3, [r3, #8]
 8002c96:	f003 0308 	and.w	r3, r3, #8
 8002c9a:	2b00      	cmp	r3, #0
 8002c9c:	d1dc      	bne.n	8002c58 <HAL_ADCEx_Calibration_Start+0x90>
        }
      }
    }
    
    /* 4. Start ADC calibration */
    SET_BIT(hadc->Instance->CR2, ADC_CR2_CAL);
 8002c9e:	687b      	ldr	r3, [r7, #4]
 8002ca0:	681b      	ldr	r3, [r3, #0]
 8002ca2:	689a      	ldr	r2, [r3, #8]
 8002ca4:	687b      	ldr	r3, [r7, #4]
 8002ca6:	681b      	ldr	r3, [r3, #0]
 8002ca8:	f042 0204 	orr.w	r2, r2, #4
 8002cac:	609a      	str	r2, [r3, #8]
    
    tickstart = HAL_GetTick();  
 8002cae:	f7ff fb05 	bl	80022bc <HAL_GetTick>
 8002cb2:	6138      	str	r0, [r7, #16]

    /* Wait for calibration completion */
    while(HAL_IS_BIT_SET(hadc->Instance->CR2, ADC_CR2_CAL))
 8002cb4:	e01b      	b.n	8002cee <HAL_ADCEx_Calibration_Start+0x126>
    {
      if((HAL_GetTick() - tickstart) > ADC_CALIBRATION_TIMEOUT)
 8002cb6:	f7ff fb01 	bl	80022bc <HAL_GetTick>
 8002cba:	4602      	mov	r2, r0
 8002cbc:	693b      	ldr	r3, [r7, #16]
 8002cbe:	1ad3      	subs	r3, r2, r3
 8002cc0:	2b0a      	cmp	r3, #10
 8002cc2:	d914      	bls.n	8002cee <HAL_ADCEx_Calibration_Start+0x126>
      {
        /* New check to avoid false timeout detection in case of preemption */
        if(HAL_IS_BIT_SET(hadc->Instance->CR2, ADC_CR2_CAL))
 8002cc4:	687b      	ldr	r3, [r7, #4]
 8002cc6:	681b      	ldr	r3, [r3, #0]
 8002cc8:	689b      	ldr	r3, [r3, #8]
 8002cca:	f003 0304 	and.w	r3, r3, #4
 8002cce:	2b00      	cmp	r3, #0
 8002cd0:	d00d      	beq.n	8002cee <HAL_ADCEx_Calibration_Start+0x126>
        {
          /* Update ADC state machine to error */
          ADC_STATE_CLR_SET(hadc->State,
 8002cd2:	687b      	ldr	r3, [r7, #4]
 8002cd4:	6a9b      	ldr	r3, [r3, #40]	@ 0x28
 8002cd6:	f023 0312 	bic.w	r3, r3, #18
 8002cda:	f043 0210 	orr.w	r2, r3, #16
 8002cde:	687b      	ldr	r3, [r7, #4]
 8002ce0:	629a      	str	r2, [r3, #40]	@ 0x28
                            HAL_ADC_STATE_BUSY_INTERNAL,
                            HAL_ADC_STATE_ERROR_INTERNAL);

          /* Process unlocked */
          __HAL_UNLOCK(hadc);
 8002ce2:	687b      	ldr	r3, [r7, #4]
 8002ce4:	2200      	movs	r2, #0
 8002ce6:	f883 2024 	strb.w	r2, [r3, #36]	@ 0x24

          return HAL_ERROR;
 8002cea:	2301      	movs	r3, #1
 8002cec:	e013      	b.n	8002d16 <HAL_ADCEx_Calibration_Start+0x14e>
    while(HAL_IS_BIT_SET(hadc->Instance->CR2, ADC_CR2_CAL))
 8002cee:	687b      	ldr	r3, [r7, #4]
 8002cf0:	681b      	ldr	r3, [r3, #0]
 8002cf2:	689b      	ldr	r3, [r3, #8]
 8002cf4:	f003 0304 	and.w	r3, r3, #4
 8002cf8:	2b00      	cmp	r3, #0
 8002cfa:	d1dc      	bne.n	8002cb6 <HAL_ADCEx_Calibration_Start+0xee>
        }
      }
    }
    
    /* Set ADC state */
    ADC_STATE_CLR_SET(hadc->State,
 8002cfc:	687b      	ldr	r3, [r7, #4]
 8002cfe:	6a9b      	ldr	r3, [r3, #40]	@ 0x28
 8002d00:	f023 0303 	bic.w	r3, r3, #3
 8002d04:	f043 0201 	orr.w	r2, r3, #1
 8002d08:	687b      	ldr	r3, [r7, #4]
 8002d0a:	629a      	str	r2, [r3, #40]	@ 0x28
                      HAL_ADC_STATE_BUSY_INTERNAL,
                      HAL_ADC_STATE_READY);
  }
  
  /* Process unlocked */
  __HAL_UNLOCK(hadc);
 8002d0c:	687b      	ldr	r3, [r7, #4]
 8002d0e:	2200      	movs	r2, #0
 8002d10:	f883 2024 	strb.w	r2, [r3, #36]	@ 0x24
  
  /* Return function status */
  return tmp_hal_status;
 8002d14:	7dfb      	ldrb	r3, [r7, #23]
}
 8002d16:	4618      	mov	r0, r3
 8002d18:	371c      	adds	r7, #28
 8002d1a:	46bd      	mov	sp, r7
 8002d1c:	bd90      	pop	{r4, r7, pc}
 8002d1e:	bf00      	nop
 8002d20:	20000000 	.word	0x20000000

08002d24 <__NVIC_SetPriorityGrouping>:
           In case of a conflict between priority grouping and available
           priority bits (__NVIC_PRIO_BITS), the smallest possible priority group is set.
  \param [in]      PriorityGroup  Priority grouping field.
 */
__STATIC_INLINE void __NVIC_SetPriorityGrouping(uint32_t PriorityGroup)
{
 8002d24:	b480      	push	{r7}
 8002d26:	b085      	sub	sp, #20
 8002d28:	af00      	add	r7, sp, #0
 8002d2a:	6078      	str	r0, [r7, #4]
  uint32_t reg_value;
  uint32_t PriorityGroupTmp = (PriorityGroup & (uint32_t)0x07UL);             /* only values 0..7 are used          */
 8002d2c:	687b      	ldr	r3, [r7, #4]
 8002d2e:	f003 0307 	and.w	r3, r3, #7
 8002d32:	60fb      	str	r3, [r7, #12]

  reg_value  =  SCB->AIRCR;                                                   /* read old register configuration    */
 8002d34:	4b0c      	ldr	r3, [pc, #48]	@ (8002d68 <__NVIC_SetPriorityGrouping+0x44>)
 8002d36:	68db      	ldr	r3, [r3, #12]
 8002d38:	60bb      	str	r3, [r7, #8]
  reg_value &= ~((uint32_t)(SCB_AIRCR_VECTKEY_Msk | SCB_AIRCR_PRIGROUP_Msk)); /* clear bits to change               */
 8002d3a:	68ba      	ldr	r2, [r7, #8]
 8002d3c:	f64f 03ff 	movw	r3, #63743	@ 0xf8ff
 8002d40:	4013      	ands	r3, r2
 8002d42:	60bb      	str	r3, [r7, #8]
  reg_value  =  (reg_value                                   |
                ((uint32_t)0x5FAUL << SCB_AIRCR_VECTKEY_Pos) |
                (PriorityGroupTmp << SCB_AIRCR_PRIGROUP_Pos) );               /* Insert write key and priority group */
 8002d44:	68fb      	ldr	r3, [r7, #12]
 8002d46:	021a      	lsls	r2, r3, #8
                ((uint32_t)0x5FAUL << SCB_AIRCR_VECTKEY_Pos) |
 8002d48:	68bb      	ldr	r3, [r7, #8]
 8002d4a:	4313      	orrs	r3, r2
  reg_value  =  (reg_value                                   |
 8002d4c:	f043 63bf 	orr.w	r3, r3, #100139008	@ 0x5f80000
 8002d50:	f443 3300 	orr.w	r3, r3, #131072	@ 0x20000
 8002d54:	60bb      	str	r3, [r7, #8]
  SCB->AIRCR =  reg_value;
 8002d56:	4a04      	ldr	r2, [pc, #16]	@ (8002d68 <__NVIC_SetPriorityGrouping+0x44>)
 8002d58:	68bb      	ldr	r3, [r7, #8]
 8002d5a:	60d3      	str	r3, [r2, #12]
}
 8002d5c:	bf00      	nop
 8002d5e:	3714      	adds	r7, #20
 8002d60:	46bd      	mov	sp, r7
 8002d62:	bc80      	pop	{r7}
 8002d64:	4770      	bx	lr
 8002d66:	bf00      	nop
 8002d68:	e000ed00 	.word	0xe000ed00

08002d6c <__NVIC_GetPriorityGrouping>:
  \brief   Get Priority Grouping
  \details Reads the priority grouping field from the NVIC Interrupt Controller.
  \return                Priority grouping field (SCB->AIRCR [10:8] PRIGROUP field).
 */
__STATIC_INLINE uint32_t __NVIC_GetPriorityGrouping(void)
{
 8002d6c:	b480      	push	{r7}
 8002d6e:	af00      	add	r7, sp, #0
  return ((uint32_t)((SCB->AIRCR & SCB_AIRCR_PRIGROUP_Msk) >> SCB_AIRCR_PRIGROUP_Pos));
 8002d70:	4b04      	ldr	r3, [pc, #16]	@ (8002d84 <__NVIC_GetPriorityGrouping+0x18>)
 8002d72:	68db      	ldr	r3, [r3, #12]
 8002d74:	0a1b      	lsrs	r3, r3, #8
 8002d76:	f003 0307 	and.w	r3, r3, #7
}
 8002d7a:	4618      	mov	r0, r3
 8002d7c:	46bd      	mov	sp, r7
 8002d7e:	bc80      	pop	{r7}
 8002d80:	4770      	bx	lr
 8002d82:	bf00      	nop
 8002d84:	e000ed00 	.word	0xe000ed00

08002d88 <__NVIC_EnableIRQ>:
  \details Enables a device specific interrupt in the NVIC interrupt controller.
  \param [in]      IRQn  Device specific interrupt number.
  \note    IRQn must not be negative.
 */
__STATIC_INLINE void __NVIC_EnableIRQ(IRQn_Type IRQn)
{
 8002d88:	b480      	push	{r7}
 8002d8a:	b083      	sub	sp, #12
 8002d8c:	af00      	add	r7, sp, #0
 8002d8e:	4603      	mov	r3, r0
 8002d90:	71fb      	strb	r3, [r7, #7]
  if ((int32_t)(IRQn) >= 0)
 8002d92:	f997 3007 	ldrsb.w	r3, [r7, #7]
 8002d96:	2b00      	cmp	r3, #0
 8002d98:	db0b      	blt.n	8002db2 <__NVIC_EnableIRQ+0x2a>
  {
    NVIC->ISER[(((uint32_t)IRQn) >> 5UL)] = (uint32_t)(1UL << (((uint32_t)IRQn) & 0x1FUL));
 8002d9a:	79fb      	ldrb	r3, [r7, #7]
 8002d9c:	f003 021f 	and.w	r2, r3, #31
 8002da0:	4906      	ldr	r1, [pc, #24]	@ (8002dbc <__NVIC_EnableIRQ+0x34>)
 8002da2:	f997 3007 	ldrsb.w	r3, [r7, #7]
 8002da6:	095b      	lsrs	r3, r3, #5
 8002da8:	2001      	movs	r0, #1
 8002daa:	fa00 f202 	lsl.w	r2, r0, r2
 8002dae:	f841 2023 	str.w	r2, [r1, r3, lsl #2]
  }
}
 8002db2:	bf00      	nop
 8002db4:	370c      	adds	r7, #12
 8002db6:	46bd      	mov	sp, r7
 8002db8:	bc80      	pop	{r7}
 8002dba:	4770      	bx	lr
 8002dbc:	e000e100 	.word	0xe000e100

08002dc0 <__NVIC_SetPriority>:
  \param [in]      IRQn  Interrupt number.
  \param [in]  priority  Priority to set.
  \note    The priority cannot be set for every processor exception.
 */
__STATIC_INLINE void __NVIC_SetPriority(IRQn_Type IRQn, uint32_t priority)
{
 8002dc0:	b480      	push	{r7}
 8002dc2:	b083      	sub	sp, #12
 8002dc4:	af00      	add	r7, sp, #0
 8002dc6:	4603      	mov	r3, r0
 8002dc8:	6039      	str	r1, [r7, #0]
 8002dca:	71fb      	strb	r3, [r7, #7]
  if ((int32_t)(IRQn) >= 0)
 8002dcc:	f997 3007 	ldrsb.w	r3, [r7, #7]
 8002dd0:	2b00      	cmp	r3, #0
 8002dd2:	db0a      	blt.n	8002dea <__NVIC_SetPriority+0x2a>
  {
    NVIC->IP[((uint32_t)IRQn)]               = (uint8_t)((priority << (8U - __NVIC_PRIO_BITS)) & (uint32_t)0xFFUL);
 8002dd4:	683b      	ldr	r3, [r7, #0]
 8002dd6:	b2da      	uxtb	r2, r3
 8002dd8:	490c      	ldr	r1, [pc, #48]	@ (8002e0c <__NVIC_SetPriority+0x4c>)
 8002dda:	f997 3007 	ldrsb.w	r3, [r7, #7]
 8002dde:	0112      	lsls	r2, r2, #4
 8002de0:	b2d2      	uxtb	r2, r2
 8002de2:	440b      	add	r3, r1
 8002de4:	f883 2300 	strb.w	r2, [r3, #768]	@ 0x300
  }
  else
  {
    SCB->SHP[(((uint32_t)IRQn) & 0xFUL)-4UL] = (uint8_t)((priority << (8U - __NVIC_PRIO_BITS)) & (uint32_t)0xFFUL);
  }
}
 8002de8:	e00a      	b.n	8002e00 <__NVIC_SetPriority+0x40>
    SCB->SHP[(((uint32_t)IRQn) & 0xFUL)-4UL] = (uint8_t)((priority << (8U - __NVIC_PRIO_BITS)) & (uint32_t)0xFFUL);
 8002dea:	683b      	ldr	r3, [r7, #0]
 8002dec:	b2da      	uxtb	r2, r3
 8002dee:	4908      	ldr	r1, [pc, #32]	@ (8002e10 <__NVIC_SetPriority+0x50>)
 8002df0:	79fb      	ldrb	r3, [r7, #7]
 8002df2:	f003 030f 	and.w	r3, r3, #15
 8002df6:	3b04      	subs	r3, #4
 8002df8:	0112      	lsls	r2, r2, #4
 8002dfa:	b2d2      	uxtb	r2, r2
 8002dfc:	440b      	add	r3, r1
 8002dfe:	761a      	strb	r2, [r3, #24]
}
 8002e00:	bf00      	nop
 8002e02:	370c      	adds	r7, #12
 8002e04:	46bd      	mov	sp, r7
 8002e06:	bc80      	pop	{r7}
 8002e08:	4770      	bx	lr
 8002e0a:	bf00      	nop
 8002e0c:	e000e100 	.word	0xe000e100
 8002e10:	e000ed00 	.word	0xe000ed00

08002e14 <NVIC_EncodePriority>:
  \param [in]   PreemptPriority  Preemptive priority value (starting from 0).
  \param [in]       SubPriority  Subpriority value (starting from 0).
  \return                        Encoded priority. Value can be used in the function \ref NVIC_SetPriority().
 */
__STATIC_INLINE uint32_t NVIC_EncodePriority (uint32_t PriorityGroup, uint32_t PreemptPriority, uint32_t SubPriority)
{
 8002e14:	b480      	push	{r7}
 8002e16:	b089      	sub	sp, #36	@ 0x24
 8002e18:	af00      	add	r7, sp, #0
 8002e1a:	60f8      	str	r0, [r7, #12]
 8002e1c:	60b9      	str	r1, [r7, #8]
 8002e1e:	607a      	str	r2, [r7, #4]
  uint32_t PriorityGroupTmp = (PriorityGroup & (uint32_t)0x07UL);   /* only values 0..7 are used          */
 8002e20:	68fb      	ldr	r3, [r7, #12]
 8002e22:	f003 0307 	and.w	r3, r3, #7
 8002e26:	61fb      	str	r3, [r7, #28]
  uint32_t PreemptPriorityBits;
  uint32_t SubPriorityBits;

  PreemptPriorityBits = ((7UL - PriorityGroupTmp) > (uint32_t)(__NVIC_PRIO_BITS)) ? (uint32_t)(__NVIC_PRIO_BITS) : (uint32_t)(7UL - PriorityGroupTmp);
 8002e28:	69fb      	ldr	r3, [r7, #28]
 8002e2a:	f1c3 0307 	rsb	r3, r3, #7
 8002e2e:	2b04      	cmp	r3, #4
 8002e30:	bf28      	it	cs
 8002e32:	2304      	movcs	r3, #4
 8002e34:	61bb      	str	r3, [r7, #24]
  SubPriorityBits     = ((PriorityGroupTmp + (uint32_t)(__NVIC_PRIO_BITS)) < (uint32_t)7UL) ? (uint32_t)0UL : (uint32_t)((PriorityGroupTmp - 7UL) + (uint32_t)(__NVIC_PRIO_BITS));
 8002e36:	69fb      	ldr	r3, [r7, #28]
 8002e38:	3304      	adds	r3, #4
 8002e3a:	2b06      	cmp	r3, #6
 8002e3c:	d902      	bls.n	8002e44 <NVIC_EncodePriority+0x30>
 8002e3e:	69fb      	ldr	r3, [r7, #28]
 8002e40:	3b03      	subs	r3, #3
 8002e42:	e000      	b.n	8002e46 <NVIC_EncodePriority+0x32>
 8002e44:	2300      	movs	r3, #0
 8002e46:	617b      	str	r3, [r7, #20]

  return (
           ((PreemptPriority & (uint32_t)((1UL << (PreemptPriorityBits)) - 1UL)) << SubPriorityBits) |
 8002e48:	f04f 32ff 	mov.w	r2, #4294967295
 8002e4c:	69bb      	ldr	r3, [r7, #24]
 8002e4e:	fa02 f303 	lsl.w	r3, r2, r3
 8002e52:	43da      	mvns	r2, r3
 8002e54:	68bb      	ldr	r3, [r7, #8]
 8002e56:	401a      	ands	r2, r3
 8002e58:	697b      	ldr	r3, [r7, #20]
 8002e5a:	409a      	lsls	r2, r3
           ((SubPriority     & (uint32_t)((1UL << (SubPriorityBits    )) - 1UL)))
 8002e5c:	f04f 31ff 	mov.w	r1, #4294967295
 8002e60:	697b      	ldr	r3, [r7, #20]
 8002e62:	fa01 f303 	lsl.w	r3, r1, r3
 8002e66:	43d9      	mvns	r1, r3
 8002e68:	687b      	ldr	r3, [r7, #4]
 8002e6a:	400b      	ands	r3, r1
           ((PreemptPriority & (uint32_t)((1UL << (PreemptPriorityBits)) - 1UL)) << SubPriorityBits) |
 8002e6c:	4313      	orrs	r3, r2
         );
}
 8002e6e:	4618      	mov	r0, r3
 8002e70:	3724      	adds	r7, #36	@ 0x24
 8002e72:	46bd      	mov	sp, r7
 8002e74:	bc80      	pop	{r7}
 8002e76:	4770      	bx	lr

08002e78 <SysTick_Config>:
  \note    When the variable <b>__Vendor_SysTickConfig</b> is set to 1, then the
           function <b>SysTick_Config</b> is not included. In this case, the file <b><i>device</i>.h</b>
           must contain a vendor-specific implementation of this function.
 */
__STATIC_INLINE uint32_t SysTick_Config(uint32_t ticks)
{
 8002e78:	b580      	push	{r7, lr}
 8002e7a:	b082      	sub	sp, #8
 8002e7c:	af00      	add	r7, sp, #0
 8002e7e:	6078      	str	r0, [r7, #4]
  if ((ticks - 1UL) > SysTick_LOAD_RELOAD_Msk)
 8002e80:	687b      	ldr	r3, [r7, #4]
 8002e82:	3b01      	subs	r3, #1
 8002e84:	f1b3 7f80 	cmp.w	r3, #16777216	@ 0x1000000
 8002e88:	d301      	bcc.n	8002e8e <SysTick_Config+0x16>
  {
    return (1UL);                                                   /* Reload value impossible */
 8002e8a:	2301      	movs	r3, #1
 8002e8c:	e00f      	b.n	8002eae <SysTick_Config+0x36>
  }

  SysTick->LOAD  = (uint32_t)(ticks - 1UL);                         /* set reload register */
 8002e8e:	4a0a      	ldr	r2, [pc, #40]	@ (8002eb8 <SysTick_Config+0x40>)
 8002e90:	687b      	ldr	r3, [r7, #4]
 8002e92:	3b01      	subs	r3, #1
 8002e94:	6053      	str	r3, [r2, #4]
  NVIC_SetPriority (SysTick_IRQn, (1UL << __NVIC_PRIO_BITS) - 1UL); /* set Priority for Systick Interrupt */
 8002e96:	210f      	movs	r1, #15
 8002e98:	f04f 30ff 	mov.w	r0, #4294967295
 8002e9c:	f7ff ff90 	bl	8002dc0 <__NVIC_SetPriority>
  SysTick->VAL   = 0UL;                                             /* Load the SysTick Counter Value */
 8002ea0:	4b05      	ldr	r3, [pc, #20]	@ (8002eb8 <SysTick_Config+0x40>)
 8002ea2:	2200      	movs	r2, #0
 8002ea4:	609a      	str	r2, [r3, #8]
  SysTick->CTRL  = SysTick_CTRL_CLKSOURCE_Msk |
 8002ea6:	4b04      	ldr	r3, [pc, #16]	@ (8002eb8 <SysTick_Config+0x40>)
 8002ea8:	2207      	movs	r2, #7
 8002eaa:	601a      	str	r2, [r3, #0]
                   SysTick_CTRL_TICKINT_Msk   |
                   SysTick_CTRL_ENABLE_Msk;                         /* Enable SysTick IRQ and SysTick Timer */
  return (0UL);                                                     /* Function successful */
 8002eac:	2300      	movs	r3, #0
}
 8002eae:	4618      	mov	r0, r3
 8002eb0:	3708      	adds	r7, #8
 8002eb2:	46bd      	mov	sp, r7
 8002eb4:	bd80      	pop	{r7, pc}
 8002eb6:	bf00      	nop
 8002eb8:	e000e010 	.word	0xe000e010

08002ebc <HAL_NVIC_SetPriorityGrouping>:
  * @note   When the NVIC_PriorityGroup_0 is selected, IRQ preemption is no more possible. 
  *         The pending IRQ priority will be managed only by the subpriority. 
  * @retval None
  */
void HAL_NVIC_SetPriorityGrouping(uint32_t PriorityGroup)
{
 8002ebc:	b580      	push	{r7, lr}
 8002ebe:	b082      	sub	sp, #8
 8002ec0:	af00      	add	r7, sp, #0
 8002ec2:	6078      	str	r0, [r7, #4]
  /* Check the parameters */
  assert_param(IS_NVIC_PRIORITY_GROUP(PriorityGroup));
  
  /* Set the PRIGROUP[10:8] bits according to the PriorityGroup parameter value */
  NVIC_SetPriorityGrouping(PriorityGroup);
 8002ec4:	6878      	ldr	r0, [r7, #4]
 8002ec6:	f7ff ff2d 	bl	8002d24 <__NVIC_SetPriorityGrouping>
}
 8002eca:	bf00      	nop
 8002ecc:	3708      	adds	r7, #8
 8002ece:	46bd      	mov	sp, r7
 8002ed0:	bd80      	pop	{r7, pc}

08002ed2 <HAL_NVIC_SetPriority>:
  *         This parameter can be a value between 0 and 15
  *         A lower priority value indicates a higher priority.          
  * @retval None
  */
void HAL_NVIC_SetPriority(IRQn_Type IRQn, uint32_t PreemptPriority, uint32_t SubPriority)
{ 
 8002ed2:	b580      	push	{r7, lr}
 8002ed4:	b086      	sub	sp, #24
 8002ed6:	af00      	add	r7, sp, #0
 8002ed8:	4603      	mov	r3, r0
 8002eda:	60b9      	str	r1, [r7, #8]
 8002edc:	607a      	str	r2, [r7, #4]
 8002ede:	73fb      	strb	r3, [r7, #15]
  uint32_t prioritygroup = 0x00U;
 8002ee0:	2300      	movs	r3, #0
 8002ee2:	617b      	str	r3, [r7, #20]
  
  /* Check the parameters */
  assert_param(IS_NVIC_SUB_PRIORITY(SubPriority));
  assert_param(IS_NVIC_PREEMPTION_PRIORITY(PreemptPriority));
  
  prioritygroup = NVIC_GetPriorityGrouping();
 8002ee4:	f7ff ff42 	bl	8002d6c <__NVIC_GetPriorityGrouping>
 8002ee8:	6178      	str	r0, [r7, #20]
  
  NVIC_SetPriority(IRQn, NVIC_EncodePriority(prioritygroup, PreemptPriority, SubPriority));
 8002eea:	687a      	ldr	r2, [r7, #4]
 8002eec:	68b9      	ldr	r1, [r7, #8]
 8002eee:	6978      	ldr	r0, [r7, #20]
 8002ef0:	f7ff ff90 	bl	8002e14 <NVIC_EncodePriority>
 8002ef4:	4602      	mov	r2, r0
 8002ef6:	f997 300f 	ldrsb.w	r3, [r7, #15]
 8002efa:	4611      	mov	r1, r2
 8002efc:	4618      	mov	r0, r3
 8002efe:	f7ff ff5f 	bl	8002dc0 <__NVIC_SetPriority>
}
 8002f02:	bf00      	nop
 8002f04:	3718      	adds	r7, #24
 8002f06:	46bd      	mov	sp, r7
 8002f08:	bd80      	pop	{r7, pc}

08002f0a <HAL_NVIC_EnableIRQ>:
  *         This parameter can be an enumerator of IRQn_Type enumeration
  *         (For the complete STM32 Devices IRQ Channels list, please refer to the appropriate CMSIS device file (stm32f10xxx.h))
  * @retval None
  */
void HAL_NVIC_EnableIRQ(IRQn_Type IRQn)
{
 8002f0a:	b580      	push	{r7, lr}
 8002f0c:	b082      	sub	sp, #8
 8002f0e:	af00      	add	r7, sp, #0
 8002f10:	4603      	mov	r3, r0
 8002f12:	71fb      	strb	r3, [r7, #7]
  /* Check the parameters */
  assert_param(IS_NVIC_DEVICE_IRQ(IRQn));

  /* Enable interrupt */
  NVIC_EnableIRQ(IRQn);
 8002f14:	f997 3007 	ldrsb.w	r3, [r7, #7]
 8002f18:	4618      	mov	r0, r3
 8002f1a:	f7ff ff35 	bl	8002d88 <__NVIC_EnableIRQ>
}
 8002f1e:	bf00      	nop
 8002f20:	3708      	adds	r7, #8
 8002f22:	46bd      	mov	sp, r7
 8002f24:	bd80      	pop	{r7, pc}

08002f26 <HAL_SYSTICK_Config>:
  * @param  TicksNumb: Specifies the ticks Number of ticks between two interrupts.
  * @retval status:  - 0  Function succeeded.
  *                  - 1  Function failed.
  */
uint32_t HAL_SYSTICK_Config(uint32_t TicksNumb)
{
 8002f26:	b580      	push	{r7, lr}
 8002f28:	b082      	sub	sp, #8
 8002f2a:	af00      	add	r7, sp, #0
 8002f2c:	6078      	str	r0, [r7, #4]
   return SysTick_Config(TicksNumb);
 8002f2e:	6878      	ldr	r0, [r7, #4]
 8002f30:	f7ff ffa2 	bl	8002e78 <SysTick_Config>
 8002f34:	4603      	mov	r3, r0
}
 8002f36:	4618      	mov	r0, r3
 8002f38:	3708      	adds	r7, #8
 8002f3a:	46bd      	mov	sp, r7
 8002f3c:	bd80      	pop	{r7, pc}
	...

08002f40 <HAL_GPIO_Init>:
  * @param  GPIO_Init: pointer to a GPIO_InitTypeDef structure that contains
  *         the configuration information for the specified GPIO peripheral.
  * @retval None
  */
void HAL_GPIO_Init(GPIO_TypeDef  *GPIOx, GPIO_InitTypeDef *GPIO_Init)
{
 8002f40:	b480      	push	{r7}
 8002f42:	b08b      	sub	sp, #44	@ 0x2c
 8002f44:	af00      	add	r7, sp, #0
 8002f46:	6078      	str	r0, [r7, #4]
 8002f48:	6039      	str	r1, [r7, #0]
  uint32_t position = 0x00u;
 8002f4a:	2300      	movs	r3, #0
 8002f4c:	627b      	str	r3, [r7, #36]	@ 0x24
  uint32_t ioposition;
  uint32_t iocurrent;
  uint32_t temp;
  uint32_t config = 0x00u;
 8002f4e:	2300      	movs	r3, #0
 8002f50:	623b      	str	r3, [r7, #32]
  assert_param(IS_GPIO_ALL_INSTANCE(GPIOx));
  assert_param(IS_GPIO_PIN(GPIO_Init->Pin));
  assert_param(IS_GPIO_MODE(GPIO_Init->Mode));

  /* Configure the port pins */
  while (((GPIO_Init->Pin) >> position) != 0x00u)
 8002f52:	e161      	b.n	8003218 <HAL_GPIO_Init+0x2d8>
  {
    /* Get the IO position */
    ioposition = (0x01uL << position);
 8002f54:	2201      	movs	r2, #1
 8002f56:	6a7b      	ldr	r3, [r7, #36]	@ 0x24
 8002f58:	fa02 f303 	lsl.w	r3, r2, r3
 8002f5c:	61fb      	str	r3, [r7, #28]

    /* Get the current IO position */
    iocurrent = (uint32_t)(GPIO_Init->Pin) & ioposition;
 8002f5e:	683b      	ldr	r3, [r7, #0]
 8002f60:	681b      	ldr	r3, [r3, #0]
 8002f62:	69fa      	ldr	r2, [r7, #28]
 8002f64:	4013      	ands	r3, r2
 8002f66:	61bb      	str	r3, [r7, #24]

    if (iocurrent == ioposition)
 8002f68:	69ba      	ldr	r2, [r7, #24]
 8002f6a:	69fb      	ldr	r3, [r7, #28]
 8002f6c:	429a      	cmp	r2, r3
 8002f6e:	f040 8150 	bne.w	8003212 <HAL_GPIO_Init+0x2d2>
    {
      /* Check the Alternate function parameters */
      assert_param(IS_GPIO_AF_INSTANCE(GPIOx));

      /* Based on the required mode, filling config variable with MODEy[1:0] and CNFy[3:2] corresponding bits */
      switch (GPIO_Init->Mode)
 8002f72:	683b      	ldr	r3, [r7, #0]
 8002f74:	685b      	ldr	r3, [r3, #4]
 8002f76:	4a97      	ldr	r2, [pc, #604]	@ (80031d4 <HAL_GPIO_Init+0x294>)
 8002f78:	4293      	cmp	r3, r2
 8002f7a:	d05e      	beq.n	800303a <HAL_GPIO_Init+0xfa>
 8002f7c:	4a95      	ldr	r2, [pc, #596]	@ (80031d4 <HAL_GPIO_Init+0x294>)
 8002f7e:	4293      	cmp	r3, r2
 8002f80:	d875      	bhi.n	800306e <HAL_GPIO_Init+0x12e>
 8002f82:	4a95      	ldr	r2, [pc, #596]	@ (80031d8 <HAL_GPIO_Init+0x298>)
 8002f84:	4293      	cmp	r3, r2
 8002f86:	d058      	beq.n	800303a <HAL_GPIO_Init+0xfa>
 8002f88:	4a93      	ldr	r2, [pc, #588]	@ (80031d8 <HAL_GPIO_Init+0x298>)
 8002f8a:	4293      	cmp	r3, r2
 8002f8c:	d86f      	bhi.n	800306e <HAL_GPIO_Init+0x12e>
 8002f8e:	4a93      	ldr	r2, [pc, #588]	@ (80031dc <HAL_GPIO_Init+0x29c>)
 8002f90:	4293      	cmp	r3, r2
 8002f92:	d052      	beq.n	800303a <HAL_GPIO_Init+0xfa>
 8002f94:	4a91      	ldr	r2, [pc, #580]	@ (80031dc <HAL_GPIO_Init+0x29c>)
 8002f96:	4293      	cmp	r3, r2
 8002f98:	d869      	bhi.n	800306e <HAL_GPIO_Init+0x12e>
 8002f9a:	4a91      	ldr	r2, [pc, #580]	@ (80031e0 <HAL_GPIO_Init+0x2a0>)
 8002f9c:	4293      	cmp	r3, r2
 8002f9e:	d04c      	beq.n	800303a <HAL_GPIO_Init+0xfa>
 8002fa0:	4a8f      	ldr	r2, [pc, #572]	@ (80031e0 <HAL_GPIO_Init+0x2a0>)
 8002fa2:	4293      	cmp	r3, r2
 8002fa4:	d863      	bhi.n	800306e <HAL_GPIO_Init+0x12e>
 8002fa6:	4a8f      	ldr	r2, [pc, #572]	@ (80031e4 <HAL_GPIO_Init+0x2a4>)
 8002fa8:	4293      	cmp	r3, r2
 8002faa:	d046      	beq.n	800303a <HAL_GPIO_Init+0xfa>
 8002fac:	4a8d      	ldr	r2, [pc, #564]	@ (80031e4 <HAL_GPIO_Init+0x2a4>)
 8002fae:	4293      	cmp	r3, r2
 8002fb0:	d85d      	bhi.n	800306e <HAL_GPIO_Init+0x12e>
 8002fb2:	2b12      	cmp	r3, #18
 8002fb4:	d82a      	bhi.n	800300c <HAL_GPIO_Init+0xcc>
 8002fb6:	2b12      	cmp	r3, #18
 8002fb8:	d859      	bhi.n	800306e <HAL_GPIO_Init+0x12e>
 8002fba:	a201      	add	r2, pc, #4	@ (adr r2, 8002fc0 <HAL_GPIO_Init+0x80>)
 8002fbc:	f852 f023 	ldr.w	pc, [r2, r3, lsl #2]
 8002fc0:	0800303b 	.word	0x0800303b
 8002fc4:	08003015 	.word	0x08003015
 8002fc8:	08003027 	.word	0x08003027
 8002fcc:	08003069 	.word	0x08003069
 8002fd0:	0800306f 	.word	0x0800306f
 8002fd4:	0800306f 	.word	0x0800306f
 8002fd8:	0800306f 	.word	0x0800306f
 8002fdc:	0800306f 	.word	0x0800306f
 8002fe0:	0800306f 	.word	0x0800306f
 8002fe4:	0800306f 	.word	0x0800306f
 8002fe8:	0800306f 	.word	0x0800306f
 8002fec:	0800306f 	.word	0x0800306f
 8002ff0:	0800306f 	.word	0x0800306f
 8002ff4:	0800306f 	.word	0x0800306f
 8002ff8:	0800306f 	.word	0x0800306f
 8002ffc:	0800306f 	.word	0x0800306f
 8003000:	0800306f 	.word	0x0800306f
 8003004:	0800301d 	.word	0x0800301d
 8003008:	08003031 	.word	0x08003031
 800300c:	4a76      	ldr	r2, [pc, #472]	@ (80031e8 <HAL_GPIO_Init+0x2a8>)
 800300e:	4293      	cmp	r3, r2
 8003010:	d013      	beq.n	800303a <HAL_GPIO_Init+0xfa>
          config = GPIO_CR_MODE_INPUT + GPIO_CR_CNF_ANALOG;
          break;

        /* Parameters are checked with assert_param */
        default:
          break;
 8003012:	e02c      	b.n	800306e <HAL_GPIO_Init+0x12e>
          config = GPIO_Init->Speed + GPIO_CR_CNF_GP_OUTPUT_PP;
 8003014:	683b      	ldr	r3, [r7, #0]
 8003016:	68db      	ldr	r3, [r3, #12]
 8003018:	623b      	str	r3, [r7, #32]
          break;
 800301a:	e029      	b.n	8003070 <HAL_GPIO_Init+0x130>
          config = GPIO_Init->Speed + GPIO_CR_CNF_GP_OUTPUT_OD;
 800301c:	683b      	ldr	r3, [r7, #0]
 800301e:	68db      	ldr	r3, [r3, #12]
 8003020:	3304      	adds	r3, #4
 8003022:	623b      	str	r3, [r7, #32]
          break;
 8003024:	e024      	b.n	8003070 <HAL_GPIO_Init+0x130>
          config = GPIO_Init->Speed + GPIO_CR_CNF_AF_OUTPUT_PP;
 8003026:	683b      	ldr	r3, [r7, #0]
 8003028:	68db      	ldr	r3, [r3, #12]
 800302a:	3308      	adds	r3, #8
 800302c:	623b      	str	r3, [r7, #32]
          break;
 800302e:	e01f      	b.n	8003070 <HAL_GPIO_Init+0x130>
          config = GPIO_Init->Speed + GPIO_CR_CNF_AF_OUTPUT_OD;
 8003030:	683b      	ldr	r3, [r7, #0]
 8003032:	68db      	ldr	r3, [r3, #12]
 8003034:	330c      	adds	r3, #12
 8003036:	623b      	str	r3, [r7, #32]
          break;
 8003038:	e01a      	b.n	8003070 <HAL_GPIO_Init+0x130>
          if (GPIO_Init->Pull == GPIO_NOPULL)
 800303a:	683b      	ldr	r3, [r7, #0]
 800303c:	689b      	ldr	r3, [r3, #8]
 800303e:	2b00      	cmp	r3, #0
 8003040:	d102      	bne.n	8003048 <HAL_GPIO_Init+0x108>
            config = GPIO_CR_MODE_INPUT + GPIO_CR_CNF_INPUT_FLOATING;
 8003042:	2304      	movs	r3, #4
 8003044:	623b      	str	r3, [r7, #32]
          break;
 8003046:	e013      	b.n	8003070 <HAL_GPIO_Init+0x130>
          else if (GPIO_Init->Pull == GPIO_PULLUP)
 8003048:	683b      	ldr	r3, [r7, #0]
 800304a:	689b      	ldr	r3, [r3, #8]
 800304c:	2b01      	cmp	r3, #1
 800304e:	d105      	bne.n	800305c <HAL_GPIO_Init+0x11c>
            config = GPIO_CR_MODE_INPUT + GPIO_CR_CNF_INPUT_PU_PD;
 8003050:	2308      	movs	r3, #8
 8003052:	623b      	str	r3, [r7, #32]
            GPIOx->BSRR = ioposition;
 8003054:	687b      	ldr	r3, [r7, #4]
 8003056:	69fa      	ldr	r2, [r7, #28]
 8003058:	611a      	str	r2, [r3, #16]
          break;
 800305a:	e009      	b.n	8003070 <HAL_GPIO_Init+0x130>
            config = GPIO_CR_MODE_INPUT + GPIO_CR_CNF_INPUT_PU_PD;
 800305c:	2308      	movs	r3, #8
 800305e:	623b      	str	r3, [r7, #32]
            GPIOx->BRR = ioposition;
 8003060:	687b      	ldr	r3, [r7, #4]
 8003062:	69fa      	ldr	r2, [r7, #28]
 8003064:	615a      	str	r2, [r3, #20]
          break;
 8003066:	e003      	b.n	8003070 <HAL_GPIO_Init+0x130>
          config = GPIO_CR_MODE_INPUT + GPIO_CR_CNF_ANALOG;
 8003068:	2300      	movs	r3, #0
 800306a:	623b      	str	r3, [r7, #32]
          break;
 800306c:	e000      	b.n	8003070 <HAL_GPIO_Init+0x130>
          break;
 800306e:	bf00      	nop
      }

      /* Check if the current bit belongs to first half or last half of the pin count number
       in order to address CRH or CRL register*/
      configregister = (iocurrent < GPIO_PIN_8) ? &GPIOx->CRL     : &GPIOx->CRH;
 8003070:	69bb      	ldr	r3, [r7, #24]
 8003072:	2bff      	cmp	r3, #255	@ 0xff
 8003074:	d801      	bhi.n	800307a <HAL_GPIO_Init+0x13a>
 8003076:	687b      	ldr	r3, [r7, #4]
 8003078:	e001      	b.n	800307e <HAL_GPIO_Init+0x13e>
 800307a:	687b      	ldr	r3, [r7, #4]
 800307c:	3304      	adds	r3, #4
 800307e:	617b      	str	r3, [r7, #20]
      registeroffset = (iocurrent < GPIO_PIN_8) ? (position << 2u) : ((position - 8u) << 2u);
 8003080:	69bb      	ldr	r3, [r7, #24]
 8003082:	2bff      	cmp	r3, #255	@ 0xff
 8003084:	d802      	bhi.n	800308c <HAL_GPIO_Init+0x14c>
 8003086:	6a7b      	ldr	r3, [r7, #36]	@ 0x24
 8003088:	009b      	lsls	r3, r3, #2
 800308a:	e002      	b.n	8003092 <HAL_GPIO_Init+0x152>
 800308c:	6a7b      	ldr	r3, [r7, #36]	@ 0x24
 800308e:	3b08      	subs	r3, #8
 8003090:	009b      	lsls	r3, r3, #2
 8003092:	613b      	str	r3, [r7, #16]

      /* Apply the new configuration of the pin to the register */
      MODIFY_REG((*configregister), ((GPIO_CRL_MODE0 | GPIO_CRL_CNF0) << registeroffset), (config << registeroffset));
 8003094:	697b      	ldr	r3, [r7, #20]
 8003096:	681a      	ldr	r2, [r3, #0]
 8003098:	210f      	movs	r1, #15
 800309a:	693b      	ldr	r3, [r7, #16]
 800309c:	fa01 f303 	lsl.w	r3, r1, r3
 80030a0:	43db      	mvns	r3, r3
 80030a2:	401a      	ands	r2, r3
 80030a4:	6a39      	ldr	r1, [r7, #32]
 80030a6:	693b      	ldr	r3, [r7, #16]
 80030a8:	fa01 f303 	lsl.w	r3, r1, r3
 80030ac:	431a      	orrs	r2, r3
 80030ae:	697b      	ldr	r3, [r7, #20]
 80030b0:	601a      	str	r2, [r3, #0]

      /*--------------------- EXTI Mode Configuration ------------------------*/
      /* Configure the External Interrupt or event for the current IO */
      if ((GPIO_Init->Mode & EXTI_MODE) == EXTI_MODE)
 80030b2:	683b      	ldr	r3, [r7, #0]
 80030b4:	685b      	ldr	r3, [r3, #4]
 80030b6:	f003 5380 	and.w	r3, r3, #268435456	@ 0x10000000
 80030ba:	2b00      	cmp	r3, #0
 80030bc:	f000 80a9 	beq.w	8003212 <HAL_GPIO_Init+0x2d2>
      {
        /* Enable AFIO Clock */
        __HAL_RCC_AFIO_CLK_ENABLE();
 80030c0:	4b4a      	ldr	r3, [pc, #296]	@ (80031ec <HAL_GPIO_Init+0x2ac>)
 80030c2:	699b      	ldr	r3, [r3, #24]
 80030c4:	4a49      	ldr	r2, [pc, #292]	@ (80031ec <HAL_GPIO_Init+0x2ac>)
 80030c6:	f043 0301 	orr.w	r3, r3, #1
 80030ca:	6193      	str	r3, [r2, #24]
 80030cc:	4b47      	ldr	r3, [pc, #284]	@ (80031ec <HAL_GPIO_Init+0x2ac>)
 80030ce:	699b      	ldr	r3, [r3, #24]
 80030d0:	f003 0301 	and.w	r3, r3, #1
 80030d4:	60bb      	str	r3, [r7, #8]
 80030d6:	68bb      	ldr	r3, [r7, #8]
        temp = AFIO->EXTICR[position >> 2u];
 80030d8:	4a45      	ldr	r2, [pc, #276]	@ (80031f0 <HAL_GPIO_Init+0x2b0>)
 80030da:	6a7b      	ldr	r3, [r7, #36]	@ 0x24
 80030dc:	089b      	lsrs	r3, r3, #2
 80030de:	3302      	adds	r3, #2
 80030e0:	f852 3023 	ldr.w	r3, [r2, r3, lsl #2]
 80030e4:	60fb      	str	r3, [r7, #12]
        CLEAR_BIT(temp, (0x0Fu) << (4u * (position & 0x03u)));
 80030e6:	6a7b      	ldr	r3, [r7, #36]	@ 0x24
 80030e8:	f003 0303 	and.w	r3, r3, #3
 80030ec:	009b      	lsls	r3, r3, #2
 80030ee:	220f      	movs	r2, #15
 80030f0:	fa02 f303 	lsl.w	r3, r2, r3
 80030f4:	43db      	mvns	r3, r3
 80030f6:	68fa      	ldr	r2, [r7, #12]
 80030f8:	4013      	ands	r3, r2
 80030fa:	60fb      	str	r3, [r7, #12]
        SET_BIT(temp, (GPIO_GET_INDEX(GPIOx)) << (4u * (position & 0x03u)));
 80030fc:	687b      	ldr	r3, [r7, #4]
 80030fe:	4a3d      	ldr	r2, [pc, #244]	@ (80031f4 <HAL_GPIO_Init+0x2b4>)
 8003100:	4293      	cmp	r3, r2
 8003102:	d00d      	beq.n	8003120 <HAL_GPIO_Init+0x1e0>
 8003104:	687b      	ldr	r3, [r7, #4]
 8003106:	4a3c      	ldr	r2, [pc, #240]	@ (80031f8 <HAL_GPIO_Init+0x2b8>)
 8003108:	4293      	cmp	r3, r2
 800310a:	d007      	beq.n	800311c <HAL_GPIO_Init+0x1dc>
 800310c:	687b      	ldr	r3, [r7, #4]
 800310e:	4a3b      	ldr	r2, [pc, #236]	@ (80031fc <HAL_GPIO_Init+0x2bc>)
 8003110:	4293      	cmp	r3, r2
 8003112:	d101      	bne.n	8003118 <HAL_GPIO_Init+0x1d8>
 8003114:	2302      	movs	r3, #2
 8003116:	e004      	b.n	8003122 <HAL_GPIO_Init+0x1e2>
 8003118:	2303      	movs	r3, #3
 800311a:	e002      	b.n	8003122 <HAL_GPIO_Init+0x1e2>
 800311c:	2301      	movs	r3, #1
 800311e:	e000      	b.n	8003122 <HAL_GPIO_Init+0x1e2>
 8003120:	2300      	movs	r3, #0
 8003122:	6a7a      	ldr	r2, [r7, #36]	@ 0x24
 8003124:	f002 0203 	and.w	r2, r2, #3
 8003128:	0092      	lsls	r2, r2, #2
 800312a:	4093      	lsls	r3, r2
 800312c:	68fa      	ldr	r2, [r7, #12]
 800312e:	4313      	orrs	r3, r2
 8003130:	60fb      	str	r3, [r7, #12]
        AFIO->EXTICR[position >> 2u] = temp;
 8003132:	492f      	ldr	r1, [pc, #188]	@ (80031f0 <HAL_GPIO_Init+0x2b0>)
 8003134:	6a7b      	ldr	r3, [r7, #36]	@ 0x24
 8003136:	089b      	lsrs	r3, r3, #2
 8003138:	3302      	adds	r3, #2
 800313a:	68fa      	ldr	r2, [r7, #12]
 800313c:	f841 2023 	str.w	r2, [r1, r3, lsl #2]


        /* Enable or disable the rising trigger */
        if ((GPIO_Init->Mode & RISING_EDGE) == RISING_EDGE)
 8003140:	683b      	ldr	r3, [r7, #0]
 8003142:	685b      	ldr	r3, [r3, #4]
 8003144:	f403 1380 	and.w	r3, r3, #1048576	@ 0x100000
 8003148:	2b00      	cmp	r3, #0
 800314a:	d006      	beq.n	800315a <HAL_GPIO_Init+0x21a>
        {
          SET_BIT(EXTI->RTSR, iocurrent);
 800314c:	4b2c      	ldr	r3, [pc, #176]	@ (8003200 <HAL_GPIO_Init+0x2c0>)
 800314e:	689a      	ldr	r2, [r3, #8]
 8003150:	492b      	ldr	r1, [pc, #172]	@ (8003200 <HAL_GPIO_Init+0x2c0>)
 8003152:	69bb      	ldr	r3, [r7, #24]
 8003154:	4313      	orrs	r3, r2
 8003156:	608b      	str	r3, [r1, #8]
 8003158:	e006      	b.n	8003168 <HAL_GPIO_Init+0x228>
        }
        else
        {
          CLEAR_BIT(EXTI->RTSR, iocurrent);
 800315a:	4b29      	ldr	r3, [pc, #164]	@ (8003200 <HAL_GPIO_Init+0x2c0>)
 800315c:	689a      	ldr	r2, [r3, #8]
 800315e:	69bb      	ldr	r3, [r7, #24]
 8003160:	43db      	mvns	r3, r3
 8003162:	4927      	ldr	r1, [pc, #156]	@ (8003200 <HAL_GPIO_Init+0x2c0>)
 8003164:	4013      	ands	r3, r2
 8003166:	608b      	str	r3, [r1, #8]
        }

        /* Enable or disable the falling trigger */
        if ((GPIO_Init->Mode & FALLING_EDGE) == FALLING_EDGE)
 8003168:	683b      	ldr	r3, [r7, #0]
 800316a:	685b      	ldr	r3, [r3, #4]
 800316c:	f403 1300 	and.w	r3, r3, #2097152	@ 0x200000
 8003170:	2b00      	cmp	r3, #0
 8003172:	d006      	beq.n	8003182 <HAL_GPIO_Init+0x242>
        {
          SET_BIT(EXTI->FTSR, iocurrent);
 8003174:	4b22      	ldr	r3, [pc, #136]	@ (8003200 <HAL_GPIO_Init+0x2c0>)
 8003176:	68da      	ldr	r2, [r3, #12]
 8003178:	4921      	ldr	r1, [pc, #132]	@ (8003200 <HAL_GPIO_Init+0x2c0>)
 800317a:	69bb      	ldr	r3, [r7, #24]
 800317c:	4313      	orrs	r3, r2
 800317e:	60cb      	str	r3, [r1, #12]
 8003180:	e006      	b.n	8003190 <HAL_GPIO_Init+0x250>
        }
        else
        {
          CLEAR_BIT(EXTI->FTSR, iocurrent);
 8003182:	4b1f      	ldr	r3, [pc, #124]	@ (8003200 <HAL_GPIO_Init+0x2c0>)
 8003184:	68da      	ldr	r2, [r3, #12]
 8003186:	69bb      	ldr	r3, [r7, #24]
 8003188:	43db      	mvns	r3, r3
 800318a:	491d      	ldr	r1, [pc, #116]	@ (8003200 <HAL_GPIO_Init+0x2c0>)
 800318c:	4013      	ands	r3, r2
 800318e:	60cb      	str	r3, [r1, #12]
        }

        /* Configure the event mask */
        if ((GPIO_Init->Mode & GPIO_MODE_EVT) == GPIO_MODE_EVT)
 8003190:	683b      	ldr	r3, [r7, #0]
 8003192:	685b      	ldr	r3, [r3, #4]
 8003194:	f403 3300 	and.w	r3, r3, #131072	@ 0x20000
 8003198:	2b00      	cmp	r3, #0
 800319a:	d006      	beq.n	80031aa <HAL_GPIO_Init+0x26a>
        {
          SET_BIT(EXTI->EMR, iocurrent);
 800319c:	4b18      	ldr	r3, [pc, #96]	@ (8003200 <HAL_GPIO_Init+0x2c0>)
 800319e:	685a      	ldr	r2, [r3, #4]
 80031a0:	4917      	ldr	r1, [pc, #92]	@ (8003200 <HAL_GPIO_Init+0x2c0>)
 80031a2:	69bb      	ldr	r3, [r7, #24]
 80031a4:	4313      	orrs	r3, r2
 80031a6:	604b      	str	r3, [r1, #4]
 80031a8:	e006      	b.n	80031b8 <HAL_GPIO_Init+0x278>
        }
        else
        {
          CLEAR_BIT(EXTI->EMR, iocurrent);
 80031aa:	4b15      	ldr	r3, [pc, #84]	@ (8003200 <HAL_GPIO_Init+0x2c0>)
 80031ac:	685a      	ldr	r2, [r3, #4]
 80031ae:	69bb      	ldr	r3, [r7, #24]
 80031b0:	43db      	mvns	r3, r3
 80031b2:	4913      	ldr	r1, [pc, #76]	@ (8003200 <HAL_GPIO_Init+0x2c0>)
 80031b4:	4013      	ands	r3, r2
 80031b6:	604b      	str	r3, [r1, #4]
        }

        /* Configure the interrupt mask */
        if ((GPIO_Init->Mode & GPIO_MODE_IT) == GPIO_MODE_IT)
 80031b8:	683b      	ldr	r3, [r7, #0]
 80031ba:	685b      	ldr	r3, [r3, #4]
 80031bc:	f403 3380 	and.w	r3, r3, #65536	@ 0x10000
 80031c0:	2b00      	cmp	r3, #0
 80031c2:	d01f      	beq.n	8003204 <HAL_GPIO_Init+0x2c4>
        {
          SET_BIT(EXTI->IMR, iocurrent);
 80031c4:	4b0e      	ldr	r3, [pc, #56]	@ (8003200 <HAL_GPIO_Init+0x2c0>)
 80031c6:	681a      	ldr	r2, [r3, #0]
 80031c8:	490d      	ldr	r1, [pc, #52]	@ (8003200 <HAL_GPIO_Init+0x2c0>)
 80031ca:	69bb      	ldr	r3, [r7, #24]
 80031cc:	4313      	orrs	r3, r2
 80031ce:	600b      	str	r3, [r1, #0]
 80031d0:	e01f      	b.n	8003212 <HAL_GPIO_Init+0x2d2>
 80031d2:	bf00      	nop
 80031d4:	10320000 	.word	0x10320000
 80031d8:	10310000 	.word	0x10310000
 80031dc:	10220000 	.word	0x10220000
 80031e0:	10210000 	.word	0x10210000
 80031e4:	10120000 	.word	0x10120000
 80031e8:	10110000 	.word	0x10110000
 80031ec:	40021000 	.word	0x40021000
 80031f0:	40010000 	.word	0x40010000
 80031f4:	40010800 	.word	0x40010800
 80031f8:	40010c00 	.word	0x40010c00
 80031fc:	40011000 	.word	0x40011000
 8003200:	40010400 	.word	0x40010400
        }
        else
        {
          CLEAR_BIT(EXTI->IMR, iocurrent);
 8003204:	4b0b      	ldr	r3, [pc, #44]	@ (8003234 <HAL_GPIO_Init+0x2f4>)
 8003206:	681a      	ldr	r2, [r3, #0]
 8003208:	69bb      	ldr	r3, [r7, #24]
 800320a:	43db      	mvns	r3, r3
 800320c:	4909      	ldr	r1, [pc, #36]	@ (8003234 <HAL_GPIO_Init+0x2f4>)
 800320e:	4013      	ands	r3, r2
 8003210:	600b      	str	r3, [r1, #0]
        }
      }
    }

	position++;
 8003212:	6a7b      	ldr	r3, [r7, #36]	@ 0x24
 8003214:	3301      	adds	r3, #1
 8003216:	627b      	str	r3, [r7, #36]	@ 0x24
  while (((GPIO_Init->Pin) >> position) != 0x00u)
 8003218:	683b      	ldr	r3, [r7, #0]
 800321a:	681a      	ldr	r2, [r3, #0]
 800321c:	6a7b      	ldr	r3, [r7, #36]	@ 0x24
 800321e:	fa22 f303 	lsr.w	r3, r2, r3
 8003222:	2b00      	cmp	r3, #0
 8003224:	f47f ae96 	bne.w	8002f54 <HAL_GPIO_Init+0x14>
  }
}
 8003228:	bf00      	nop
 800322a:	bf00      	nop
 800322c:	372c      	adds	r7, #44	@ 0x2c
 800322e:	46bd      	mov	sp, r7
 8003230:	bc80      	pop	{r7}
 8003232:	4770      	bx	lr
 8003234:	40010400 	.word	0x40010400

08003238 <HAL_GPIO_ReadPin>:
  * @param  GPIO_Pin: specifies the port bit to read.
  *         This parameter can be GPIO_PIN_x where x can be (0..15).
  * @retval The input port pin value.
  */
GPIO_PinState HAL_GPIO_ReadPin(GPIO_TypeDef *GPIOx, uint16_t GPIO_Pin)
{
 8003238:	b480      	push	{r7}
 800323a:	b085      	sub	sp, #20
 800323c:	af00      	add	r7, sp, #0
 800323e:	6078      	str	r0, [r7, #4]
 8003240:	460b      	mov	r3, r1
 8003242:	807b      	strh	r3, [r7, #2]
  GPIO_PinState bitstatus;

  /* Check the parameters */
  assert_param(IS_GPIO_PIN(GPIO_Pin));

  if ((GPIOx->IDR & GPIO_Pin) != (uint32_t)GPIO_PIN_RESET)
 8003244:	687b      	ldr	r3, [r7, #4]
 8003246:	689a      	ldr	r2, [r3, #8]
 8003248:	887b      	ldrh	r3, [r7, #2]
 800324a:	4013      	ands	r3, r2
 800324c:	2b00      	cmp	r3, #0
 800324e:	d002      	beq.n	8003256 <HAL_GPIO_ReadPin+0x1e>
  {
    bitstatus = GPIO_PIN_SET;
 8003250:	2301      	movs	r3, #1
 8003252:	73fb      	strb	r3, [r7, #15]
 8003254:	e001      	b.n	800325a <HAL_GPIO_ReadPin+0x22>
  }
  else
  {
    bitstatus = GPIO_PIN_RESET;
 8003256:	2300      	movs	r3, #0
 8003258:	73fb      	strb	r3, [r7, #15]
  }
  return bitstatus;
 800325a:	7bfb      	ldrb	r3, [r7, #15]
}
 800325c:	4618      	mov	r0, r3
 800325e:	3714      	adds	r7, #20
 8003260:	46bd      	mov	sp, r7
 8003262:	bc80      	pop	{r7}
 8003264:	4770      	bx	lr

08003266 <HAL_GPIO_WritePin>:
  *            @arg GPIO_PIN_RESET: to clear the port pin
  *            @arg GPIO_PIN_SET: to set the port pin
  * @retval None
  */
void HAL_GPIO_WritePin(GPIO_TypeDef *GPIOx, uint16_t GPIO_Pin, GPIO_PinState PinState)
{
 8003266:	b480      	push	{r7}
 8003268:	b083      	sub	sp, #12
 800326a:	af00      	add	r7, sp, #0
 800326c:	6078      	str	r0, [r7, #4]
 800326e:	460b      	mov	r3, r1
 8003270:	807b      	strh	r3, [r7, #2]
 8003272:	4613      	mov	r3, r2
 8003274:	707b      	strb	r3, [r7, #1]
  /* Check the parameters */
  assert_param(IS_GPIO_PIN(GPIO_Pin));
  assert_param(IS_GPIO_PIN_ACTION(PinState));

  if (PinState != GPIO_PIN_RESET)
 8003276:	787b      	ldrb	r3, [r7, #1]
 8003278:	2b00      	cmp	r3, #0
 800327a:	d003      	beq.n	8003284 <HAL_GPIO_WritePin+0x1e>
  {
    GPIOx->BSRR = GPIO_Pin;
 800327c:	887a      	ldrh	r2, [r7, #2]
 800327e:	687b      	ldr	r3, [r7, #4]
 8003280:	611a      	str	r2, [r3, #16]
  }
  else
  {
    GPIOx->BSRR = (uint32_t)GPIO_Pin << 16u;
  }
}
 8003282:	e003      	b.n	800328c <HAL_GPIO_WritePin+0x26>
    GPIOx->BSRR = (uint32_t)GPIO_Pin << 16u;
 8003284:	887b      	ldrh	r3, [r7, #2]
 8003286:	041a      	lsls	r2, r3, #16
 8003288:	687b      	ldr	r3, [r7, #4]
 800328a:	611a      	str	r2, [r3, #16]
}
 800328c:	bf00      	nop
 800328e:	370c      	adds	r7, #12
 8003290:	46bd      	mov	sp, r7
 8003292:	bc80      	pop	{r7}
 8003294:	4770      	bx	lr
	...

08003298 <HAL_RCC_OscConfig>:
  *         supported by this macro. User should request a transition to HSE Off
  *         first and then HSE On or HSE Bypass.
  * @retval HAL status
  */
HAL_StatusTypeDef HAL_RCC_OscConfig(RCC_OscInitTypeDef  *RCC_OscInitStruct)
{
 8003298:	b580      	push	{r7, lr}
 800329a:	b086      	sub	sp, #24
 800329c:	af00      	add	r7, sp, #0
 800329e:	6078      	str	r0, [r7, #4]
  uint32_t tickstart;
  uint32_t pll_config;

  /* Check Null pointer */
  if (RCC_OscInitStruct == NULL)
 80032a0:	687b      	ldr	r3, [r7, #4]
 80032a2:	2b00      	cmp	r3, #0
 80032a4:	d101      	bne.n	80032aa <HAL_RCC_OscConfig+0x12>
  {
    return HAL_ERROR;
 80032a6:	2301      	movs	r3, #1
 80032a8:	e272      	b.n	8003790 <HAL_RCC_OscConfig+0x4f8>

  /* Check the parameters */
  assert_param(IS_RCC_OSCILLATORTYPE(RCC_OscInitStruct->OscillatorType));

  /*------------------------------- HSE Configuration ------------------------*/
  if (((RCC_OscInitStruct->OscillatorType) & RCC_OSCILLATORTYPE_HSE) == RCC_OSCILLATORTYPE_HSE)
 80032aa:	687b      	ldr	r3, [r7, #4]
 80032ac:	681b      	ldr	r3, [r3, #0]
 80032ae:	f003 0301 	and.w	r3, r3, #1
 80032b2:	2b00      	cmp	r3, #0
 80032b4:	f000 8087 	beq.w	80033c6 <HAL_RCC_OscConfig+0x12e>
  {
    /* Check the parameters */
    assert_param(IS_RCC_HSE(RCC_OscInitStruct->HSEState));

    /* When the HSE is used as system clock or clock source for PLL in these cases it is not allowed to be disabled */
    if ((__HAL_RCC_GET_SYSCLK_SOURCE() == RCC_SYSCLKSOURCE_STATUS_HSE)
 80032b8:	4b92      	ldr	r3, [pc, #584]	@ (8003504 <HAL_RCC_OscConfig+0x26c>)
 80032ba:	685b      	ldr	r3, [r3, #4]
 80032bc:	f003 030c 	and.w	r3, r3, #12
 80032c0:	2b04      	cmp	r3, #4
 80032c2:	d00c      	beq.n	80032de <HAL_RCC_OscConfig+0x46>
        || ((__HAL_RCC_GET_SYSCLK_SOURCE() == RCC_SYSCLKSOURCE_STATUS_PLLCLK) && (__HAL_RCC_GET_PLL_OSCSOURCE() == RCC_PLLSOURCE_HSE)))
 80032c4:	4b8f      	ldr	r3, [pc, #572]	@ (8003504 <HAL_RCC_OscConfig+0x26c>)
 80032c6:	685b      	ldr	r3, [r3, #4]
 80032c8:	f003 030c 	and.w	r3, r3, #12
 80032cc:	2b08      	cmp	r3, #8
 80032ce:	d112      	bne.n	80032f6 <HAL_RCC_OscConfig+0x5e>
 80032d0:	4b8c      	ldr	r3, [pc, #560]	@ (8003504 <HAL_RCC_OscConfig+0x26c>)
 80032d2:	685b      	ldr	r3, [r3, #4]
 80032d4:	f403 3380 	and.w	r3, r3, #65536	@ 0x10000
 80032d8:	f5b3 3f80 	cmp.w	r3, #65536	@ 0x10000
 80032dc:	d10b      	bne.n	80032f6 <HAL_RCC_OscConfig+0x5e>
    {
      if ((__HAL_RCC_GET_FLAG(RCC_FLAG_HSERDY) != RESET) && (RCC_OscInitStruct->HSEState == RCC_HSE_OFF))
 80032de:	4b89      	ldr	r3, [pc, #548]	@ (8003504 <HAL_RCC_OscConfig+0x26c>)
 80032e0:	681b      	ldr	r3, [r3, #0]
 80032e2:	f403 3300 	and.w	r3, r3, #131072	@ 0x20000
 80032e6:	2b00      	cmp	r3, #0
 80032e8:	d06c      	beq.n	80033c4 <HAL_RCC_OscConfig+0x12c>
 80032ea:	687b      	ldr	r3, [r7, #4]
 80032ec:	685b      	ldr	r3, [r3, #4]
 80032ee:	2b00      	cmp	r3, #0
 80032f0:	d168      	bne.n	80033c4 <HAL_RCC_OscConfig+0x12c>
      {
        return HAL_ERROR;
 80032f2:	2301      	movs	r3, #1
 80032f4:	e24c      	b.n	8003790 <HAL_RCC_OscConfig+0x4f8>
      }
    }
    else
    {
      /* Set the new HSE configuration ---------------------------------------*/
      __HAL_RCC_HSE_CONFIG(RCC_OscInitStruct->HSEState);
 80032f6:	687b      	ldr	r3, [r7, #4]
 80032f8:	685b      	ldr	r3, [r3, #4]
 80032fa:	f5b3 3f80 	cmp.w	r3, #65536	@ 0x10000
 80032fe:	d106      	bne.n	800330e <HAL_RCC_OscConfig+0x76>
 8003300:	4b80      	ldr	r3, [pc, #512]	@ (8003504 <HAL_RCC_OscConfig+0x26c>)
 8003302:	681b      	ldr	r3, [r3, #0]
 8003304:	4a7f      	ldr	r2, [pc, #508]	@ (8003504 <HAL_RCC_OscConfig+0x26c>)
 8003306:	f443 3380 	orr.w	r3, r3, #65536	@ 0x10000
 800330a:	6013      	str	r3, [r2, #0]
 800330c:	e02e      	b.n	800336c <HAL_RCC_OscConfig+0xd4>
 800330e:	687b      	ldr	r3, [r7, #4]
 8003310:	685b      	ldr	r3, [r3, #4]
 8003312:	2b00      	cmp	r3, #0
 8003314:	d10c      	bne.n	8003330 <HAL_RCC_OscConfig+0x98>
 8003316:	4b7b      	ldr	r3, [pc, #492]	@ (8003504 <HAL_RCC_OscConfig+0x26c>)
 8003318:	681b      	ldr	r3, [r3, #0]
 800331a:	4a7a      	ldr	r2, [pc, #488]	@ (8003504 <HAL_RCC_OscConfig+0x26c>)
 800331c:	f423 3380 	bic.w	r3, r3, #65536	@ 0x10000
 8003320:	6013      	str	r3, [r2, #0]
 8003322:	4b78      	ldr	r3, [pc, #480]	@ (8003504 <HAL_RCC_OscConfig+0x26c>)
 8003324:	681b      	ldr	r3, [r3, #0]
 8003326:	4a77      	ldr	r2, [pc, #476]	@ (8003504 <HAL_RCC_OscConfig+0x26c>)
 8003328:	f423 2380 	bic.w	r3, r3, #262144	@ 0x40000
 800332c:	6013      	str	r3, [r2, #0]
 800332e:	e01d      	b.n	800336c <HAL_RCC_OscConfig+0xd4>
 8003330:	687b      	ldr	r3, [r7, #4]
 8003332:	685b      	ldr	r3, [r3, #4]
 8003334:	f5b3 2fa0 	cmp.w	r3, #327680	@ 0x50000
 8003338:	d10c      	bne.n	8003354 <HAL_RCC_OscConfig+0xbc>
 800333a:	4b72      	ldr	r3, [pc, #456]	@ (8003504 <HAL_RCC_OscConfig+0x26c>)
 800333c:	681b      	ldr	r3, [r3, #0]
 800333e:	4a71      	ldr	r2, [pc, #452]	@ (8003504 <HAL_RCC_OscConfig+0x26c>)
 8003340:	f443 2380 	orr.w	r3, r3, #262144	@ 0x40000
 8003344:	6013      	str	r3, [r2, #0]
 8003346:	4b6f      	ldr	r3, [pc, #444]	@ (8003504 <HAL_RCC_OscConfig+0x26c>)
 8003348:	681b      	ldr	r3, [r3, #0]
 800334a:	4a6e      	ldr	r2, [pc, #440]	@ (8003504 <HAL_RCC_OscConfig+0x26c>)
 800334c:	f443 3380 	orr.w	r3, r3, #65536	@ 0x10000
 8003350:	6013      	str	r3, [r2, #0]
 8003352:	e00b      	b.n	800336c <HAL_RCC_OscConfig+0xd4>
 8003354:	4b6b      	ldr	r3, [pc, #428]	@ (8003504 <HAL_RCC_OscConfig+0x26c>)
 8003356:	681b      	ldr	r3, [r3, #0]
 8003358:	4a6a      	ldr	r2, [pc, #424]	@ (8003504 <HAL_RCC_OscConfig+0x26c>)
 800335a:	f423 3380 	bic.w	r3, r3, #65536	@ 0x10000
 800335e:	6013      	str	r3, [r2, #0]
 8003360:	4b68      	ldr	r3, [pc, #416]	@ (8003504 <HAL_RCC_OscConfig+0x26c>)
 8003362:	681b      	ldr	r3, [r3, #0]
 8003364:	4a67      	ldr	r2, [pc, #412]	@ (8003504 <HAL_RCC_OscConfig+0x26c>)
 8003366:	f423 2380 	bic.w	r3, r3, #262144	@ 0x40000
 800336a:	6013      	str	r3, [r2, #0]


      /* Check the HSE State */
      if (RCC_OscInitStruct->HSEState != RCC_HSE_OFF)
 800336c:	687b      	ldr	r3, [r7, #4]
 800336e:	685b      	ldr	r3, [r3, #4]
 8003370:	2b00      	cmp	r3, #0
 8003372:	d013      	beq.n	800339c <HAL_RCC_OscConfig+0x104>
      {
        /* Get Start Tick */
        tickstart = HAL_GetTick();
 8003374:	f7fe ffa2 	bl	80022bc <HAL_GetTick>
 8003378:	6138      	str	r0, [r7, #16]

        /* Wait till HSE is ready */
        while (__HAL_RCC_GET_FLAG(RCC_FLAG_HSERDY) == RESET)
 800337a:	e008      	b.n	800338e <HAL_RCC_OscConfig+0xf6>
        {
          if ((HAL_GetTick() - tickstart) > HSE_TIMEOUT_VALUE)
 800337c:	f7fe ff9e 	bl	80022bc <HAL_GetTick>
 8003380:	4602      	mov	r2, r0
 8003382:	693b      	ldr	r3, [r7, #16]
 8003384:	1ad3      	subs	r3, r2, r3
 8003386:	2b64      	cmp	r3, #100	@ 0x64
 8003388:	d901      	bls.n	800338e <HAL_RCC_OscConfig+0xf6>
          {
            return HAL_TIMEOUT;
 800338a:	2303      	movs	r3, #3
 800338c:	e200      	b.n	8003790 <HAL_RCC_OscConfig+0x4f8>
        while (__HAL_RCC_GET_FLAG(RCC_FLAG_HSERDY) == RESET)
 800338e:	4b5d      	ldr	r3, [pc, #372]	@ (8003504 <HAL_RCC_OscConfig+0x26c>)
 8003390:	681b      	ldr	r3, [r3, #0]
 8003392:	f403 3300 	and.w	r3, r3, #131072	@ 0x20000
 8003396:	2b00      	cmp	r3, #0
 8003398:	d0f0      	beq.n	800337c <HAL_RCC_OscConfig+0xe4>
 800339a:	e014      	b.n	80033c6 <HAL_RCC_OscConfig+0x12e>
        }
      }
      else
      {
        /* Get Start Tick */
        tickstart = HAL_GetTick();
 800339c:	f7fe ff8e 	bl	80022bc <HAL_GetTick>
 80033a0:	6138      	str	r0, [r7, #16]

        /* Wait till HSE is disabled */
        while (__HAL_RCC_GET_FLAG(RCC_FLAG_HSERDY) != RESET)
 80033a2:	e008      	b.n	80033b6 <HAL_RCC_OscConfig+0x11e>
        {
          if ((HAL_GetTick() - tickstart) > HSE_TIMEOUT_VALUE)
 80033a4:	f7fe ff8a 	bl	80022bc <HAL_GetTick>
 80033a8:	4602      	mov	r2, r0
 80033aa:	693b      	ldr	r3, [r7, #16]
 80033ac:	1ad3      	subs	r3, r2, r3
 80033ae:	2b64      	cmp	r3, #100	@ 0x64
 80033b0:	d901      	bls.n	80033b6 <HAL_RCC_OscConfig+0x11e>
          {
            return HAL_TIMEOUT;
 80033b2:	2303      	movs	r3, #3
 80033b4:	e1ec      	b.n	8003790 <HAL_RCC_OscConfig+0x4f8>
        while (__HAL_RCC_GET_FLAG(RCC_FLAG_HSERDY) != RESET)
 80033b6:	4b53      	ldr	r3, [pc, #332]	@ (8003504 <HAL_RCC_OscConfig+0x26c>)
 80033b8:	681b      	ldr	r3, [r3, #0]
 80033ba:	f403 3300 	and.w	r3, r3, #131072	@ 0x20000
 80033be:	2b00      	cmp	r3, #0
 80033c0:	d1f0      	bne.n	80033a4 <HAL_RCC_OscConfig+0x10c>
 80033c2:	e000      	b.n	80033c6 <HAL_RCC_OscConfig+0x12e>
      if ((__HAL_RCC_GET_FLAG(RCC_FLAG_HSERDY) != RESET) && (RCC_OscInitStruct->HSEState == RCC_HSE_OFF))
 80033c4:	bf00      	nop
        }
      }
    }
  }
  /*----------------------------- HSI Configuration --------------------------*/
  if (((RCC_OscInitStruct->OscillatorType) & RCC_OSCILLATORTYPE_HSI) == RCC_OSCILLATORTYPE_HSI)
 80033c6:	687b      	ldr	r3, [r7, #4]
 80033c8:	681b      	ldr	r3, [r3, #0]
 80033ca:	f003 0302 	and.w	r3, r3, #2
 80033ce:	2b00      	cmp	r3, #0
 80033d0:	d063      	beq.n	800349a <HAL_RCC_OscConfig+0x202>
    /* Check the parameters */
    assert_param(IS_RCC_HSI(RCC_OscInitStruct->HSIState));
    assert_param(IS_RCC_CALIBRATION_VALUE(RCC_OscInitStruct->HSICalibrationValue));

    /* Check if HSI is used as system clock or as PLL source when PLL is selected as system clock */
    if ((__HAL_RCC_GET_SYSCLK_SOURCE() == RCC_SYSCLKSOURCE_STATUS_HSI)
 80033d2:	4b4c      	ldr	r3, [pc, #304]	@ (8003504 <HAL_RCC_OscConfig+0x26c>)
 80033d4:	685b      	ldr	r3, [r3, #4]
 80033d6:	f003 030c 	and.w	r3, r3, #12
 80033da:	2b00      	cmp	r3, #0
 80033dc:	d00b      	beq.n	80033f6 <HAL_RCC_OscConfig+0x15e>
        || ((__HAL_RCC_GET_SYSCLK_SOURCE() == RCC_SYSCLKSOURCE_STATUS_PLLCLK) && (__HAL_RCC_GET_PLL_OSCSOURCE() == RCC_PLLSOURCE_HSI_DIV2)))
 80033de:	4b49      	ldr	r3, [pc, #292]	@ (8003504 <HAL_RCC_OscConfig+0x26c>)
 80033e0:	685b      	ldr	r3, [r3, #4]
 80033e2:	f003 030c 	and.w	r3, r3, #12
 80033e6:	2b08      	cmp	r3, #8
 80033e8:	d11c      	bne.n	8003424 <HAL_RCC_OscConfig+0x18c>
 80033ea:	4b46      	ldr	r3, [pc, #280]	@ (8003504 <HAL_RCC_OscConfig+0x26c>)
 80033ec:	685b      	ldr	r3, [r3, #4]
 80033ee:	f403 3380 	and.w	r3, r3, #65536	@ 0x10000
 80033f2:	2b00      	cmp	r3, #0
 80033f4:	d116      	bne.n	8003424 <HAL_RCC_OscConfig+0x18c>
    {
      /* When HSI is used as system clock it will not disabled */
      if ((__HAL_RCC_GET_FLAG(RCC_FLAG_HSIRDY) != RESET) && (RCC_OscInitStruct->HSIState != RCC_HSI_ON))
 80033f6:	4b43      	ldr	r3, [pc, #268]	@ (8003504 <HAL_RCC_OscConfig+0x26c>)
 80033f8:	681b      	ldr	r3, [r3, #0]
 80033fa:	f003 0302 	and.w	r3, r3, #2
 80033fe:	2b00      	cmp	r3, #0
 8003400:	d005      	beq.n	800340e <HAL_RCC_OscConfig+0x176>
 8003402:	687b      	ldr	r3, [r7, #4]
 8003404:	691b      	ldr	r3, [r3, #16]
 8003406:	2b01      	cmp	r3, #1
 8003408:	d001      	beq.n	800340e <HAL_RCC_OscConfig+0x176>
      {
        return HAL_ERROR;
 800340a:	2301      	movs	r3, #1
 800340c:	e1c0      	b.n	8003790 <HAL_RCC_OscConfig+0x4f8>
      }
      /* Otherwise, just the calibration is allowed */
      else
      {
        /* Adjusts the Internal High Speed oscillator (HSI) calibration value.*/
        __HAL_RCC_HSI_CALIBRATIONVALUE_ADJUST(RCC_OscInitStruct->HSICalibrationValue);
 800340e:	4b3d      	ldr	r3, [pc, #244]	@ (8003504 <HAL_RCC_OscConfig+0x26c>)
 8003410:	681b      	ldr	r3, [r3, #0]
 8003412:	f023 02f8 	bic.w	r2, r3, #248	@ 0xf8
 8003416:	687b      	ldr	r3, [r7, #4]
 8003418:	695b      	ldr	r3, [r3, #20]
 800341a:	00db      	lsls	r3, r3, #3
 800341c:	4939      	ldr	r1, [pc, #228]	@ (8003504 <HAL_RCC_OscConfig+0x26c>)
 800341e:	4313      	orrs	r3, r2
 8003420:	600b      	str	r3, [r1, #0]
      if ((__HAL_RCC_GET_FLAG(RCC_FLAG_HSIRDY) != RESET) && (RCC_OscInitStruct->HSIState != RCC_HSI_ON))
 8003422:	e03a      	b.n	800349a <HAL_RCC_OscConfig+0x202>
      }
    }
    else
    {
      /* Check the HSI State */
      if (RCC_OscInitStruct->HSIState != RCC_HSI_OFF)
 8003424:	687b      	ldr	r3, [r7, #4]
 8003426:	691b      	ldr	r3, [r3, #16]
 8003428:	2b00      	cmp	r3, #0
 800342a:	d020      	beq.n	800346e <HAL_RCC_OscConfig+0x1d6>
      {
        /* Enable the Internal High Speed oscillator (HSI). */
        __HAL_RCC_HSI_ENABLE();
 800342c:	4b36      	ldr	r3, [pc, #216]	@ (8003508 <HAL_RCC_OscConfig+0x270>)
 800342e:	2201      	movs	r2, #1
 8003430:	601a      	str	r2, [r3, #0]

        /* Get Start Tick */
        tickstart = HAL_GetTick();
 8003432:	f7fe ff43 	bl	80022bc <HAL_GetTick>
 8003436:	6138      	str	r0, [r7, #16]

        /* Wait till HSI is ready */
        while (__HAL_RCC_GET_FLAG(RCC_FLAG_HSIRDY) == RESET)
 8003438:	e008      	b.n	800344c <HAL_RCC_OscConfig+0x1b4>
        {
          if ((HAL_GetTick() - tickstart) > HSI_TIMEOUT_VALUE)
 800343a:	f7fe ff3f 	bl	80022bc <HAL_GetTick>
 800343e:	4602      	mov	r2, r0
 8003440:	693b      	ldr	r3, [r7, #16]
 8003442:	1ad3      	subs	r3, r2, r3
 8003444:	2b02      	cmp	r3, #2
 8003446:	d901      	bls.n	800344c <HAL_RCC_OscConfig+0x1b4>
          {
            return HAL_TIMEOUT;
 8003448:	2303      	movs	r3, #3
 800344a:	e1a1      	b.n	8003790 <HAL_RCC_OscConfig+0x4f8>
        while (__HAL_RCC_GET_FLAG(RCC_FLAG_HSIRDY) == RESET)
 800344c:	4b2d      	ldr	r3, [pc, #180]	@ (8003504 <HAL_RCC_OscConfig+0x26c>)
 800344e:	681b      	ldr	r3, [r3, #0]
 8003450:	f003 0302 	and.w	r3, r3, #2
 8003454:	2b00      	cmp	r3, #0
 8003456:	d0f0      	beq.n	800343a <HAL_RCC_OscConfig+0x1a2>
          }
        }

        /* Adjusts the Internal High Speed oscillator (HSI) calibration value.*/
        __HAL_RCC_HSI_CALIBRATIONVALUE_ADJUST(RCC_OscInitStruct->HSICalibrationValue);
 8003458:	4b2a      	ldr	r3, [pc, #168]	@ (8003504 <HAL_RCC_OscConfig+0x26c>)
 800345a:	681b      	ldr	r3, [r3, #0]
 800345c:	f023 02f8 	bic.w	r2, r3, #248	@ 0xf8
 8003460:	687b      	ldr	r3, [r7, #4]
 8003462:	695b      	ldr	r3, [r3, #20]
 8003464:	00db      	lsls	r3, r3, #3
 8003466:	4927      	ldr	r1, [pc, #156]	@ (8003504 <HAL_RCC_OscConfig+0x26c>)
 8003468:	4313      	orrs	r3, r2
 800346a:	600b      	str	r3, [r1, #0]
 800346c:	e015      	b.n	800349a <HAL_RCC_OscConfig+0x202>
      }
      else
      {
        /* Disable the Internal High Speed oscillator (HSI). */
        __HAL_RCC_HSI_DISABLE();
 800346e:	4b26      	ldr	r3, [pc, #152]	@ (8003508 <HAL_RCC_OscConfig+0x270>)
 8003470:	2200      	movs	r2, #0
 8003472:	601a      	str	r2, [r3, #0]

        /* Get Start Tick */
        tickstart = HAL_GetTick();
 8003474:	f7fe ff22 	bl	80022bc <HAL_GetTick>
 8003478:	6138      	str	r0, [r7, #16]

        /* Wait till HSI is disabled */
        while (__HAL_RCC_GET_FLAG(RCC_FLAG_HSIRDY) != RESET)
 800347a:	e008      	b.n	800348e <HAL_RCC_OscConfig+0x1f6>
        {
          if ((HAL_GetTick() - tickstart) > HSI_TIMEOUT_VALUE)
 800347c:	f7fe ff1e 	bl	80022bc <HAL_GetTick>
 8003480:	4602      	mov	r2, r0
 8003482:	693b      	ldr	r3, [r7, #16]
 8003484:	1ad3      	subs	r3, r2, r3
 8003486:	2b02      	cmp	r3, #2
 8003488:	d901      	bls.n	800348e <HAL_RCC_OscConfig+0x1f6>
          {
            return HAL_TIMEOUT;
 800348a:	2303      	movs	r3, #3
 800348c:	e180      	b.n	8003790 <HAL_RCC_OscConfig+0x4f8>
        while (__HAL_RCC_GET_FLAG(RCC_FLAG_HSIRDY) != RESET)
 800348e:	4b1d      	ldr	r3, [pc, #116]	@ (8003504 <HAL_RCC_OscConfig+0x26c>)
 8003490:	681b      	ldr	r3, [r3, #0]
 8003492:	f003 0302 	and.w	r3, r3, #2
 8003496:	2b00      	cmp	r3, #0
 8003498:	d1f0      	bne.n	800347c <HAL_RCC_OscConfig+0x1e4>
        }
      }
    }
  }
  /*------------------------------ LSI Configuration -------------------------*/
  if (((RCC_OscInitStruct->OscillatorType) & RCC_OSCILLATORTYPE_LSI) == RCC_OSCILLATORTYPE_LSI)
 800349a:	687b      	ldr	r3, [r7, #4]
 800349c:	681b      	ldr	r3, [r3, #0]
 800349e:	f003 0308 	and.w	r3, r3, #8
 80034a2:	2b00      	cmp	r3, #0
 80034a4:	d03a      	beq.n	800351c <HAL_RCC_OscConfig+0x284>
  {
    /* Check the parameters */
    assert_param(IS_RCC_LSI(RCC_OscInitStruct->LSIState));

    /* Check the LSI State */
    if (RCC_OscInitStruct->LSIState != RCC_LSI_OFF)
 80034a6:	687b      	ldr	r3, [r7, #4]
 80034a8:	699b      	ldr	r3, [r3, #24]
 80034aa:	2b00      	cmp	r3, #0
 80034ac:	d019      	beq.n	80034e2 <HAL_RCC_OscConfig+0x24a>
    {
      /* Enable the Internal Low Speed oscillator (LSI). */
      __HAL_RCC_LSI_ENABLE();
 80034ae:	4b17      	ldr	r3, [pc, #92]	@ (800350c <HAL_RCC_OscConfig+0x274>)
 80034b0:	2201      	movs	r2, #1
 80034b2:	601a      	str	r2, [r3, #0]

      /* Get Start Tick */
      tickstart = HAL_GetTick();
 80034b4:	f7fe ff02 	bl	80022bc <HAL_GetTick>
 80034b8:	6138      	str	r0, [r7, #16]

      /* Wait till LSI is ready */
      while (__HAL_RCC_GET_FLAG(RCC_FLAG_LSIRDY) == RESET)
 80034ba:	e008      	b.n	80034ce <HAL_RCC_OscConfig+0x236>
      {
        if ((HAL_GetTick() - tickstart) > LSI_TIMEOUT_VALUE)
 80034bc:	f7fe fefe 	bl	80022bc <HAL_GetTick>
 80034c0:	4602      	mov	r2, r0
 80034c2:	693b      	ldr	r3, [r7, #16]
 80034c4:	1ad3      	subs	r3, r2, r3
 80034c6:	2b02      	cmp	r3, #2
 80034c8:	d901      	bls.n	80034ce <HAL_RCC_OscConfig+0x236>
        {
          return HAL_TIMEOUT;
 80034ca:	2303      	movs	r3, #3
 80034cc:	e160      	b.n	8003790 <HAL_RCC_OscConfig+0x4f8>
      while (__HAL_RCC_GET_FLAG(RCC_FLAG_LSIRDY) == RESET)
 80034ce:	4b0d      	ldr	r3, [pc, #52]	@ (8003504 <HAL_RCC_OscConfig+0x26c>)
 80034d0:	6a5b      	ldr	r3, [r3, #36]	@ 0x24
 80034d2:	f003 0302 	and.w	r3, r3, #2
 80034d6:	2b00      	cmp	r3, #0
 80034d8:	d0f0      	beq.n	80034bc <HAL_RCC_OscConfig+0x224>
        }
      }
      /*  To have a fully stabilized clock in the specified range, a software delay of 1ms
          should be added.*/
      RCC_Delay(1);
 80034da:	2001      	movs	r0, #1
 80034dc:	f000 face 	bl	8003a7c <RCC_Delay>
 80034e0:	e01c      	b.n	800351c <HAL_RCC_OscConfig+0x284>
    }
    else
    {
      /* Disable the Internal Low Speed oscillator (LSI). */
      __HAL_RCC_LSI_DISABLE();
 80034e2:	4b0a      	ldr	r3, [pc, #40]	@ (800350c <HAL_RCC_OscConfig+0x274>)
 80034e4:	2200      	movs	r2, #0
 80034e6:	601a      	str	r2, [r3, #0]

      /* Get Start Tick */
      tickstart = HAL_GetTick();
 80034e8:	f7fe fee8 	bl	80022bc <HAL_GetTick>
 80034ec:	6138      	str	r0, [r7, #16]

      /* Wait till LSI is disabled */
      while (__HAL_RCC_GET_FLAG(RCC_FLAG_LSIRDY) != RESET)
 80034ee:	e00f      	b.n	8003510 <HAL_RCC_OscConfig+0x278>
      {
        if ((HAL_GetTick() - tickstart) > LSI_TIMEOUT_VALUE)
 80034f0:	f7fe fee4 	bl	80022bc <HAL_GetTick>
 80034f4:	4602      	mov	r2, r0
 80034f6:	693b      	ldr	r3, [r7, #16]
 80034f8:	1ad3      	subs	r3, r2, r3
 80034fa:	2b02      	cmp	r3, #2
 80034fc:	d908      	bls.n	8003510 <HAL_RCC_OscConfig+0x278>
        {
          return HAL_TIMEOUT;
 80034fe:	2303      	movs	r3, #3
 8003500:	e146      	b.n	8003790 <HAL_RCC_OscConfig+0x4f8>
 8003502:	bf00      	nop
 8003504:	40021000 	.word	0x40021000
 8003508:	42420000 	.word	0x42420000
 800350c:	42420480 	.word	0x42420480
      while (__HAL_RCC_GET_FLAG(RCC_FLAG_LSIRDY) != RESET)
 8003510:	4b92      	ldr	r3, [pc, #584]	@ (800375c <HAL_RCC_OscConfig+0x4c4>)
 8003512:	6a5b      	ldr	r3, [r3, #36]	@ 0x24
 8003514:	f003 0302 	and.w	r3, r3, #2
 8003518:	2b00      	cmp	r3, #0
 800351a:	d1e9      	bne.n	80034f0 <HAL_RCC_OscConfig+0x258>
        }
      }
    }
  }
  /*------------------------------ LSE Configuration -------------------------*/
  if (((RCC_OscInitStruct->OscillatorType) & RCC_OSCILLATORTYPE_LSE) == RCC_OSCILLATORTYPE_LSE)
 800351c:	687b      	ldr	r3, [r7, #4]
 800351e:	681b      	ldr	r3, [r3, #0]
 8003520:	f003 0304 	and.w	r3, r3, #4
 8003524:	2b00      	cmp	r3, #0
 8003526:	f000 80a6 	beq.w	8003676 <HAL_RCC_OscConfig+0x3de>
  {
    FlagStatus       pwrclkchanged = RESET;
 800352a:	2300      	movs	r3, #0
 800352c:	75fb      	strb	r3, [r7, #23]
    /* Check the parameters */
    assert_param(IS_RCC_LSE(RCC_OscInitStruct->LSEState));

    /* Update LSE configuration in Backup Domain control register    */
    /* Requires to enable write access to Backup Domain of necessary */
    if (__HAL_RCC_PWR_IS_CLK_DISABLED())
 800352e:	4b8b      	ldr	r3, [pc, #556]	@ (800375c <HAL_RCC_OscConfig+0x4c4>)
 8003530:	69db      	ldr	r3, [r3, #28]
 8003532:	f003 5380 	and.w	r3, r3, #268435456	@ 0x10000000
 8003536:	2b00      	cmp	r3, #0
 8003538:	d10d      	bne.n	8003556 <HAL_RCC_OscConfig+0x2be>
    {
      __HAL_RCC_PWR_CLK_ENABLE();
 800353a:	4b88      	ldr	r3, [pc, #544]	@ (800375c <HAL_RCC_OscConfig+0x4c4>)
 800353c:	69db      	ldr	r3, [r3, #28]
 800353e:	4a87      	ldr	r2, [pc, #540]	@ (800375c <HAL_RCC_OscConfig+0x4c4>)
 8003540:	f043 5380 	orr.w	r3, r3, #268435456	@ 0x10000000
 8003544:	61d3      	str	r3, [r2, #28]
 8003546:	4b85      	ldr	r3, [pc, #532]	@ (800375c <HAL_RCC_OscConfig+0x4c4>)
 8003548:	69db      	ldr	r3, [r3, #28]
 800354a:	f003 5380 	and.w	r3, r3, #268435456	@ 0x10000000
 800354e:	60bb      	str	r3, [r7, #8]
 8003550:	68bb      	ldr	r3, [r7, #8]
      pwrclkchanged = SET;
 8003552:	2301      	movs	r3, #1
 8003554:	75fb      	strb	r3, [r7, #23]
    }

    if (HAL_IS_BIT_CLR(PWR->CR, PWR_CR_DBP))
 8003556:	4b82      	ldr	r3, [pc, #520]	@ (8003760 <HAL_RCC_OscConfig+0x4c8>)
 8003558:	681b      	ldr	r3, [r3, #0]
 800355a:	f403 7380 	and.w	r3, r3, #256	@ 0x100
 800355e:	2b00      	cmp	r3, #0
 8003560:	d118      	bne.n	8003594 <HAL_RCC_OscConfig+0x2fc>
    {
      /* Enable write access to Backup domain */
      SET_BIT(PWR->CR, PWR_CR_DBP);
 8003562:	4b7f      	ldr	r3, [pc, #508]	@ (8003760 <HAL_RCC_OscConfig+0x4c8>)
 8003564:	681b      	ldr	r3, [r3, #0]
 8003566:	4a7e      	ldr	r2, [pc, #504]	@ (8003760 <HAL_RCC_OscConfig+0x4c8>)
 8003568:	f443 7380 	orr.w	r3, r3, #256	@ 0x100
 800356c:	6013      	str	r3, [r2, #0]

      /* Wait for Backup domain Write protection disable */
      tickstart = HAL_GetTick();
 800356e:	f7fe fea5 	bl	80022bc <HAL_GetTick>
 8003572:	6138      	str	r0, [r7, #16]

      while (HAL_IS_BIT_CLR(PWR->CR, PWR_CR_DBP))
 8003574:	e008      	b.n	8003588 <HAL_RCC_OscConfig+0x2f0>
      {
        if ((HAL_GetTick() - tickstart) > RCC_DBP_TIMEOUT_VALUE)
 8003576:	f7fe fea1 	bl	80022bc <HAL_GetTick>
 800357a:	4602      	mov	r2, r0
 800357c:	693b      	ldr	r3, [r7, #16]
 800357e:	1ad3      	subs	r3, r2, r3
 8003580:	2b64      	cmp	r3, #100	@ 0x64
 8003582:	d901      	bls.n	8003588 <HAL_RCC_OscConfig+0x2f0>
        {
          return HAL_TIMEOUT;
 8003584:	2303      	movs	r3, #3
 8003586:	e103      	b.n	8003790 <HAL_RCC_OscConfig+0x4f8>
      while (HAL_IS_BIT_CLR(PWR->CR, PWR_CR_DBP))
 8003588:	4b75      	ldr	r3, [pc, #468]	@ (8003760 <HAL_RCC_OscConfig+0x4c8>)
 800358a:	681b      	ldr	r3, [r3, #0]
 800358c:	f403 7380 	and.w	r3, r3, #256	@ 0x100
 8003590:	2b00      	cmp	r3, #0
 8003592:	d0f0      	beq.n	8003576 <HAL_RCC_OscConfig+0x2de>
        }
      }
    }

    /* Set the new LSE configuration -----------------------------------------*/
    __HAL_RCC_LSE_CONFIG(RCC_OscInitStruct->LSEState);
 8003594:	687b      	ldr	r3, [r7, #4]
 8003596:	68db      	ldr	r3, [r3, #12]
 8003598:	2b01      	cmp	r3, #1
 800359a:	d106      	bne.n	80035aa <HAL_RCC_OscConfig+0x312>
 800359c:	4b6f      	ldr	r3, [pc, #444]	@ (800375c <HAL_RCC_OscConfig+0x4c4>)
 800359e:	6a1b      	ldr	r3, [r3, #32]
 80035a0:	4a6e      	ldr	r2, [pc, #440]	@ (800375c <HAL_RCC_OscConfig+0x4c4>)
 80035a2:	f043 0301 	orr.w	r3, r3, #1
 80035a6:	6213      	str	r3, [r2, #32]
 80035a8:	e02d      	b.n	8003606 <HAL_RCC_OscConfig+0x36e>
 80035aa:	687b      	ldr	r3, [r7, #4]
 80035ac:	68db      	ldr	r3, [r3, #12]
 80035ae:	2b00      	cmp	r3, #0
 80035b0:	d10c      	bne.n	80035cc <HAL_RCC_OscConfig+0x334>
 80035b2:	4b6a      	ldr	r3, [pc, #424]	@ (800375c <HAL_RCC_OscConfig+0x4c4>)
 80035b4:	6a1b      	ldr	r3, [r3, #32]
 80035b6:	4a69      	ldr	r2, [pc, #420]	@ (800375c <HAL_RCC_OscConfig+0x4c4>)
 80035b8:	f023 0301 	bic.w	r3, r3, #1
 80035bc:	6213      	str	r3, [r2, #32]
 80035be:	4b67      	ldr	r3, [pc, #412]	@ (800375c <HAL_RCC_OscConfig+0x4c4>)
 80035c0:	6a1b      	ldr	r3, [r3, #32]
 80035c2:	4a66      	ldr	r2, [pc, #408]	@ (800375c <HAL_RCC_OscConfig+0x4c4>)
 80035c4:	f023 0304 	bic.w	r3, r3, #4
 80035c8:	6213      	str	r3, [r2, #32]
 80035ca:	e01c      	b.n	8003606 <HAL_RCC_OscConfig+0x36e>
 80035cc:	687b      	ldr	r3, [r7, #4]
 80035ce:	68db      	ldr	r3, [r3, #12]
 80035d0:	2b05      	cmp	r3, #5
 80035d2:	d10c      	bne.n	80035ee <HAL_RCC_OscConfig+0x356>
 80035d4:	4b61      	ldr	r3, [pc, #388]	@ (800375c <HAL_RCC_OscConfig+0x4c4>)
 80035d6:	6a1b      	ldr	r3, [r3, #32]
 80035d8:	4a60      	ldr	r2, [pc, #384]	@ (800375c <HAL_RCC_OscConfig+0x4c4>)
 80035da:	f043 0304 	orr.w	r3, r3, #4
 80035de:	6213      	str	r3, [r2, #32]
 80035e0:	4b5e      	ldr	r3, [pc, #376]	@ (800375c <HAL_RCC_OscConfig+0x4c4>)
 80035e2:	6a1b      	ldr	r3, [r3, #32]
 80035e4:	4a5d      	ldr	r2, [pc, #372]	@ (800375c <HAL_RCC_OscConfig+0x4c4>)
 80035e6:	f043 0301 	orr.w	r3, r3, #1
 80035ea:	6213      	str	r3, [r2, #32]
 80035ec:	e00b      	b.n	8003606 <HAL_RCC_OscConfig+0x36e>
 80035ee:	4b5b      	ldr	r3, [pc, #364]	@ (800375c <HAL_RCC_OscConfig+0x4c4>)
 80035f0:	6a1b      	ldr	r3, [r3, #32]
 80035f2:	4a5a      	ldr	r2, [pc, #360]	@ (800375c <HAL_RCC_OscConfig+0x4c4>)
 80035f4:	f023 0301 	bic.w	r3, r3, #1
 80035f8:	6213      	str	r3, [r2, #32]
 80035fa:	4b58      	ldr	r3, [pc, #352]	@ (800375c <HAL_RCC_OscConfig+0x4c4>)
 80035fc:	6a1b      	ldr	r3, [r3, #32]
 80035fe:	4a57      	ldr	r2, [pc, #348]	@ (800375c <HAL_RCC_OscConfig+0x4c4>)
 8003600:	f023 0304 	bic.w	r3, r3, #4
 8003604:	6213      	str	r3, [r2, #32]
    /* Check the LSE State */
    if (RCC_OscInitStruct->LSEState != RCC_LSE_OFF)
 8003606:	687b      	ldr	r3, [r7, #4]
 8003608:	68db      	ldr	r3, [r3, #12]
 800360a:	2b00      	cmp	r3, #0
 800360c:	d015      	beq.n	800363a <HAL_RCC_OscConfig+0x3a2>
    {
      /* Get Start Tick */
      tickstart = HAL_GetTick();
 800360e:	f7fe fe55 	bl	80022bc <HAL_GetTick>
 8003612:	6138      	str	r0, [r7, #16]

      /* Wait till LSE is ready */
      while (__HAL_RCC_GET_FLAG(RCC_FLAG_LSERDY) == RESET)
 8003614:	e00a      	b.n	800362c <HAL_RCC_OscConfig+0x394>
      {
        if ((HAL_GetTick() - tickstart) > RCC_LSE_TIMEOUT_VALUE)
 8003616:	f7fe fe51 	bl	80022bc <HAL_GetTick>
 800361a:	4602      	mov	r2, r0
 800361c:	693b      	ldr	r3, [r7, #16]
 800361e:	1ad3      	subs	r3, r2, r3
 8003620:	f241 3288 	movw	r2, #5000	@ 0x1388
 8003624:	4293      	cmp	r3, r2
 8003626:	d901      	bls.n	800362c <HAL_RCC_OscConfig+0x394>
        {
          return HAL_TIMEOUT;
 8003628:	2303      	movs	r3, #3
 800362a:	e0b1      	b.n	8003790 <HAL_RCC_OscConfig+0x4f8>
      while (__HAL_RCC_GET_FLAG(RCC_FLAG_LSERDY) == RESET)
 800362c:	4b4b      	ldr	r3, [pc, #300]	@ (800375c <HAL_RCC_OscConfig+0x4c4>)
 800362e:	6a1b      	ldr	r3, [r3, #32]
 8003630:	f003 0302 	and.w	r3, r3, #2
 8003634:	2b00      	cmp	r3, #0
 8003636:	d0ee      	beq.n	8003616 <HAL_RCC_OscConfig+0x37e>
 8003638:	e014      	b.n	8003664 <HAL_RCC_OscConfig+0x3cc>
      }
    }
    else
    {
      /* Get Start Tick */
      tickstart = HAL_GetTick();
 800363a:	f7fe fe3f 	bl	80022bc <HAL_GetTick>
 800363e:	6138      	str	r0, [r7, #16]

      /* Wait till LSE is disabled */
      while (__HAL_RCC_GET_FLAG(RCC_FLAG_LSERDY) != RESET)
 8003640:	e00a      	b.n	8003658 <HAL_RCC_OscConfig+0x3c0>
      {
        if ((HAL_GetTick() - tickstart) > RCC_LSE_TIMEOUT_VALUE)
 8003642:	f7fe fe3b 	bl	80022bc <HAL_GetTick>
 8003646:	4602      	mov	r2, r0
 8003648:	693b      	ldr	r3, [r7, #16]
 800364a:	1ad3      	subs	r3, r2, r3
 800364c:	f241 3288 	movw	r2, #5000	@ 0x1388
 8003650:	4293      	cmp	r3, r2
 8003652:	d901      	bls.n	8003658 <HAL_RCC_OscConfig+0x3c0>
        {
          return HAL_TIMEOUT;
 8003654:	2303      	movs	r3, #3
 8003656:	e09b      	b.n	8003790 <HAL_RCC_OscConfig+0x4f8>
      while (__HAL_RCC_GET_FLAG(RCC_FLAG_LSERDY) != RESET)
 8003658:	4b40      	ldr	r3, [pc, #256]	@ (800375c <HAL_RCC_OscConfig+0x4c4>)
 800365a:	6a1b      	ldr	r3, [r3, #32]
 800365c:	f003 0302 	and.w	r3, r3, #2
 8003660:	2b00      	cmp	r3, #0
 8003662:	d1ee      	bne.n	8003642 <HAL_RCC_OscConfig+0x3aa>
        }
      }
    }

    /* Require to disable power clock if necessary */
    if (pwrclkchanged == SET)
 8003664:	7dfb      	ldrb	r3, [r7, #23]
 8003666:	2b01      	cmp	r3, #1
 8003668:	d105      	bne.n	8003676 <HAL_RCC_OscConfig+0x3de>
    {
      __HAL_RCC_PWR_CLK_DISABLE();
 800366a:	4b3c      	ldr	r3, [pc, #240]	@ (800375c <HAL_RCC_OscConfig+0x4c4>)
 800366c:	69db      	ldr	r3, [r3, #28]
 800366e:	4a3b      	ldr	r2, [pc, #236]	@ (800375c <HAL_RCC_OscConfig+0x4c4>)
 8003670:	f023 5380 	bic.w	r3, r3, #268435456	@ 0x10000000
 8003674:	61d3      	str	r3, [r2, #28]

#endif /* RCC_CR_PLL2ON */
  /*-------------------------------- PLL Configuration -----------------------*/
  /* Check the parameters */
  assert_param(IS_RCC_PLL(RCC_OscInitStruct->PLL.PLLState));
  if ((RCC_OscInitStruct->PLL.PLLState) != RCC_PLL_NONE)
 8003676:	687b      	ldr	r3, [r7, #4]
 8003678:	69db      	ldr	r3, [r3, #28]
 800367a:	2b00      	cmp	r3, #0
 800367c:	f000 8087 	beq.w	800378e <HAL_RCC_OscConfig+0x4f6>
  {
    /* Check if the PLL is used as system clock or not */
    if (__HAL_RCC_GET_SYSCLK_SOURCE() != RCC_SYSCLKSOURCE_STATUS_PLLCLK)
 8003680:	4b36      	ldr	r3, [pc, #216]	@ (800375c <HAL_RCC_OscConfig+0x4c4>)
 8003682:	685b      	ldr	r3, [r3, #4]
 8003684:	f003 030c 	and.w	r3, r3, #12
 8003688:	2b08      	cmp	r3, #8
 800368a:	d061      	beq.n	8003750 <HAL_RCC_OscConfig+0x4b8>
    {
      if ((RCC_OscInitStruct->PLL.PLLState) == RCC_PLL_ON)
 800368c:	687b      	ldr	r3, [r7, #4]
 800368e:	69db      	ldr	r3, [r3, #28]
 8003690:	2b02      	cmp	r3, #2
 8003692:	d146      	bne.n	8003722 <HAL_RCC_OscConfig+0x48a>
        /* Check the parameters */
        assert_param(IS_RCC_PLLSOURCE(RCC_OscInitStruct->PLL.PLLSource));
        assert_param(IS_RCC_PLL_MUL(RCC_OscInitStruct->PLL.PLLMUL));

        /* Disable the main PLL. */
        __HAL_RCC_PLL_DISABLE();
 8003694:	4b33      	ldr	r3, [pc, #204]	@ (8003764 <HAL_RCC_OscConfig+0x4cc>)
 8003696:	2200      	movs	r2, #0
 8003698:	601a      	str	r2, [r3, #0]

        /* Get Start Tick */
        tickstart = HAL_GetTick();
 800369a:	f7fe fe0f 	bl	80022bc <HAL_GetTick>
 800369e:	6138      	str	r0, [r7, #16]

        /* Wait till PLL is disabled */
        while (__HAL_RCC_GET_FLAG(RCC_FLAG_PLLRDY)  != RESET)
 80036a0:	e008      	b.n	80036b4 <HAL_RCC_OscConfig+0x41c>
        {
          if ((HAL_GetTick() - tickstart) > PLL_TIMEOUT_VALUE)
 80036a2:	f7fe fe0b 	bl	80022bc <HAL_GetTick>
 80036a6:	4602      	mov	r2, r0
 80036a8:	693b      	ldr	r3, [r7, #16]
 80036aa:	1ad3      	subs	r3, r2, r3
 80036ac:	2b02      	cmp	r3, #2
 80036ae:	d901      	bls.n	80036b4 <HAL_RCC_OscConfig+0x41c>
          {
            return HAL_TIMEOUT;
 80036b0:	2303      	movs	r3, #3
 80036b2:	e06d      	b.n	8003790 <HAL_RCC_OscConfig+0x4f8>
        while (__HAL_RCC_GET_FLAG(RCC_FLAG_PLLRDY)  != RESET)
 80036b4:	4b29      	ldr	r3, [pc, #164]	@ (800375c <HAL_RCC_OscConfig+0x4c4>)
 80036b6:	681b      	ldr	r3, [r3, #0]
 80036b8:	f003 7300 	and.w	r3, r3, #33554432	@ 0x2000000
 80036bc:	2b00      	cmp	r3, #0
 80036be:	d1f0      	bne.n	80036a2 <HAL_RCC_OscConfig+0x40a>
          }
        }

        /* Configure the HSE prediv factor --------------------------------*/
        /* It can be written only when the PLL is disabled. Not used in PLL source is different than HSE */
        if (RCC_OscInitStruct->PLL.PLLSource == RCC_PLLSOURCE_HSE)
 80036c0:	687b      	ldr	r3, [r7, #4]
 80036c2:	6a1b      	ldr	r3, [r3, #32]
 80036c4:	f5b3 3f80 	cmp.w	r3, #65536	@ 0x10000
 80036c8:	d108      	bne.n	80036dc <HAL_RCC_OscConfig+0x444>
          /* Set PREDIV1 source */
          SET_BIT(RCC->CFGR2, RCC_OscInitStruct->Prediv1Source);
#endif /* RCC_CFGR2_PREDIV1SRC */

          /* Set PREDIV1 Value */
          __HAL_RCC_HSE_PREDIV_CONFIG(RCC_OscInitStruct->HSEPredivValue);
 80036ca:	4b24      	ldr	r3, [pc, #144]	@ (800375c <HAL_RCC_OscConfig+0x4c4>)
 80036cc:	685b      	ldr	r3, [r3, #4]
 80036ce:	f423 3200 	bic.w	r2, r3, #131072	@ 0x20000
 80036d2:	687b      	ldr	r3, [r7, #4]
 80036d4:	689b      	ldr	r3, [r3, #8]
 80036d6:	4921      	ldr	r1, [pc, #132]	@ (800375c <HAL_RCC_OscConfig+0x4c4>)
 80036d8:	4313      	orrs	r3, r2
 80036da:	604b      	str	r3, [r1, #4]
        }

        /* Configure the main PLL clock source and multiplication factors. */
        __HAL_RCC_PLL_CONFIG(RCC_OscInitStruct->PLL.PLLSource,
 80036dc:	4b1f      	ldr	r3, [pc, #124]	@ (800375c <HAL_RCC_OscConfig+0x4c4>)
 80036de:	685b      	ldr	r3, [r3, #4]
 80036e0:	f423 1274 	bic.w	r2, r3, #3997696	@ 0x3d0000
 80036e4:	687b      	ldr	r3, [r7, #4]
 80036e6:	6a19      	ldr	r1, [r3, #32]
 80036e8:	687b      	ldr	r3, [r7, #4]
 80036ea:	6a5b      	ldr	r3, [r3, #36]	@ 0x24
 80036ec:	430b      	orrs	r3, r1
 80036ee:	491b      	ldr	r1, [pc, #108]	@ (800375c <HAL_RCC_OscConfig+0x4c4>)
 80036f0:	4313      	orrs	r3, r2
 80036f2:	604b      	str	r3, [r1, #4]
                             RCC_OscInitStruct->PLL.PLLMUL);
        /* Enable the main PLL. */
        __HAL_RCC_PLL_ENABLE();
 80036f4:	4b1b      	ldr	r3, [pc, #108]	@ (8003764 <HAL_RCC_OscConfig+0x4cc>)
 80036f6:	2201      	movs	r2, #1
 80036f8:	601a      	str	r2, [r3, #0]

        /* Get Start Tick */
        tickstart = HAL_GetTick();
 80036fa:	f7fe fddf 	bl	80022bc <HAL_GetTick>
 80036fe:	6138      	str	r0, [r7, #16]

        /* Wait till PLL is ready */
        while (__HAL_RCC_GET_FLAG(RCC_FLAG_PLLRDY)  == RESET)
 8003700:	e008      	b.n	8003714 <HAL_RCC_OscConfig+0x47c>
        {
          if ((HAL_GetTick() - tickstart) > PLL_TIMEOUT_VALUE)
 8003702:	f7fe fddb 	bl	80022bc <HAL_GetTick>
 8003706:	4602      	mov	r2, r0
 8003708:	693b      	ldr	r3, [r7, #16]
 800370a:	1ad3      	subs	r3, r2, r3
 800370c:	2b02      	cmp	r3, #2
 800370e:	d901      	bls.n	8003714 <HAL_RCC_OscConfig+0x47c>
          {
            return HAL_TIMEOUT;
 8003710:	2303      	movs	r3, #3
 8003712:	e03d      	b.n	8003790 <HAL_RCC_OscConfig+0x4f8>
        while (__HAL_RCC_GET_FLAG(RCC_FLAG_PLLRDY)  == RESET)
 8003714:	4b11      	ldr	r3, [pc, #68]	@ (800375c <HAL_RCC_OscConfig+0x4c4>)
 8003716:	681b      	ldr	r3, [r3, #0]
 8003718:	f003 7300 	and.w	r3, r3, #33554432	@ 0x2000000
 800371c:	2b00      	cmp	r3, #0
 800371e:	d0f0      	beq.n	8003702 <HAL_RCC_OscConfig+0x46a>
 8003720:	e035      	b.n	800378e <HAL_RCC_OscConfig+0x4f6>
        }
      }
      else
      {
        /* Disable the main PLL. */
        __HAL_RCC_PLL_DISABLE();
 8003722:	4b10      	ldr	r3, [pc, #64]	@ (8003764 <HAL_RCC_OscConfig+0x4cc>)
 8003724:	2200      	movs	r2, #0
 8003726:	601a      	str	r2, [r3, #0]

        /* Get Start Tick */
        tickstart = HAL_GetTick();
 8003728:	f7fe fdc8 	bl	80022bc <HAL_GetTick>
 800372c:	6138      	str	r0, [r7, #16]

        /* Wait till PLL is disabled */
        while (__HAL_RCC_GET_FLAG(RCC_FLAG_PLLRDY)  != RESET)
 800372e:	e008      	b.n	8003742 <HAL_RCC_OscConfig+0x4aa>
        {
          if ((HAL_GetTick() - tickstart) > PLL_TIMEOUT_VALUE)
 8003730:	f7fe fdc4 	bl	80022bc <HAL_GetTick>
 8003734:	4602      	mov	r2, r0
 8003736:	693b      	ldr	r3, [r7, #16]
 8003738:	1ad3      	subs	r3, r2, r3
 800373a:	2b02      	cmp	r3, #2
 800373c:	d901      	bls.n	8003742 <HAL_RCC_OscConfig+0x4aa>
          {
            return HAL_TIMEOUT;
 800373e:	2303      	movs	r3, #3
 8003740:	e026      	b.n	8003790 <HAL_RCC_OscConfig+0x4f8>
        while (__HAL_RCC_GET_FLAG(RCC_FLAG_PLLRDY)  != RESET)
 8003742:	4b06      	ldr	r3, [pc, #24]	@ (800375c <HAL_RCC_OscConfig+0x4c4>)
 8003744:	681b      	ldr	r3, [r3, #0]
 8003746:	f003 7300 	and.w	r3, r3, #33554432	@ 0x2000000
 800374a:	2b00      	cmp	r3, #0
 800374c:	d1f0      	bne.n	8003730 <HAL_RCC_OscConfig+0x498>
 800374e:	e01e      	b.n	800378e <HAL_RCC_OscConfig+0x4f6>
      }
    }
    else
    {
      /* Check if there is a request to disable the PLL used as System clock source */
      if ((RCC_OscInitStruct->PLL.PLLState) == RCC_PLL_OFF)
 8003750:	687b      	ldr	r3, [r7, #4]
 8003752:	69db      	ldr	r3, [r3, #28]
 8003754:	2b01      	cmp	r3, #1
 8003756:	d107      	bne.n	8003768 <HAL_RCC_OscConfig+0x4d0>
      {
        return HAL_ERROR;
 8003758:	2301      	movs	r3, #1
 800375a:	e019      	b.n	8003790 <HAL_RCC_OscConfig+0x4f8>
 800375c:	40021000 	.word	0x40021000
 8003760:	40007000 	.word	0x40007000
 8003764:	42420060 	.word	0x42420060
      }
      else
      {
        /* Do not return HAL_ERROR if request repeats the current configuration */
        pll_config = RCC->CFGR;
 8003768:	4b0b      	ldr	r3, [pc, #44]	@ (8003798 <HAL_RCC_OscConfig+0x500>)
 800376a:	685b      	ldr	r3, [r3, #4]
 800376c:	60fb      	str	r3, [r7, #12]
        if ((READ_BIT(pll_config, RCC_CFGR_PLLSRC) != RCC_OscInitStruct->PLL.PLLSource) ||
 800376e:	68fb      	ldr	r3, [r7, #12]
 8003770:	f403 3280 	and.w	r2, r3, #65536	@ 0x10000
 8003774:	687b      	ldr	r3, [r7, #4]
 8003776:	6a1b      	ldr	r3, [r3, #32]
 8003778:	429a      	cmp	r2, r3
 800377a:	d106      	bne.n	800378a <HAL_RCC_OscConfig+0x4f2>
            (READ_BIT(pll_config, RCC_CFGR_PLLMULL) != RCC_OscInitStruct->PLL.PLLMUL))
 800377c:	68fb      	ldr	r3, [r7, #12]
 800377e:	f403 1270 	and.w	r2, r3, #3932160	@ 0x3c0000
 8003782:	687b      	ldr	r3, [r7, #4]
 8003784:	6a5b      	ldr	r3, [r3, #36]	@ 0x24
        if ((READ_BIT(pll_config, RCC_CFGR_PLLSRC) != RCC_OscInitStruct->PLL.PLLSource) ||
 8003786:	429a      	cmp	r2, r3
 8003788:	d001      	beq.n	800378e <HAL_RCC_OscConfig+0x4f6>
        {
          return HAL_ERROR;
 800378a:	2301      	movs	r3, #1
 800378c:	e000      	b.n	8003790 <HAL_RCC_OscConfig+0x4f8>
        }
      }
    }
  }

  return HAL_OK;
 800378e:	2300      	movs	r3, #0
}
 8003790:	4618      	mov	r0, r3
 8003792:	3718      	adds	r7, #24
 8003794:	46bd      	mov	sp, r7
 8003796:	bd80      	pop	{r7, pc}
 8003798:	40021000 	.word	0x40021000

0800379c <HAL_RCC_ClockConfig>:
  *         You can use @ref HAL_RCC_GetClockConfig() function to know which clock is
  *         currently used as system clock source.
  * @retval HAL status
  */
HAL_StatusTypeDef HAL_RCC_ClockConfig(RCC_ClkInitTypeDef  *RCC_ClkInitStruct, uint32_t FLatency)
{
 800379c:	b580      	push	{r7, lr}
 800379e:	b084      	sub	sp, #16
 80037a0:	af00      	add	r7, sp, #0
 80037a2:	6078      	str	r0, [r7, #4]
 80037a4:	6039      	str	r1, [r7, #0]
  uint32_t tickstart;

  /* Check Null pointer */
  if (RCC_ClkInitStruct == NULL)
 80037a6:	687b      	ldr	r3, [r7, #4]
 80037a8:	2b00      	cmp	r3, #0
 80037aa:	d101      	bne.n	80037b0 <HAL_RCC_ClockConfig+0x14>
  {
    return HAL_ERROR;
 80037ac:	2301      	movs	r3, #1
 80037ae:	e0d0      	b.n	8003952 <HAL_RCC_ClockConfig+0x1b6>
  must be correctly programmed according to the frequency of the CPU clock
    (HCLK) of the device. */

#if defined(FLASH_ACR_LATENCY)
  /* Increasing the number of wait states because of higher CPU frequency */
  if (FLatency > __HAL_FLASH_GET_LATENCY())
 80037b0:	4b6a      	ldr	r3, [pc, #424]	@ (800395c <HAL_RCC_ClockConfig+0x1c0>)
 80037b2:	681b      	ldr	r3, [r3, #0]
 80037b4:	f003 0307 	and.w	r3, r3, #7
 80037b8:	683a      	ldr	r2, [r7, #0]
 80037ba:	429a      	cmp	r2, r3
 80037bc:	d910      	bls.n	80037e0 <HAL_RCC_ClockConfig+0x44>
  {
    /* Program the new number of wait states to the LATENCY bits in the FLASH_ACR register */
    __HAL_FLASH_SET_LATENCY(FLatency);
 80037be:	4b67      	ldr	r3, [pc, #412]	@ (800395c <HAL_RCC_ClockConfig+0x1c0>)
 80037c0:	681b      	ldr	r3, [r3, #0]
 80037c2:	f023 0207 	bic.w	r2, r3, #7
 80037c6:	4965      	ldr	r1, [pc, #404]	@ (800395c <HAL_RCC_ClockConfig+0x1c0>)
 80037c8:	683b      	ldr	r3, [r7, #0]
 80037ca:	4313      	orrs	r3, r2
 80037cc:	600b      	str	r3, [r1, #0]

    /* Check that the new number of wait states is taken into account to access the Flash
    memory by reading the FLASH_ACR register */
    if (__HAL_FLASH_GET_LATENCY() != FLatency)
 80037ce:	4b63      	ldr	r3, [pc, #396]	@ (800395c <HAL_RCC_ClockConfig+0x1c0>)
 80037d0:	681b      	ldr	r3, [r3, #0]
 80037d2:	f003 0307 	and.w	r3, r3, #7
 80037d6:	683a      	ldr	r2, [r7, #0]
 80037d8:	429a      	cmp	r2, r3
 80037da:	d001      	beq.n	80037e0 <HAL_RCC_ClockConfig+0x44>
  {
    return HAL_ERROR;
 80037dc:	2301      	movs	r3, #1
 80037de:	e0b8      	b.n	8003952 <HAL_RCC_ClockConfig+0x1b6>
  }
}

#endif /* FLASH_ACR_LATENCY */
/*-------------------------- HCLK Configuration --------------------------*/
if (((RCC_ClkInitStruct->ClockType) & RCC_CLOCKTYPE_HCLK) == RCC_CLOCKTYPE_HCLK)
 80037e0:	687b      	ldr	r3, [r7, #4]
 80037e2:	681b      	ldr	r3, [r3, #0]
 80037e4:	f003 0302 	and.w	r3, r3, #2
 80037e8:	2b00      	cmp	r3, #0
 80037ea:	d020      	beq.n	800382e <HAL_RCC_ClockConfig+0x92>
  {
    /* Set the highest APBx dividers in order to ensure that we do not go through
    a non-spec phase whatever we decrease or increase HCLK. */
    if (((RCC_ClkInitStruct->ClockType) & RCC_CLOCKTYPE_PCLK1) == RCC_CLOCKTYPE_PCLK1)
 80037ec:	687b      	ldr	r3, [r7, #4]
 80037ee:	681b      	ldr	r3, [r3, #0]
 80037f0:	f003 0304 	and.w	r3, r3, #4
 80037f4:	2b00      	cmp	r3, #0
 80037f6:	d005      	beq.n	8003804 <HAL_RCC_ClockConfig+0x68>
    {
      MODIFY_REG(RCC->CFGR, RCC_CFGR_PPRE1, RCC_HCLK_DIV16);
 80037f8:	4b59      	ldr	r3, [pc, #356]	@ (8003960 <HAL_RCC_ClockConfig+0x1c4>)
 80037fa:	685b      	ldr	r3, [r3, #4]
 80037fc:	4a58      	ldr	r2, [pc, #352]	@ (8003960 <HAL_RCC_ClockConfig+0x1c4>)
 80037fe:	f443 63e0 	orr.w	r3, r3, #1792	@ 0x700
 8003802:	6053      	str	r3, [r2, #4]
    }

    if (((RCC_ClkInitStruct->ClockType) & RCC_CLOCKTYPE_PCLK2) == RCC_CLOCKTYPE_PCLK2)
 8003804:	687b      	ldr	r3, [r7, #4]
 8003806:	681b      	ldr	r3, [r3, #0]
 8003808:	f003 0308 	and.w	r3, r3, #8
 800380c:	2b00      	cmp	r3, #0
 800380e:	d005      	beq.n	800381c <HAL_RCC_ClockConfig+0x80>
    {
      MODIFY_REG(RCC->CFGR, RCC_CFGR_PPRE2, (RCC_HCLK_DIV16 << 3));
 8003810:	4b53      	ldr	r3, [pc, #332]	@ (8003960 <HAL_RCC_ClockConfig+0x1c4>)
 8003812:	685b      	ldr	r3, [r3, #4]
 8003814:	4a52      	ldr	r2, [pc, #328]	@ (8003960 <HAL_RCC_ClockConfig+0x1c4>)
 8003816:	f443 5360 	orr.w	r3, r3, #14336	@ 0x3800
 800381a:	6053      	str	r3, [r2, #4]
    }

    /* Set the new HCLK clock divider */
    assert_param(IS_RCC_HCLK(RCC_ClkInitStruct->AHBCLKDivider));
    MODIFY_REG(RCC->CFGR, RCC_CFGR_HPRE, RCC_ClkInitStruct->AHBCLKDivider);
 800381c:	4b50      	ldr	r3, [pc, #320]	@ (8003960 <HAL_RCC_ClockConfig+0x1c4>)
 800381e:	685b      	ldr	r3, [r3, #4]
 8003820:	f023 02f0 	bic.w	r2, r3, #240	@ 0xf0
 8003824:	687b      	ldr	r3, [r7, #4]
 8003826:	689b      	ldr	r3, [r3, #8]
 8003828:	494d      	ldr	r1, [pc, #308]	@ (8003960 <HAL_RCC_ClockConfig+0x1c4>)
 800382a:	4313      	orrs	r3, r2
 800382c:	604b      	str	r3, [r1, #4]
  }

  /*------------------------- SYSCLK Configuration ---------------------------*/
  if (((RCC_ClkInitStruct->ClockType) & RCC_CLOCKTYPE_SYSCLK) == RCC_CLOCKTYPE_SYSCLK)
 800382e:	687b      	ldr	r3, [r7, #4]
 8003830:	681b      	ldr	r3, [r3, #0]
 8003832:	f003 0301 	and.w	r3, r3, #1
 8003836:	2b00      	cmp	r3, #0
 8003838:	d040      	beq.n	80038bc <HAL_RCC_ClockConfig+0x120>
  {
    assert_param(IS_RCC_SYSCLKSOURCE(RCC_ClkInitStruct->SYSCLKSource));

    /* HSE is selected as System Clock Source */
    if (RCC_ClkInitStruct->SYSCLKSource == RCC_SYSCLKSOURCE_HSE)
 800383a:	687b      	ldr	r3, [r7, #4]
 800383c:	685b      	ldr	r3, [r3, #4]
 800383e:	2b01      	cmp	r3, #1
 8003840:	d107      	bne.n	8003852 <HAL_RCC_ClockConfig+0xb6>
    {
      /* Check the HSE ready flag */
      if (__HAL_RCC_GET_FLAG(RCC_FLAG_HSERDY) == RESET)
 8003842:	4b47      	ldr	r3, [pc, #284]	@ (8003960 <HAL_RCC_ClockConfig+0x1c4>)
 8003844:	681b      	ldr	r3, [r3, #0]
 8003846:	f403 3300 	and.w	r3, r3, #131072	@ 0x20000
 800384a:	2b00      	cmp	r3, #0
 800384c:	d115      	bne.n	800387a <HAL_RCC_ClockConfig+0xde>
      {
        return HAL_ERROR;
 800384e:	2301      	movs	r3, #1
 8003850:	e07f      	b.n	8003952 <HAL_RCC_ClockConfig+0x1b6>
      }
    }
    /* PLL is selected as System Clock Source */
    else if (RCC_ClkInitStruct->SYSCLKSource == RCC_SYSCLKSOURCE_PLLCLK)
 8003852:	687b      	ldr	r3, [r7, #4]
 8003854:	685b      	ldr	r3, [r3, #4]
 8003856:	2b02      	cmp	r3, #2
 8003858:	d107      	bne.n	800386a <HAL_RCC_ClockConfig+0xce>
    {
      /* Check the PLL ready flag */
      if (__HAL_RCC_GET_FLAG(RCC_FLAG_PLLRDY) == RESET)
 800385a:	4b41      	ldr	r3, [pc, #260]	@ (8003960 <HAL_RCC_ClockConfig+0x1c4>)
 800385c:	681b      	ldr	r3, [r3, #0]
 800385e:	f003 7300 	and.w	r3, r3, #33554432	@ 0x2000000
 8003862:	2b00      	cmp	r3, #0
 8003864:	d109      	bne.n	800387a <HAL_RCC_ClockConfig+0xde>
      {
        return HAL_ERROR;
 8003866:	2301      	movs	r3, #1
 8003868:	e073      	b.n	8003952 <HAL_RCC_ClockConfig+0x1b6>
    }
    /* HSI is selected as System Clock Source */
    else
    {
      /* Check the HSI ready flag */
      if (__HAL_RCC_GET_FLAG(RCC_FLAG_HSIRDY) == RESET)
 800386a:	4b3d      	ldr	r3, [pc, #244]	@ (8003960 <HAL_RCC_ClockConfig+0x1c4>)
 800386c:	681b      	ldr	r3, [r3, #0]
 800386e:	f003 0302 	and.w	r3, r3, #2
 8003872:	2b00      	cmp	r3, #0
 8003874:	d101      	bne.n	800387a <HAL_RCC_ClockConfig+0xde>
      {
        return HAL_ERROR;
 8003876:	2301      	movs	r3, #1
 8003878:	e06b      	b.n	8003952 <HAL_RCC_ClockConfig+0x1b6>
      }
    }
    __HAL_RCC_SYSCLK_CONFIG(RCC_ClkInitStruct->SYSCLKSource);
 800387a:	4b39      	ldr	r3, [pc, #228]	@ (8003960 <HAL_RCC_ClockConfig+0x1c4>)
 800387c:	685b      	ldr	r3, [r3, #4]
 800387e:	f023 0203 	bic.w	r2, r3, #3
 8003882:	687b      	ldr	r3, [r7, #4]
 8003884:	685b      	ldr	r3, [r3, #4]
 8003886:	4936      	ldr	r1, [pc, #216]	@ (8003960 <HAL_RCC_ClockConfig+0x1c4>)
 8003888:	4313      	orrs	r3, r2
 800388a:	604b      	str	r3, [r1, #4]

    /* Get Start Tick */
    tickstart = HAL_GetTick();
 800388c:	f7fe fd16 	bl	80022bc <HAL_GetTick>
 8003890:	60f8      	str	r0, [r7, #12]

    while (__HAL_RCC_GET_SYSCLK_SOURCE() != (RCC_ClkInitStruct->SYSCLKSource << RCC_CFGR_SWS_Pos))
 8003892:	e00a      	b.n	80038aa <HAL_RCC_ClockConfig+0x10e>
    {
      if ((HAL_GetTick() - tickstart) > CLOCKSWITCH_TIMEOUT_VALUE)
 8003894:	f7fe fd12 	bl	80022bc <HAL_GetTick>
 8003898:	4602      	mov	r2, r0
 800389a:	68fb      	ldr	r3, [r7, #12]
 800389c:	1ad3      	subs	r3, r2, r3
 800389e:	f241 3288 	movw	r2, #5000	@ 0x1388
 80038a2:	4293      	cmp	r3, r2
 80038a4:	d901      	bls.n	80038aa <HAL_RCC_ClockConfig+0x10e>
      {
        return HAL_TIMEOUT;
 80038a6:	2303      	movs	r3, #3
 80038a8:	e053      	b.n	8003952 <HAL_RCC_ClockConfig+0x1b6>
    while (__HAL_RCC_GET_SYSCLK_SOURCE() != (RCC_ClkInitStruct->SYSCLKSource << RCC_CFGR_SWS_Pos))
 80038aa:	4b2d      	ldr	r3, [pc, #180]	@ (8003960 <HAL_RCC_ClockConfig+0x1c4>)
 80038ac:	685b      	ldr	r3, [r3, #4]
 80038ae:	f003 020c 	and.w	r2, r3, #12
 80038b2:	687b      	ldr	r3, [r7, #4]
 80038b4:	685b      	ldr	r3, [r3, #4]
 80038b6:	009b      	lsls	r3, r3, #2
 80038b8:	429a      	cmp	r2, r3
 80038ba:	d1eb      	bne.n	8003894 <HAL_RCC_ClockConfig+0xf8>
    }
  }

#if defined(FLASH_ACR_LATENCY)
  /* Decreasing the number of wait states because of lower CPU frequency */
  if (FLatency < __HAL_FLASH_GET_LATENCY())
 80038bc:	4b27      	ldr	r3, [pc, #156]	@ (800395c <HAL_RCC_ClockConfig+0x1c0>)
 80038be:	681b      	ldr	r3, [r3, #0]
 80038c0:	f003 0307 	and.w	r3, r3, #7
 80038c4:	683a      	ldr	r2, [r7, #0]
 80038c6:	429a      	cmp	r2, r3
 80038c8:	d210      	bcs.n	80038ec <HAL_RCC_ClockConfig+0x150>
  {
    /* Program the new number of wait states to the LATENCY bits in the FLASH_ACR register */
    __HAL_FLASH_SET_LATENCY(FLatency);
 80038ca:	4b24      	ldr	r3, [pc, #144]	@ (800395c <HAL_RCC_ClockConfig+0x1c0>)
 80038cc:	681b      	ldr	r3, [r3, #0]
 80038ce:	f023 0207 	bic.w	r2, r3, #7
 80038d2:	4922      	ldr	r1, [pc, #136]	@ (800395c <HAL_RCC_ClockConfig+0x1c0>)
 80038d4:	683b      	ldr	r3, [r7, #0]
 80038d6:	4313      	orrs	r3, r2
 80038d8:	600b      	str	r3, [r1, #0]

    /* Check that the new number of wait states is taken into account to access the Flash
    memory by reading the FLASH_ACR register */
    if (__HAL_FLASH_GET_LATENCY() != FLatency)
 80038da:	4b20      	ldr	r3, [pc, #128]	@ (800395c <HAL_RCC_ClockConfig+0x1c0>)
 80038dc:	681b      	ldr	r3, [r3, #0]
 80038de:	f003 0307 	and.w	r3, r3, #7
 80038e2:	683a      	ldr	r2, [r7, #0]
 80038e4:	429a      	cmp	r2, r3
 80038e6:	d001      	beq.n	80038ec <HAL_RCC_ClockConfig+0x150>
  {
    return HAL_ERROR;
 80038e8:	2301      	movs	r3, #1
 80038ea:	e032      	b.n	8003952 <HAL_RCC_ClockConfig+0x1b6>
  }
}
#endif /* FLASH_ACR_LATENCY */

/*-------------------------- PCLK1 Configuration ---------------------------*/
if (((RCC_ClkInitStruct->ClockType) & RCC_CLOCKTYPE_PCLK1) == RCC_CLOCKTYPE_PCLK1)
 80038ec:	687b      	ldr	r3, [r7, #4]
 80038ee:	681b      	ldr	r3, [r3, #0]
 80038f0:	f003 0304 	and.w	r3, r3, #4
 80038f4:	2b00      	cmp	r3, #0
 80038f6:	d008      	beq.n	800390a <HAL_RCC_ClockConfig+0x16e>
  {
    assert_param(IS_RCC_PCLK(RCC_ClkInitStruct->APB1CLKDivider));
    MODIFY_REG(RCC->CFGR, RCC_CFGR_PPRE1, RCC_ClkInitStruct->APB1CLKDivider);
 80038f8:	4b19      	ldr	r3, [pc, #100]	@ (8003960 <HAL_RCC_ClockConfig+0x1c4>)
 80038fa:	685b      	ldr	r3, [r3, #4]
 80038fc:	f423 62e0 	bic.w	r2, r3, #1792	@ 0x700
 8003900:	687b      	ldr	r3, [r7, #4]
 8003902:	68db      	ldr	r3, [r3, #12]
 8003904:	4916      	ldr	r1, [pc, #88]	@ (8003960 <HAL_RCC_ClockConfig+0x1c4>)
 8003906:	4313      	orrs	r3, r2
 8003908:	604b      	str	r3, [r1, #4]
  }

  /*-------------------------- PCLK2 Configuration ---------------------------*/
  if (((RCC_ClkInitStruct->ClockType) & RCC_CLOCKTYPE_PCLK2) == RCC_CLOCKTYPE_PCLK2)
 800390a:	687b      	ldr	r3, [r7, #4]
 800390c:	681b      	ldr	r3, [r3, #0]
 800390e:	f003 0308 	and.w	r3, r3, #8
 8003912:	2b00      	cmp	r3, #0
 8003914:	d009      	beq.n	800392a <HAL_RCC_ClockConfig+0x18e>
  {
    assert_param(IS_RCC_PCLK(RCC_ClkInitStruct->APB2CLKDivider));
    MODIFY_REG(RCC->CFGR, RCC_CFGR_PPRE2, ((RCC_ClkInitStruct->APB2CLKDivider) << 3));
 8003916:	4b12      	ldr	r3, [pc, #72]	@ (8003960 <HAL_RCC_ClockConfig+0x1c4>)
 8003918:	685b      	ldr	r3, [r3, #4]
 800391a:	f423 5260 	bic.w	r2, r3, #14336	@ 0x3800
 800391e:	687b      	ldr	r3, [r7, #4]
 8003920:	691b      	ldr	r3, [r3, #16]
 8003922:	00db      	lsls	r3, r3, #3
 8003924:	490e      	ldr	r1, [pc, #56]	@ (8003960 <HAL_RCC_ClockConfig+0x1c4>)
 8003926:	4313      	orrs	r3, r2
 8003928:	604b      	str	r3, [r1, #4]
  }

  /* Update the SystemCoreClock global variable */
  SystemCoreClock = HAL_RCC_GetSysClockFreq() >> AHBPrescTable[(RCC->CFGR & RCC_CFGR_HPRE) >> RCC_CFGR_HPRE_Pos];
 800392a:	f000 f821 	bl	8003970 <HAL_RCC_GetSysClockFreq>
 800392e:	4602      	mov	r2, r0
 8003930:	4b0b      	ldr	r3, [pc, #44]	@ (8003960 <HAL_RCC_ClockConfig+0x1c4>)
 8003932:	685b      	ldr	r3, [r3, #4]
 8003934:	091b      	lsrs	r3, r3, #4
 8003936:	f003 030f 	and.w	r3, r3, #15
 800393a:	490a      	ldr	r1, [pc, #40]	@ (8003964 <HAL_RCC_ClockConfig+0x1c8>)
 800393c:	5ccb      	ldrb	r3, [r1, r3]
 800393e:	fa22 f303 	lsr.w	r3, r2, r3
 8003942:	4a09      	ldr	r2, [pc, #36]	@ (8003968 <HAL_RCC_ClockConfig+0x1cc>)
 8003944:	6013      	str	r3, [r2, #0]

  /* Configure the source of time base considering new system clocks settings*/
  HAL_InitTick(uwTickPrio);
 8003946:	4b09      	ldr	r3, [pc, #36]	@ (800396c <HAL_RCC_ClockConfig+0x1d0>)
 8003948:	681b      	ldr	r3, [r3, #0]
 800394a:	4618      	mov	r0, r3
 800394c:	f7fe fc74 	bl	8002238 <HAL_InitTick>

  return HAL_OK;
 8003950:	2300      	movs	r3, #0
}
 8003952:	4618      	mov	r0, r3
 8003954:	3710      	adds	r7, #16
 8003956:	46bd      	mov	sp, r7
 8003958:	bd80      	pop	{r7, pc}
 800395a:	bf00      	nop
 800395c:	40022000 	.word	0x40022000
 8003960:	40021000 	.word	0x40021000
 8003964:	08005c78 	.word	0x08005c78
 8003968:	20000000 	.word	0x20000000
 800396c:	2000001c 	.word	0x2000001c

08003970 <HAL_RCC_GetSysClockFreq>:
  *         right SYSCLK value. Otherwise, any configuration based on this function will be incorrect.
  *
  * @retval SYSCLK frequency
  */
uint32_t HAL_RCC_GetSysClockFreq(void)
{
 8003970:	b480      	push	{r7}
 8003972:	b087      	sub	sp, #28
 8003974:	af00      	add	r7, sp, #0
#else
  static const uint8_t aPredivFactorTable[2U] = {1, 2};
#endif /*RCC_CFGR2_PREDIV1*/

#endif
  uint32_t tmpreg = 0U, prediv = 0U, pllclk = 0U, pllmul = 0U;
 8003976:	2300      	movs	r3, #0
 8003978:	60fb      	str	r3, [r7, #12]
 800397a:	2300      	movs	r3, #0
 800397c:	60bb      	str	r3, [r7, #8]
 800397e:	2300      	movs	r3, #0
 8003980:	617b      	str	r3, [r7, #20]
 8003982:	2300      	movs	r3, #0
 8003984:	607b      	str	r3, [r7, #4]
  uint32_t sysclockfreq = 0U;
 8003986:	2300      	movs	r3, #0
 8003988:	613b      	str	r3, [r7, #16]
#if defined(RCC_CFGR2_PREDIV1SRC)
  uint32_t prediv2 = 0U, pll2mul = 0U;
#endif /*RCC_CFGR2_PREDIV1SRC*/

  tmpreg = RCC->CFGR;
 800398a:	4b1e      	ldr	r3, [pc, #120]	@ (8003a04 <HAL_RCC_GetSysClockFreq+0x94>)
 800398c:	685b      	ldr	r3, [r3, #4]
 800398e:	60fb      	str	r3, [r7, #12]

  /* Get SYSCLK source -------------------------------------------------------*/
  switch (tmpreg & RCC_CFGR_SWS)
 8003990:	68fb      	ldr	r3, [r7, #12]
 8003992:	f003 030c 	and.w	r3, r3, #12
 8003996:	2b04      	cmp	r3, #4
 8003998:	d002      	beq.n	80039a0 <HAL_RCC_GetSysClockFreq+0x30>
 800399a:	2b08      	cmp	r3, #8
 800399c:	d003      	beq.n	80039a6 <HAL_RCC_GetSysClockFreq+0x36>
 800399e:	e027      	b.n	80039f0 <HAL_RCC_GetSysClockFreq+0x80>
  {
    case RCC_SYSCLKSOURCE_STATUS_HSE:  /* HSE used as system clock */
    {
      sysclockfreq = HSE_VALUE;
 80039a0:	4b19      	ldr	r3, [pc, #100]	@ (8003a08 <HAL_RCC_GetSysClockFreq+0x98>)
 80039a2:	613b      	str	r3, [r7, #16]
      break;
 80039a4:	e027      	b.n	80039f6 <HAL_RCC_GetSysClockFreq+0x86>
    }
    case RCC_SYSCLKSOURCE_STATUS_PLLCLK:  /* PLL used as system clock */
    {
      pllmul = aPLLMULFactorTable[(uint32_t)(tmpreg & RCC_CFGR_PLLMULL) >> RCC_CFGR_PLLMULL_Pos];
 80039a6:	68fb      	ldr	r3, [r7, #12]
 80039a8:	0c9b      	lsrs	r3, r3, #18
 80039aa:	f003 030f 	and.w	r3, r3, #15
 80039ae:	4a17      	ldr	r2, [pc, #92]	@ (8003a0c <HAL_RCC_GetSysClockFreq+0x9c>)
 80039b0:	5cd3      	ldrb	r3, [r2, r3]
 80039b2:	607b      	str	r3, [r7, #4]
      if ((tmpreg & RCC_CFGR_PLLSRC) != RCC_PLLSOURCE_HSI_DIV2)
 80039b4:	68fb      	ldr	r3, [r7, #12]
 80039b6:	f403 3380 	and.w	r3, r3, #65536	@ 0x10000
 80039ba:	2b00      	cmp	r3, #0
 80039bc:	d010      	beq.n	80039e0 <HAL_RCC_GetSysClockFreq+0x70>
      {
#if defined(RCC_CFGR2_PREDIV1)
        prediv = aPredivFactorTable[(uint32_t)(RCC->CFGR2 & RCC_CFGR2_PREDIV1) >> RCC_CFGR2_PREDIV1_Pos];
#else
        prediv = aPredivFactorTable[(uint32_t)(RCC->CFGR & RCC_CFGR_PLLXTPRE) >> RCC_CFGR_PLLXTPRE_Pos];
 80039be:	4b11      	ldr	r3, [pc, #68]	@ (8003a04 <HAL_RCC_GetSysClockFreq+0x94>)
 80039c0:	685b      	ldr	r3, [r3, #4]
 80039c2:	0c5b      	lsrs	r3, r3, #17
 80039c4:	f003 0301 	and.w	r3, r3, #1
 80039c8:	4a11      	ldr	r2, [pc, #68]	@ (8003a10 <HAL_RCC_GetSysClockFreq+0xa0>)
 80039ca:	5cd3      	ldrb	r3, [r2, r3]
 80039cc:	60bb      	str	r3, [r7, #8]
        {
          pllclk = pllclk / 2;
        }
#else
        /* HSE used as PLL clock source : PLLCLK = HSE/PREDIV1 * PLLMUL */
        pllclk = (uint32_t)((HSE_VALUE  * pllmul) / prediv);
 80039ce:	687b      	ldr	r3, [r7, #4]
 80039d0:	4a0d      	ldr	r2, [pc, #52]	@ (8003a08 <HAL_RCC_GetSysClockFreq+0x98>)
 80039d2:	fb03 f202 	mul.w	r2, r3, r2
 80039d6:	68bb      	ldr	r3, [r7, #8]
 80039d8:	fbb2 f3f3 	udiv	r3, r2, r3
 80039dc:	617b      	str	r3, [r7, #20]
 80039de:	e004      	b.n	80039ea <HAL_RCC_GetSysClockFreq+0x7a>
#endif /*RCC_CFGR2_PREDIV1SRC*/
      }
      else
      {
        /* HSI used as PLL clock source : PLLCLK = HSI/2 * PLLMUL */
        pllclk = (uint32_t)((HSI_VALUE >> 1) * pllmul);
 80039e0:	687b      	ldr	r3, [r7, #4]
 80039e2:	4a0c      	ldr	r2, [pc, #48]	@ (8003a14 <HAL_RCC_GetSysClockFreq+0xa4>)
 80039e4:	fb02 f303 	mul.w	r3, r2, r3
 80039e8:	617b      	str	r3, [r7, #20]
      }
      sysclockfreq = pllclk;
 80039ea:	697b      	ldr	r3, [r7, #20]
 80039ec:	613b      	str	r3, [r7, #16]
      break;
 80039ee:	e002      	b.n	80039f6 <HAL_RCC_GetSysClockFreq+0x86>
    }
    case RCC_SYSCLKSOURCE_STATUS_HSI:  /* HSI used as system clock source */
    default: /* HSI used as system clock */
    {
      sysclockfreq = HSI_VALUE;
 80039f0:	4b05      	ldr	r3, [pc, #20]	@ (8003a08 <HAL_RCC_GetSysClockFreq+0x98>)
 80039f2:	613b      	str	r3, [r7, #16]
      break;
 80039f4:	bf00      	nop
    }
  }
  return sysclockfreq;
 80039f6:	693b      	ldr	r3, [r7, #16]
}
 80039f8:	4618      	mov	r0, r3
 80039fa:	371c      	adds	r7, #28
 80039fc:	46bd      	mov	sp, r7
 80039fe:	bc80      	pop	{r7}
 8003a00:	4770      	bx	lr
 8003a02:	bf00      	nop
 8003a04:	40021000 	.word	0x40021000
 8003a08:	007a1200 	.word	0x007a1200
 8003a0c:	0800745c 	.word	0x0800745c
 8003a10:	0800746c 	.word	0x0800746c
 8003a14:	003d0900 	.word	0x003d0900

08003a18 <HAL_RCC_GetHCLKFreq>:
  * @note   The SystemCoreClock CMSIS variable is used to store System Clock Frequency
  *         and updated within this function
  * @retval HCLK frequency
  */
uint32_t HAL_RCC_GetHCLKFreq(void)
{
 8003a18:	b480      	push	{r7}
 8003a1a:	af00      	add	r7, sp, #0
  return SystemCoreClock;
 8003a1c:	4b02      	ldr	r3, [pc, #8]	@ (8003a28 <HAL_RCC_GetHCLKFreq+0x10>)
 8003a1e:	681b      	ldr	r3, [r3, #0]
}
 8003a20:	4618      	mov	r0, r3
 8003a22:	46bd      	mov	sp, r7
 8003a24:	bc80      	pop	{r7}
 8003a26:	4770      	bx	lr
 8003a28:	20000000 	.word	0x20000000

08003a2c <HAL_RCC_GetPCLK1Freq>:
  * @note   Each time PCLK1 changes, this function must be called to update the
  *         right PCLK1 value. Otherwise, any configuration based on this function will be incorrect.
  * @retval PCLK1 frequency
  */
uint32_t HAL_RCC_GetPCLK1Freq(void)
{
 8003a2c:	b580      	push	{r7, lr}
 8003a2e:	af00      	add	r7, sp, #0
  /* Get HCLK source and Compute PCLK1 frequency ---------------------------*/
  return (HAL_RCC_GetHCLKFreq() >> APBPrescTable[(RCC->CFGR & RCC_CFGR_PPRE1) >> RCC_CFGR_PPRE1_Pos]);
 8003a30:	f7ff fff2 	bl	8003a18 <HAL_RCC_GetHCLKFreq>
 8003a34:	4602      	mov	r2, r0
 8003a36:	4b05      	ldr	r3, [pc, #20]	@ (8003a4c <HAL_RCC_GetPCLK1Freq+0x20>)
 8003a38:	685b      	ldr	r3, [r3, #4]
 8003a3a:	0a1b      	lsrs	r3, r3, #8
 8003a3c:	f003 0307 	and.w	r3, r3, #7
 8003a40:	4903      	ldr	r1, [pc, #12]	@ (8003a50 <HAL_RCC_GetPCLK1Freq+0x24>)
 8003a42:	5ccb      	ldrb	r3, [r1, r3]
 8003a44:	fa22 f303 	lsr.w	r3, r2, r3
}
 8003a48:	4618      	mov	r0, r3
 8003a4a:	bd80      	pop	{r7, pc}
 8003a4c:	40021000 	.word	0x40021000
 8003a50:	08005c88 	.word	0x08005c88

08003a54 <HAL_RCC_GetPCLK2Freq>:
  * @note   Each time PCLK2 changes, this function must be called to update the
  *         right PCLK2 value. Otherwise, any configuration based on this function will be incorrect.
  * @retval PCLK2 frequency
  */
uint32_t HAL_RCC_GetPCLK2Freq(void)
{
 8003a54:	b580      	push	{r7, lr}
 8003a56:	af00      	add	r7, sp, #0
  /* Get HCLK source and Compute PCLK2 frequency ---------------------------*/
  return (HAL_RCC_GetHCLKFreq() >> APBPrescTable[(RCC->CFGR & RCC_CFGR_PPRE2) >> RCC_CFGR_PPRE2_Pos]);
 8003a58:	f7ff ffde 	bl	8003a18 <HAL_RCC_GetHCLKFreq>
 8003a5c:	4602      	mov	r2, r0
 8003a5e:	4b05      	ldr	r3, [pc, #20]	@ (8003a74 <HAL_RCC_GetPCLK2Freq+0x20>)
 8003a60:	685b      	ldr	r3, [r3, #4]
 8003a62:	0adb      	lsrs	r3, r3, #11
 8003a64:	f003 0307 	and.w	r3, r3, #7
 8003a68:	4903      	ldr	r1, [pc, #12]	@ (8003a78 <HAL_RCC_GetPCLK2Freq+0x24>)
 8003a6a:	5ccb      	ldrb	r3, [r1, r3]
 8003a6c:	fa22 f303 	lsr.w	r3, r2, r3
}
 8003a70:	4618      	mov	r0, r3
 8003a72:	bd80      	pop	{r7, pc}
 8003a74:	40021000 	.word	0x40021000
 8003a78:	08005c88 	.word	0x08005c88

08003a7c <RCC_Delay>:
  * @brief  This function provides delay (in milliseconds) based on CPU cycles method.
  * @param  mdelay: specifies the delay time length, in milliseconds.
  * @retval None
  */
static void RCC_Delay(uint32_t mdelay)
{
 8003a7c:	b480      	push	{r7}
 8003a7e:	b085      	sub	sp, #20
 8003a80:	af00      	add	r7, sp, #0
 8003a82:	6078      	str	r0, [r7, #4]
  __IO uint32_t Delay = mdelay * (SystemCoreClock / 8U / 1000U);
 8003a84:	4b0a      	ldr	r3, [pc, #40]	@ (8003ab0 <RCC_Delay+0x34>)
 8003a86:	681b      	ldr	r3, [r3, #0]
 8003a88:	4a0a      	ldr	r2, [pc, #40]	@ (8003ab4 <RCC_Delay+0x38>)
 8003a8a:	fba2 2303 	umull	r2, r3, r2, r3
 8003a8e:	0a5b      	lsrs	r3, r3, #9
 8003a90:	687a      	ldr	r2, [r7, #4]
 8003a92:	fb02 f303 	mul.w	r3, r2, r3
 8003a96:	60fb      	str	r3, [r7, #12]
  do
  {
    __NOP();
 8003a98:	bf00      	nop
  }
  while (Delay --);
 8003a9a:	68fb      	ldr	r3, [r7, #12]
 8003a9c:	1e5a      	subs	r2, r3, #1
 8003a9e:	60fa      	str	r2, [r7, #12]
 8003aa0:	2b00      	cmp	r3, #0
 8003aa2:	d1f9      	bne.n	8003a98 <RCC_Delay+0x1c>
}
 8003aa4:	bf00      	nop
 8003aa6:	bf00      	nop
 8003aa8:	3714      	adds	r7, #20
 8003aaa:	46bd      	mov	sp, r7
 8003aac:	bc80      	pop	{r7}
 8003aae:	4770      	bx	lr
 8003ab0:	20000000 	.word	0x20000000
 8003ab4:	10624dd3 	.word	0x10624dd3

08003ab8 <HAL_RCCEx_PeriphCLKConfig>:
  *         manually disable it.
  *
  * @retval HAL status
  */
HAL_StatusTypeDef HAL_RCCEx_PeriphCLKConfig(RCC_PeriphCLKInitTypeDef  *PeriphClkInit)
{
 8003ab8:	b580      	push	{r7, lr}
 8003aba:	b086      	sub	sp, #24
 8003abc:	af00      	add	r7, sp, #0
 8003abe:	6078      	str	r0, [r7, #4]
  uint32_t tickstart = 0U, temp_reg = 0U;
 8003ac0:	2300      	movs	r3, #0
 8003ac2:	613b      	str	r3, [r7, #16]
 8003ac4:	2300      	movs	r3, #0
 8003ac6:	60fb      	str	r3, [r7, #12]

  /* Check the parameters */
  assert_param(IS_RCC_PERIPHCLOCK(PeriphClkInit->PeriphClockSelection));

  /*------------------------------- RTC/LCD Configuration ------------------------*/
  if ((((PeriphClkInit->PeriphClockSelection) & RCC_PERIPHCLK_RTC) == RCC_PERIPHCLK_RTC))
 8003ac8:	687b      	ldr	r3, [r7, #4]
 8003aca:	681b      	ldr	r3, [r3, #0]
 8003acc:	f003 0301 	and.w	r3, r3, #1
 8003ad0:	2b00      	cmp	r3, #0
 8003ad2:	d07d      	beq.n	8003bd0 <HAL_RCCEx_PeriphCLKConfig+0x118>
  {
    FlagStatus pwrclkchanged = RESET;
 8003ad4:	2300      	movs	r3, #0
 8003ad6:	75fb      	strb	r3, [r7, #23]
    assert_param(IS_RCC_RTCCLKSOURCE(PeriphClkInit->RTCClockSelection));

    /* As soon as function is called to change RTC clock source, activation of the
       power domain is done. */
    /* Requires to enable write access to Backup Domain of necessary */
    if (__HAL_RCC_PWR_IS_CLK_DISABLED())
 8003ad8:	4b4f      	ldr	r3, [pc, #316]	@ (8003c18 <HAL_RCCEx_PeriphCLKConfig+0x160>)
 8003ada:	69db      	ldr	r3, [r3, #28]
 8003adc:	f003 5380 	and.w	r3, r3, #268435456	@ 0x10000000
 8003ae0:	2b00      	cmp	r3, #0
 8003ae2:	d10d      	bne.n	8003b00 <HAL_RCCEx_PeriphCLKConfig+0x48>
    {
      __HAL_RCC_PWR_CLK_ENABLE();
 8003ae4:	4b4c      	ldr	r3, [pc, #304]	@ (8003c18 <HAL_RCCEx_PeriphCLKConfig+0x160>)
 8003ae6:	69db      	ldr	r3, [r3, #28]
 8003ae8:	4a4b      	ldr	r2, [pc, #300]	@ (8003c18 <HAL_RCCEx_PeriphCLKConfig+0x160>)
 8003aea:	f043 5380 	orr.w	r3, r3, #268435456	@ 0x10000000
 8003aee:	61d3      	str	r3, [r2, #28]
 8003af0:	4b49      	ldr	r3, [pc, #292]	@ (8003c18 <HAL_RCCEx_PeriphCLKConfig+0x160>)
 8003af2:	69db      	ldr	r3, [r3, #28]
 8003af4:	f003 5380 	and.w	r3, r3, #268435456	@ 0x10000000
 8003af8:	60bb      	str	r3, [r7, #8]
 8003afa:	68bb      	ldr	r3, [r7, #8]
      pwrclkchanged = SET;
 8003afc:	2301      	movs	r3, #1
 8003afe:	75fb      	strb	r3, [r7, #23]
    }

    if (HAL_IS_BIT_CLR(PWR->CR, PWR_CR_DBP))
 8003b00:	4b46      	ldr	r3, [pc, #280]	@ (8003c1c <HAL_RCCEx_PeriphCLKConfig+0x164>)
 8003b02:	681b      	ldr	r3, [r3, #0]
 8003b04:	f403 7380 	and.w	r3, r3, #256	@ 0x100
 8003b08:	2b00      	cmp	r3, #0
 8003b0a:	d118      	bne.n	8003b3e <HAL_RCCEx_PeriphCLKConfig+0x86>
    {
      /* Enable write access to Backup domain */
      SET_BIT(PWR->CR, PWR_CR_DBP);
 8003b0c:	4b43      	ldr	r3, [pc, #268]	@ (8003c1c <HAL_RCCEx_PeriphCLKConfig+0x164>)
 8003b0e:	681b      	ldr	r3, [r3, #0]
 8003b10:	4a42      	ldr	r2, [pc, #264]	@ (8003c1c <HAL_RCCEx_PeriphCLKConfig+0x164>)
 8003b12:	f443 7380 	orr.w	r3, r3, #256	@ 0x100
 8003b16:	6013      	str	r3, [r2, #0]

      /* Wait for Backup domain Write protection disable */
      tickstart = HAL_GetTick();
 8003b18:	f7fe fbd0 	bl	80022bc <HAL_GetTick>
 8003b1c:	6138      	str	r0, [r7, #16]

      while (HAL_IS_BIT_CLR(PWR->CR, PWR_CR_DBP))
 8003b1e:	e008      	b.n	8003b32 <HAL_RCCEx_PeriphCLKConfig+0x7a>
      {
        if ((HAL_GetTick() - tickstart) > RCC_DBP_TIMEOUT_VALUE)
 8003b20:	f7fe fbcc 	bl	80022bc <HAL_GetTick>
 8003b24:	4602      	mov	r2, r0
 8003b26:	693b      	ldr	r3, [r7, #16]
 8003b28:	1ad3      	subs	r3, r2, r3
 8003b2a:	2b64      	cmp	r3, #100	@ 0x64
 8003b2c:	d901      	bls.n	8003b32 <HAL_RCCEx_PeriphCLKConfig+0x7a>
        {
          return HAL_TIMEOUT;
 8003b2e:	2303      	movs	r3, #3
 8003b30:	e06d      	b.n	8003c0e <HAL_RCCEx_PeriphCLKConfig+0x156>
      while (HAL_IS_BIT_CLR(PWR->CR, PWR_CR_DBP))
 8003b32:	4b3a      	ldr	r3, [pc, #232]	@ (8003c1c <HAL_RCCEx_PeriphCLKConfig+0x164>)
 8003b34:	681b      	ldr	r3, [r3, #0]
 8003b36:	f403 7380 	and.w	r3, r3, #256	@ 0x100
 8003b3a:	2b00      	cmp	r3, #0
 8003b3c:	d0f0      	beq.n	8003b20 <HAL_RCCEx_PeriphCLKConfig+0x68>
        }
      }
    }

    /* Reset the Backup domain only if the RTC Clock source selection is modified from reset value */
    temp_reg = (RCC->BDCR & RCC_BDCR_RTCSEL);
 8003b3e:	4b36      	ldr	r3, [pc, #216]	@ (8003c18 <HAL_RCCEx_PeriphCLKConfig+0x160>)
 8003b40:	6a1b      	ldr	r3, [r3, #32]
 8003b42:	f403 7340 	and.w	r3, r3, #768	@ 0x300
 8003b46:	60fb      	str	r3, [r7, #12]
    if ((temp_reg != 0x00000000U) && (temp_reg != (PeriphClkInit->RTCClockSelection & RCC_BDCR_RTCSEL)))
 8003b48:	68fb      	ldr	r3, [r7, #12]
 8003b4a:	2b00      	cmp	r3, #0
 8003b4c:	d02e      	beq.n	8003bac <HAL_RCCEx_PeriphCLKConfig+0xf4>
 8003b4e:	687b      	ldr	r3, [r7, #4]
 8003b50:	685b      	ldr	r3, [r3, #4]
 8003b52:	f403 7340 	and.w	r3, r3, #768	@ 0x300
 8003b56:	68fa      	ldr	r2, [r7, #12]
 8003b58:	429a      	cmp	r2, r3
 8003b5a:	d027      	beq.n	8003bac <HAL_RCCEx_PeriphCLKConfig+0xf4>
    {
      /* Store the content of BDCR register before the reset of Backup Domain */
      temp_reg = (RCC->BDCR & ~(RCC_BDCR_RTCSEL));
 8003b5c:	4b2e      	ldr	r3, [pc, #184]	@ (8003c18 <HAL_RCCEx_PeriphCLKConfig+0x160>)
 8003b5e:	6a1b      	ldr	r3, [r3, #32]
 8003b60:	f423 7340 	bic.w	r3, r3, #768	@ 0x300
 8003b64:	60fb      	str	r3, [r7, #12]
      /* RTC Clock selection can be changed only if the Backup Domain is reset */
      __HAL_RCC_BACKUPRESET_FORCE();
 8003b66:	4b2e      	ldr	r3, [pc, #184]	@ (8003c20 <HAL_RCCEx_PeriphCLKConfig+0x168>)
 8003b68:	2201      	movs	r2, #1
 8003b6a:	601a      	str	r2, [r3, #0]
      __HAL_RCC_BACKUPRESET_RELEASE();
 8003b6c:	4b2c      	ldr	r3, [pc, #176]	@ (8003c20 <HAL_RCCEx_PeriphCLKConfig+0x168>)
 8003b6e:	2200      	movs	r2, #0
 8003b70:	601a      	str	r2, [r3, #0]
      /* Restore the Content of BDCR register */
      RCC->BDCR = temp_reg;
 8003b72:	4a29      	ldr	r2, [pc, #164]	@ (8003c18 <HAL_RCCEx_PeriphCLKConfig+0x160>)
 8003b74:	68fb      	ldr	r3, [r7, #12]
 8003b76:	6213      	str	r3, [r2, #32]

      /* Wait for LSERDY if LSE was enabled */
      if (HAL_IS_BIT_SET(temp_reg, RCC_BDCR_LSEON))
 8003b78:	68fb      	ldr	r3, [r7, #12]
 8003b7a:	f003 0301 	and.w	r3, r3, #1
 8003b7e:	2b00      	cmp	r3, #0
 8003b80:	d014      	beq.n	8003bac <HAL_RCCEx_PeriphCLKConfig+0xf4>
      {
        /* Get Start Tick */
        tickstart = HAL_GetTick();
 8003b82:	f7fe fb9b 	bl	80022bc <HAL_GetTick>
 8003b86:	6138      	str	r0, [r7, #16]

        /* Wait till LSE is ready */
        while (__HAL_RCC_GET_FLAG(RCC_FLAG_LSERDY) == RESET)
 8003b88:	e00a      	b.n	8003ba0 <HAL_RCCEx_PeriphCLKConfig+0xe8>
        {
          if ((HAL_GetTick() - tickstart) > RCC_LSE_TIMEOUT_VALUE)
 8003b8a:	f7fe fb97 	bl	80022bc <HAL_GetTick>
 8003b8e:	4602      	mov	r2, r0
 8003b90:	693b      	ldr	r3, [r7, #16]
 8003b92:	1ad3      	subs	r3, r2, r3
 8003b94:	f241 3288 	movw	r2, #5000	@ 0x1388
 8003b98:	4293      	cmp	r3, r2
 8003b9a:	d901      	bls.n	8003ba0 <HAL_RCCEx_PeriphCLKConfig+0xe8>
          {
            return HAL_TIMEOUT;
 8003b9c:	2303      	movs	r3, #3
 8003b9e:	e036      	b.n	8003c0e <HAL_RCCEx_PeriphCLKConfig+0x156>
        while (__HAL_RCC_GET_FLAG(RCC_FLAG_LSERDY) == RESET)
 8003ba0:	4b1d      	ldr	r3, [pc, #116]	@ (8003c18 <HAL_RCCEx_PeriphCLKConfig+0x160>)
 8003ba2:	6a1b      	ldr	r3, [r3, #32]
 8003ba4:	f003 0302 	and.w	r3, r3, #2
 8003ba8:	2b00      	cmp	r3, #0
 8003baa:	d0ee      	beq.n	8003b8a <HAL_RCCEx_PeriphCLKConfig+0xd2>
          }
        }
      }
    }
    __HAL_RCC_RTC_CONFIG(PeriphClkInit->RTCClockSelection);
 8003bac:	4b1a      	ldr	r3, [pc, #104]	@ (8003c18 <HAL_RCCEx_PeriphCLKConfig+0x160>)
 8003bae:	6a1b      	ldr	r3, [r3, #32]
 8003bb0:	f423 7240 	bic.w	r2, r3, #768	@ 0x300
 8003bb4:	687b      	ldr	r3, [r7, #4]
 8003bb6:	685b      	ldr	r3, [r3, #4]
 8003bb8:	4917      	ldr	r1, [pc, #92]	@ (8003c18 <HAL_RCCEx_PeriphCLKConfig+0x160>)
 8003bba:	4313      	orrs	r3, r2
 8003bbc:	620b      	str	r3, [r1, #32]

    /* Require to disable power clock if necessary */
    if (pwrclkchanged == SET)
 8003bbe:	7dfb      	ldrb	r3, [r7, #23]
 8003bc0:	2b01      	cmp	r3, #1
 8003bc2:	d105      	bne.n	8003bd0 <HAL_RCCEx_PeriphCLKConfig+0x118>
    {
      __HAL_RCC_PWR_CLK_DISABLE();
 8003bc4:	4b14      	ldr	r3, [pc, #80]	@ (8003c18 <HAL_RCCEx_PeriphCLKConfig+0x160>)
 8003bc6:	69db      	ldr	r3, [r3, #28]
 8003bc8:	4a13      	ldr	r2, [pc, #76]	@ (8003c18 <HAL_RCCEx_PeriphCLKConfig+0x160>)
 8003bca:	f023 5380 	bic.w	r3, r3, #268435456	@ 0x10000000
 8003bce:	61d3      	str	r3, [r2, #28]
    }
  }

  /*------------------------------ ADC clock Configuration ------------------*/
  if (((PeriphClkInit->PeriphClockSelection) & RCC_PERIPHCLK_ADC) == RCC_PERIPHCLK_ADC)
 8003bd0:	687b      	ldr	r3, [r7, #4]
 8003bd2:	681b      	ldr	r3, [r3, #0]
 8003bd4:	f003 0302 	and.w	r3, r3, #2
 8003bd8:	2b00      	cmp	r3, #0
 8003bda:	d008      	beq.n	8003bee <HAL_RCCEx_PeriphCLKConfig+0x136>
  {
    /* Check the parameters */
    assert_param(IS_RCC_ADCPLLCLK_DIV(PeriphClkInit->AdcClockSelection));

    /* Configure the ADC clock source */
    __HAL_RCC_ADC_CONFIG(PeriphClkInit->AdcClockSelection);
 8003bdc:	4b0e      	ldr	r3, [pc, #56]	@ (8003c18 <HAL_RCCEx_PeriphCLKConfig+0x160>)
 8003bde:	685b      	ldr	r3, [r3, #4]
 8003be0:	f423 4240 	bic.w	r2, r3, #49152	@ 0xc000
 8003be4:	687b      	ldr	r3, [r7, #4]
 8003be6:	689b      	ldr	r3, [r3, #8]
 8003be8:	490b      	ldr	r1, [pc, #44]	@ (8003c18 <HAL_RCCEx_PeriphCLKConfig+0x160>)
 8003bea:	4313      	orrs	r3, r2
 8003bec:	604b      	str	r3, [r1, #4]

#if defined(STM32F102x6) || defined(STM32F102xB) || defined(STM32F103x6)\
 || defined(STM32F103xB) || defined(STM32F103xE) || defined(STM32F103xG)\
 || defined(STM32F105xC) || defined(STM32F107xC)
  /*------------------------------ USB clock Configuration ------------------*/
  if (((PeriphClkInit->PeriphClockSelection) & RCC_PERIPHCLK_USB) == RCC_PERIPHCLK_USB)
 8003bee:	687b      	ldr	r3, [r7, #4]
 8003bf0:	681b      	ldr	r3, [r3, #0]
 8003bf2:	f003 0310 	and.w	r3, r3, #16
 8003bf6:	2b00      	cmp	r3, #0
 8003bf8:	d008      	beq.n	8003c0c <HAL_RCCEx_PeriphCLKConfig+0x154>
  {
    /* Check the parameters */
    assert_param(IS_RCC_USBPLLCLK_DIV(PeriphClkInit->UsbClockSelection));

    /* Configure the USB clock source */
    __HAL_RCC_USB_CONFIG(PeriphClkInit->UsbClockSelection);
 8003bfa:	4b07      	ldr	r3, [pc, #28]	@ (8003c18 <HAL_RCCEx_PeriphCLKConfig+0x160>)
 8003bfc:	685b      	ldr	r3, [r3, #4]
 8003bfe:	f423 0280 	bic.w	r2, r3, #4194304	@ 0x400000
 8003c02:	687b      	ldr	r3, [r7, #4]
 8003c04:	68db      	ldr	r3, [r3, #12]
 8003c06:	4904      	ldr	r1, [pc, #16]	@ (8003c18 <HAL_RCCEx_PeriphCLKConfig+0x160>)
 8003c08:	4313      	orrs	r3, r2
 8003c0a:	604b      	str	r3, [r1, #4]
  }
#endif /* STM32F102x6 || STM32F102xB || STM32F103x6 || STM32F103xB || STM32F103xE || STM32F103xG || STM32F105xC || STM32F107xC */

  return HAL_OK;
 8003c0c:	2300      	movs	r3, #0
}
 8003c0e:	4618      	mov	r0, r3
 8003c10:	3718      	adds	r7, #24
 8003c12:	46bd      	mov	sp, r7
 8003c14:	bd80      	pop	{r7, pc}
 8003c16:	bf00      	nop
 8003c18:	40021000 	.word	0x40021000
 8003c1c:	40007000 	.word	0x40007000
 8003c20:	42420440 	.word	0x42420440

08003c24 <HAL_RCCEx_GetPeriphCLKFreq>:
  *            @arg @ref RCC_PERIPHCLK_USB  USB peripheral clock
  @endif
  * @retval Frequency in Hz (0: means that no available frequency for the peripheral)
  */
uint32_t HAL_RCCEx_GetPeriphCLKFreq(uint32_t PeriphClk)
{
 8003c24:	b580      	push	{r7, lr}
 8003c26:	b088      	sub	sp, #32
 8003c28:	af00      	add	r7, sp, #0
 8003c2a:	6078      	str	r0, [r7, #4]
#if defined(STM32F102x6) || defined(STM32F102xB) || defined(STM32F103x6) || \
    defined(STM32F103xB) || defined(STM32F103xE) || defined(STM32F103xG)
  static const uint8_t aPLLMULFactorTable[16U] = {2, 3, 4, 5, 6, 7, 8, 9, 10, 11, 12, 13, 14, 15, 16, 16};
  static const uint8_t aPredivFactorTable[2U] = {1, 2};

  uint32_t prediv1 = 0U, pllclk = 0U, pllmul = 0U;
 8003c2c:	2300      	movs	r3, #0
 8003c2e:	617b      	str	r3, [r7, #20]
 8003c30:	2300      	movs	r3, #0
 8003c32:	61fb      	str	r3, [r7, #28]
 8003c34:	2300      	movs	r3, #0
 8003c36:	613b      	str	r3, [r7, #16]
#endif /* STM32F102x6 || STM32F102xB || STM32F103x6 || STM32F103xB || STM32F103xE || STM32F103xG */
  uint32_t temp_reg = 0U, frequency = 0U;
 8003c38:	2300      	movs	r3, #0
 8003c3a:	60fb      	str	r3, [r7, #12]
 8003c3c:	2300      	movs	r3, #0
 8003c3e:	61bb      	str	r3, [r7, #24]

  /* Check the parameters */
  assert_param(IS_RCC_PERIPHCLOCK(PeriphClk));

  switch (PeriphClk)
 8003c40:	687b      	ldr	r3, [r7, #4]
 8003c42:	2b10      	cmp	r3, #16
 8003c44:	d00a      	beq.n	8003c5c <HAL_RCCEx_GetPeriphCLKFreq+0x38>
 8003c46:	687b      	ldr	r3, [r7, #4]
 8003c48:	2b10      	cmp	r3, #16
 8003c4a:	f200 808a 	bhi.w	8003d62 <HAL_RCCEx_GetPeriphCLKFreq+0x13e>
 8003c4e:	687b      	ldr	r3, [r7, #4]
 8003c50:	2b01      	cmp	r3, #1
 8003c52:	d045      	beq.n	8003ce0 <HAL_RCCEx_GetPeriphCLKFreq+0xbc>
 8003c54:	687b      	ldr	r3, [r7, #4]
 8003c56:	2b02      	cmp	r3, #2
 8003c58:	d075      	beq.n	8003d46 <HAL_RCCEx_GetPeriphCLKFreq+0x122>
      frequency = HAL_RCC_GetPCLK2Freq() / (((__HAL_RCC_GET_ADC_SOURCE() >> RCC_CFGR_ADCPRE_Pos) + 1) * 2);
      break;
    }
    default:
    {
      break;
 8003c5a:	e082      	b.n	8003d62 <HAL_RCCEx_GetPeriphCLKFreq+0x13e>
      temp_reg = RCC->CFGR;
 8003c5c:	4b46      	ldr	r3, [pc, #280]	@ (8003d78 <HAL_RCCEx_GetPeriphCLKFreq+0x154>)
 8003c5e:	685b      	ldr	r3, [r3, #4]
 8003c60:	60fb      	str	r3, [r7, #12]
      if (HAL_IS_BIT_SET(RCC->CR, RCC_CR_PLLON))
 8003c62:	4b45      	ldr	r3, [pc, #276]	@ (8003d78 <HAL_RCCEx_GetPeriphCLKFreq+0x154>)
 8003c64:	681b      	ldr	r3, [r3, #0]
 8003c66:	f003 7380 	and.w	r3, r3, #16777216	@ 0x1000000
 8003c6a:	2b00      	cmp	r3, #0
 8003c6c:	d07b      	beq.n	8003d66 <HAL_RCCEx_GetPeriphCLKFreq+0x142>
        pllmul = aPLLMULFactorTable[(uint32_t)(temp_reg & RCC_CFGR_PLLMULL) >> RCC_CFGR_PLLMULL_Pos];
 8003c6e:	68fb      	ldr	r3, [r7, #12]
 8003c70:	0c9b      	lsrs	r3, r3, #18
 8003c72:	f003 030f 	and.w	r3, r3, #15
 8003c76:	4a41      	ldr	r2, [pc, #260]	@ (8003d7c <HAL_RCCEx_GetPeriphCLKFreq+0x158>)
 8003c78:	5cd3      	ldrb	r3, [r2, r3]
 8003c7a:	613b      	str	r3, [r7, #16]
        if ((temp_reg & RCC_CFGR_PLLSRC) != RCC_PLLSOURCE_HSI_DIV2)
 8003c7c:	68fb      	ldr	r3, [r7, #12]
 8003c7e:	f403 3380 	and.w	r3, r3, #65536	@ 0x10000
 8003c82:	2b00      	cmp	r3, #0
 8003c84:	d015      	beq.n	8003cb2 <HAL_RCCEx_GetPeriphCLKFreq+0x8e>
          prediv1 = aPredivFactorTable[(uint32_t)(RCC->CFGR & RCC_CFGR_PLLXTPRE) >> RCC_CFGR_PLLXTPRE_Pos];
 8003c86:	4b3c      	ldr	r3, [pc, #240]	@ (8003d78 <HAL_RCCEx_GetPeriphCLKFreq+0x154>)
 8003c88:	685b      	ldr	r3, [r3, #4]
 8003c8a:	0c5b      	lsrs	r3, r3, #17
 8003c8c:	f003 0301 	and.w	r3, r3, #1
 8003c90:	4a3b      	ldr	r2, [pc, #236]	@ (8003d80 <HAL_RCCEx_GetPeriphCLKFreq+0x15c>)
 8003c92:	5cd3      	ldrb	r3, [r2, r3]
 8003c94:	617b      	str	r3, [r7, #20]
          if ((temp_reg & RCC_CFGR_PLLSRC) != RCC_PLLSOURCE_HSI_DIV2)
 8003c96:	68fb      	ldr	r3, [r7, #12]
 8003c98:	f403 3380 	and.w	r3, r3, #65536	@ 0x10000
 8003c9c:	2b00      	cmp	r3, #0
 8003c9e:	d00d      	beq.n	8003cbc <HAL_RCCEx_GetPeriphCLKFreq+0x98>
            pllclk = (uint32_t)((HSE_VALUE / prediv1) * pllmul);
 8003ca0:	4a38      	ldr	r2, [pc, #224]	@ (8003d84 <HAL_RCCEx_GetPeriphCLKFreq+0x160>)
 8003ca2:	697b      	ldr	r3, [r7, #20]
 8003ca4:	fbb2 f2f3 	udiv	r2, r2, r3
 8003ca8:	693b      	ldr	r3, [r7, #16]
 8003caa:	fb02 f303 	mul.w	r3, r2, r3
 8003cae:	61fb      	str	r3, [r7, #28]
 8003cb0:	e004      	b.n	8003cbc <HAL_RCCEx_GetPeriphCLKFreq+0x98>
          pllclk = (uint32_t)((HSI_VALUE >> 1) * pllmul);
 8003cb2:	693b      	ldr	r3, [r7, #16]
 8003cb4:	4a34      	ldr	r2, [pc, #208]	@ (8003d88 <HAL_RCCEx_GetPeriphCLKFreq+0x164>)
 8003cb6:	fb02 f303 	mul.w	r3, r2, r3
 8003cba:	61fb      	str	r3, [r7, #28]
        if (__HAL_RCC_GET_USB_SOURCE() == RCC_USBCLKSOURCE_PLL)
 8003cbc:	4b2e      	ldr	r3, [pc, #184]	@ (8003d78 <HAL_RCCEx_GetPeriphCLKFreq+0x154>)
 8003cbe:	685b      	ldr	r3, [r3, #4]
 8003cc0:	f403 0380 	and.w	r3, r3, #4194304	@ 0x400000
 8003cc4:	f5b3 0f80 	cmp.w	r3, #4194304	@ 0x400000
 8003cc8:	d102      	bne.n	8003cd0 <HAL_RCCEx_GetPeriphCLKFreq+0xac>
          frequency = pllclk;
 8003cca:	69fb      	ldr	r3, [r7, #28]
 8003ccc:	61bb      	str	r3, [r7, #24]
      break;
 8003cce:	e04a      	b.n	8003d66 <HAL_RCCEx_GetPeriphCLKFreq+0x142>
          frequency = (pllclk * 2) / 3;
 8003cd0:	69fb      	ldr	r3, [r7, #28]
 8003cd2:	005b      	lsls	r3, r3, #1
 8003cd4:	4a2d      	ldr	r2, [pc, #180]	@ (8003d8c <HAL_RCCEx_GetPeriphCLKFreq+0x168>)
 8003cd6:	fba2 2303 	umull	r2, r3, r2, r3
 8003cda:	085b      	lsrs	r3, r3, #1
 8003cdc:	61bb      	str	r3, [r7, #24]
      break;
 8003cde:	e042      	b.n	8003d66 <HAL_RCCEx_GetPeriphCLKFreq+0x142>
      temp_reg = RCC->BDCR;
 8003ce0:	4b25      	ldr	r3, [pc, #148]	@ (8003d78 <HAL_RCCEx_GetPeriphCLKFreq+0x154>)
 8003ce2:	6a1b      	ldr	r3, [r3, #32]
 8003ce4:	60fb      	str	r3, [r7, #12]
      if (((temp_reg & RCC_BDCR_RTCSEL) == RCC_RTCCLKSOURCE_LSE) && (HAL_IS_BIT_SET(temp_reg, RCC_BDCR_LSERDY)))
 8003ce6:	68fb      	ldr	r3, [r7, #12]
 8003ce8:	f403 7340 	and.w	r3, r3, #768	@ 0x300
 8003cec:	f5b3 7f80 	cmp.w	r3, #256	@ 0x100
 8003cf0:	d108      	bne.n	8003d04 <HAL_RCCEx_GetPeriphCLKFreq+0xe0>
 8003cf2:	68fb      	ldr	r3, [r7, #12]
 8003cf4:	f003 0302 	and.w	r3, r3, #2
 8003cf8:	2b00      	cmp	r3, #0
 8003cfa:	d003      	beq.n	8003d04 <HAL_RCCEx_GetPeriphCLKFreq+0xe0>
        frequency = LSE_VALUE;
 8003cfc:	f44f 4300 	mov.w	r3, #32768	@ 0x8000
 8003d00:	61bb      	str	r3, [r7, #24]
 8003d02:	e01f      	b.n	8003d44 <HAL_RCCEx_GetPeriphCLKFreq+0x120>
      else if (((temp_reg & RCC_BDCR_RTCSEL) == RCC_RTCCLKSOURCE_LSI) && (HAL_IS_BIT_SET(RCC->CSR, RCC_CSR_LSIRDY)))
 8003d04:	68fb      	ldr	r3, [r7, #12]
 8003d06:	f403 7340 	and.w	r3, r3, #768	@ 0x300
 8003d0a:	f5b3 7f00 	cmp.w	r3, #512	@ 0x200
 8003d0e:	d109      	bne.n	8003d24 <HAL_RCCEx_GetPeriphCLKFreq+0x100>
 8003d10:	4b19      	ldr	r3, [pc, #100]	@ (8003d78 <HAL_RCCEx_GetPeriphCLKFreq+0x154>)
 8003d12:	6a5b      	ldr	r3, [r3, #36]	@ 0x24
 8003d14:	f003 0302 	and.w	r3, r3, #2
 8003d18:	2b00      	cmp	r3, #0
 8003d1a:	d003      	beq.n	8003d24 <HAL_RCCEx_GetPeriphCLKFreq+0x100>
        frequency = LSI_VALUE;
 8003d1c:	f649 4340 	movw	r3, #40000	@ 0x9c40
 8003d20:	61bb      	str	r3, [r7, #24]
 8003d22:	e00f      	b.n	8003d44 <HAL_RCCEx_GetPeriphCLKFreq+0x120>
      else if (((temp_reg & RCC_BDCR_RTCSEL) == RCC_RTCCLKSOURCE_HSE_DIV128) && (HAL_IS_BIT_SET(RCC->CR, RCC_CR_HSERDY)))
 8003d24:	68fb      	ldr	r3, [r7, #12]
 8003d26:	f403 7340 	and.w	r3, r3, #768	@ 0x300
 8003d2a:	f5b3 7f40 	cmp.w	r3, #768	@ 0x300
 8003d2e:	d11c      	bne.n	8003d6a <HAL_RCCEx_GetPeriphCLKFreq+0x146>
 8003d30:	4b11      	ldr	r3, [pc, #68]	@ (8003d78 <HAL_RCCEx_GetPeriphCLKFreq+0x154>)
 8003d32:	681b      	ldr	r3, [r3, #0]
 8003d34:	f403 3300 	and.w	r3, r3, #131072	@ 0x20000
 8003d38:	2b00      	cmp	r3, #0
 8003d3a:	d016      	beq.n	8003d6a <HAL_RCCEx_GetPeriphCLKFreq+0x146>
        frequency = HSE_VALUE / 128U;
 8003d3c:	f24f 4324 	movw	r3, #62500	@ 0xf424
 8003d40:	61bb      	str	r3, [r7, #24]
      break;
 8003d42:	e012      	b.n	8003d6a <HAL_RCCEx_GetPeriphCLKFreq+0x146>
 8003d44:	e011      	b.n	8003d6a <HAL_RCCEx_GetPeriphCLKFreq+0x146>
      frequency = HAL_RCC_GetPCLK2Freq() / (((__HAL_RCC_GET_ADC_SOURCE() >> RCC_CFGR_ADCPRE_Pos) + 1) * 2);
 8003d46:	f7ff fe85 	bl	8003a54 <HAL_RCC_GetPCLK2Freq>
 8003d4a:	4602      	mov	r2, r0
 8003d4c:	4b0a      	ldr	r3, [pc, #40]	@ (8003d78 <HAL_RCCEx_GetPeriphCLKFreq+0x154>)
 8003d4e:	685b      	ldr	r3, [r3, #4]
 8003d50:	0b9b      	lsrs	r3, r3, #14
 8003d52:	f003 0303 	and.w	r3, r3, #3
 8003d56:	3301      	adds	r3, #1
 8003d58:	005b      	lsls	r3, r3, #1
 8003d5a:	fbb2 f3f3 	udiv	r3, r2, r3
 8003d5e:	61bb      	str	r3, [r7, #24]
      break;
 8003d60:	e004      	b.n	8003d6c <HAL_RCCEx_GetPeriphCLKFreq+0x148>
      break;
 8003d62:	bf00      	nop
 8003d64:	e002      	b.n	8003d6c <HAL_RCCEx_GetPeriphCLKFreq+0x148>
      break;
 8003d66:	bf00      	nop
 8003d68:	e000      	b.n	8003d6c <HAL_RCCEx_GetPeriphCLKFreq+0x148>
      break;
 8003d6a:	bf00      	nop
    }
  }
  return (frequency);
 8003d6c:	69bb      	ldr	r3, [r7, #24]
}
 8003d6e:	4618      	mov	r0, r3
 8003d70:	3720      	adds	r7, #32
 8003d72:	46bd      	mov	sp, r7
 8003d74:	bd80      	pop	{r7, pc}
 8003d76:	bf00      	nop
 8003d78:	40021000 	.word	0x40021000
 8003d7c:	08007470 	.word	0x08007470
 8003d80:	08007480 	.word	0x08007480
 8003d84:	007a1200 	.word	0x007a1200
 8003d88:	003d0900 	.word	0x003d0900
 8003d8c:	aaaaaaab 	.word	0xaaaaaaab

08003d90 <HAL_TIM_Base_Init>:
  *         Ex: call @ref HAL_TIM_Base_DeInit() before HAL_TIM_Base_Init()
  * @param  htim TIM Base handle
  * @retval HAL status
  */
HAL_StatusTypeDef HAL_TIM_Base_Init(TIM_HandleTypeDef *htim)
{
 8003d90:	b580      	push	{r7, lr}
 8003d92:	b082      	sub	sp, #8
 8003d94:	af00      	add	r7, sp, #0
 8003d96:	6078      	str	r0, [r7, #4]
  /* Check the TIM handle allocation */
  if (htim == NULL)
 8003d98:	687b      	ldr	r3, [r7, #4]
 8003d9a:	2b00      	cmp	r3, #0
 8003d9c:	d101      	bne.n	8003da2 <HAL_TIM_Base_Init+0x12>
  {
    return HAL_ERROR;
 8003d9e:	2301      	movs	r3, #1
 8003da0:	e041      	b.n	8003e26 <HAL_TIM_Base_Init+0x96>
  assert_param(IS_TIM_COUNTER_MODE(htim->Init.CounterMode));
  assert_param(IS_TIM_CLOCKDIVISION_DIV(htim->Init.ClockDivision));
  assert_param(IS_TIM_PERIOD(htim->Init.Period));
  assert_param(IS_TIM_AUTORELOAD_PRELOAD(htim->Init.AutoReloadPreload));

  if (htim->State == HAL_TIM_STATE_RESET)
 8003da2:	687b      	ldr	r3, [r7, #4]
 8003da4:	f893 303d 	ldrb.w	r3, [r3, #61]	@ 0x3d
 8003da8:	b2db      	uxtb	r3, r3
 8003daa:	2b00      	cmp	r3, #0
 8003dac:	d106      	bne.n	8003dbc <HAL_TIM_Base_Init+0x2c>
  {
    /* Allocate lock resource and initialize it */
    htim->Lock = HAL_UNLOCKED;
 8003dae:	687b      	ldr	r3, [r7, #4]
 8003db0:	2200      	movs	r2, #0
 8003db2:	f883 203c 	strb.w	r2, [r3, #60]	@ 0x3c
    }
    /* Init the low level hardware : GPIO, CLOCK, NVIC */
    htim->Base_MspInitCallback(htim);
#else
    /* Init the low level hardware : GPIO, CLOCK, NVIC */
    HAL_TIM_Base_MspInit(htim);
 8003db6:	6878      	ldr	r0, [r7, #4]
 8003db8:	f7fc ffa6 	bl	8000d08 <HAL_TIM_Base_MspInit>
#endif /* USE_HAL_TIM_REGISTER_CALLBACKS */
  }

  /* Set the TIM state */
  htim->State = HAL_TIM_STATE_BUSY;
 8003dbc:	687b      	ldr	r3, [r7, #4]
 8003dbe:	2202      	movs	r2, #2
 8003dc0:	f883 203d 	strb.w	r2, [r3, #61]	@ 0x3d

  /* Set the Time Base configuration */
  TIM_Base_SetConfig(htim->Instance, &htim->Init);
 8003dc4:	687b      	ldr	r3, [r7, #4]
 8003dc6:	681a      	ldr	r2, [r3, #0]
 8003dc8:	687b      	ldr	r3, [r7, #4]
 8003dca:	3304      	adds	r3, #4
 8003dcc:	4619      	mov	r1, r3
 8003dce:	4610      	mov	r0, r2
 8003dd0:	f000 fa56 	bl	8004280 <TIM_Base_SetConfig>

  /* Initialize the DMA burst operation state */
  htim->DMABurstState = HAL_DMA_BURST_STATE_READY;
 8003dd4:	687b      	ldr	r3, [r7, #4]
 8003dd6:	2201      	movs	r2, #1
 8003dd8:	f883 2046 	strb.w	r2, [r3, #70]	@ 0x46

  /* Initialize the TIM channels state */
  TIM_CHANNEL_STATE_SET_ALL(htim, HAL_TIM_CHANNEL_STATE_READY);
 8003ddc:	687b      	ldr	r3, [r7, #4]
 8003dde:	2201      	movs	r2, #1
 8003de0:	f883 203e 	strb.w	r2, [r3, #62]	@ 0x3e
 8003de4:	687b      	ldr	r3, [r7, #4]
 8003de6:	2201      	movs	r2, #1
 8003de8:	f883 203f 	strb.w	r2, [r3, #63]	@ 0x3f
 8003dec:	687b      	ldr	r3, [r7, #4]
 8003dee:	2201      	movs	r2, #1
 8003df0:	f883 2040 	strb.w	r2, [r3, #64]	@ 0x40
 8003df4:	687b      	ldr	r3, [r7, #4]
 8003df6:	2201      	movs	r2, #1
 8003df8:	f883 2041 	strb.w	r2, [r3, #65]	@ 0x41
  TIM_CHANNEL_N_STATE_SET_ALL(htim, HAL_TIM_CHANNEL_STATE_READY);
 8003dfc:	687b      	ldr	r3, [r7, #4]
 8003dfe:	2201      	movs	r2, #1
 8003e00:	f883 2042 	strb.w	r2, [r3, #66]	@ 0x42
 8003e04:	687b      	ldr	r3, [r7, #4]
 8003e06:	2201      	movs	r2, #1
 8003e08:	f883 2043 	strb.w	r2, [r3, #67]	@ 0x43
 8003e0c:	687b      	ldr	r3, [r7, #4]
 8003e0e:	2201      	movs	r2, #1
 8003e10:	f883 2044 	strb.w	r2, [r3, #68]	@ 0x44
 8003e14:	687b      	ldr	r3, [r7, #4]
 8003e16:	2201      	movs	r2, #1
 8003e18:	f883 2045 	strb.w	r2, [r3, #69]	@ 0x45

  /* Initialize the TIM state*/
  htim->State = HAL_TIM_STATE_READY;
 8003e1c:	687b      	ldr	r3, [r7, #4]
 8003e1e:	2201      	movs	r2, #1
 8003e20:	f883 203d 	strb.w	r2, [r3, #61]	@ 0x3d

  return HAL_OK;
 8003e24:	2300      	movs	r3, #0
}
 8003e26:	4618      	mov	r0, r3
 8003e28:	3708      	adds	r7, #8
 8003e2a:	46bd      	mov	sp, r7
 8003e2c:	bd80      	pop	{r7, pc}
	...

08003e30 <HAL_TIM_Base_Start_IT>:
  * @brief  Starts the TIM Base generation in interrupt mode.
  * @param  htim TIM Base handle
  * @retval HAL status
  */
HAL_StatusTypeDef HAL_TIM_Base_Start_IT(TIM_HandleTypeDef *htim)
{
 8003e30:	b480      	push	{r7}
 8003e32:	b085      	sub	sp, #20
 8003e34:	af00      	add	r7, sp, #0
 8003e36:	6078      	str	r0, [r7, #4]

  /* Check the parameters */
  assert_param(IS_TIM_INSTANCE(htim->Instance));

  /* Check the TIM state */
  if (htim->State != HAL_TIM_STATE_READY)
 8003e38:	687b      	ldr	r3, [r7, #4]
 8003e3a:	f893 303d 	ldrb.w	r3, [r3, #61]	@ 0x3d
 8003e3e:	b2db      	uxtb	r3, r3
 8003e40:	2b01      	cmp	r3, #1
 8003e42:	d001      	beq.n	8003e48 <HAL_TIM_Base_Start_IT+0x18>
  {
    return HAL_ERROR;
 8003e44:	2301      	movs	r3, #1
 8003e46:	e035      	b.n	8003eb4 <HAL_TIM_Base_Start_IT+0x84>
  }

  /* Set the TIM state */
  htim->State = HAL_TIM_STATE_BUSY;
 8003e48:	687b      	ldr	r3, [r7, #4]
 8003e4a:	2202      	movs	r2, #2
 8003e4c:	f883 203d 	strb.w	r2, [r3, #61]	@ 0x3d

  /* Enable the TIM Update interrupt */
  __HAL_TIM_ENABLE_IT(htim, TIM_IT_UPDATE);
 8003e50:	687b      	ldr	r3, [r7, #4]
 8003e52:	681b      	ldr	r3, [r3, #0]
 8003e54:	68da      	ldr	r2, [r3, #12]
 8003e56:	687b      	ldr	r3, [r7, #4]
 8003e58:	681b      	ldr	r3, [r3, #0]
 8003e5a:	f042 0201 	orr.w	r2, r2, #1
 8003e5e:	60da      	str	r2, [r3, #12]

  /* Enable the Peripheral, except in trigger mode where enable is automatically done with trigger */
  if (IS_TIM_SLAVE_INSTANCE(htim->Instance))
 8003e60:	687b      	ldr	r3, [r7, #4]
 8003e62:	681b      	ldr	r3, [r3, #0]
 8003e64:	4a16      	ldr	r2, [pc, #88]	@ (8003ec0 <HAL_TIM_Base_Start_IT+0x90>)
 8003e66:	4293      	cmp	r3, r2
 8003e68:	d009      	beq.n	8003e7e <HAL_TIM_Base_Start_IT+0x4e>
 8003e6a:	687b      	ldr	r3, [r7, #4]
 8003e6c:	681b      	ldr	r3, [r3, #0]
 8003e6e:	f1b3 4f80 	cmp.w	r3, #1073741824	@ 0x40000000
 8003e72:	d004      	beq.n	8003e7e <HAL_TIM_Base_Start_IT+0x4e>
 8003e74:	687b      	ldr	r3, [r7, #4]
 8003e76:	681b      	ldr	r3, [r3, #0]
 8003e78:	4a12      	ldr	r2, [pc, #72]	@ (8003ec4 <HAL_TIM_Base_Start_IT+0x94>)
 8003e7a:	4293      	cmp	r3, r2
 8003e7c:	d111      	bne.n	8003ea2 <HAL_TIM_Base_Start_IT+0x72>
  {
    tmpsmcr = htim->Instance->SMCR & TIM_SMCR_SMS;
 8003e7e:	687b      	ldr	r3, [r7, #4]
 8003e80:	681b      	ldr	r3, [r3, #0]
 8003e82:	689b      	ldr	r3, [r3, #8]
 8003e84:	f003 0307 	and.w	r3, r3, #7
 8003e88:	60fb      	str	r3, [r7, #12]
    if (!IS_TIM_SLAVEMODE_TRIGGER_ENABLED(tmpsmcr))
 8003e8a:	68fb      	ldr	r3, [r7, #12]
 8003e8c:	2b06      	cmp	r3, #6
 8003e8e:	d010      	beq.n	8003eb2 <HAL_TIM_Base_Start_IT+0x82>
    {
      __HAL_TIM_ENABLE(htim);
 8003e90:	687b      	ldr	r3, [r7, #4]
 8003e92:	681b      	ldr	r3, [r3, #0]
 8003e94:	681a      	ldr	r2, [r3, #0]
 8003e96:	687b      	ldr	r3, [r7, #4]
 8003e98:	681b      	ldr	r3, [r3, #0]
 8003e9a:	f042 0201 	orr.w	r2, r2, #1
 8003e9e:	601a      	str	r2, [r3, #0]
    if (!IS_TIM_SLAVEMODE_TRIGGER_ENABLED(tmpsmcr))
 8003ea0:	e007      	b.n	8003eb2 <HAL_TIM_Base_Start_IT+0x82>
    }
  }
  else
  {
    __HAL_TIM_ENABLE(htim);
 8003ea2:	687b      	ldr	r3, [r7, #4]
 8003ea4:	681b      	ldr	r3, [r3, #0]
 8003ea6:	681a      	ldr	r2, [r3, #0]
 8003ea8:	687b      	ldr	r3, [r7, #4]
 8003eaa:	681b      	ldr	r3, [r3, #0]
 8003eac:	f042 0201 	orr.w	r2, r2, #1
 8003eb0:	601a      	str	r2, [r3, #0]
  }

  /* Return function status */
  return HAL_OK;
 8003eb2:	2300      	movs	r3, #0
}
 8003eb4:	4618      	mov	r0, r3
 8003eb6:	3714      	adds	r7, #20
 8003eb8:	46bd      	mov	sp, r7
 8003eba:	bc80      	pop	{r7}
 8003ebc:	4770      	bx	lr
 8003ebe:	bf00      	nop
 8003ec0:	40012c00 	.word	0x40012c00
 8003ec4:	40000400 	.word	0x40000400

08003ec8 <HAL_TIM_IRQHandler>:
  * @brief  This function handles TIM interrupts requests.
  * @param  htim TIM  handle
  * @retval None
  */
void HAL_TIM_IRQHandler(TIM_HandleTypeDef *htim)
{
 8003ec8:	b580      	push	{r7, lr}
 8003eca:	b084      	sub	sp, #16
 8003ecc:	af00      	add	r7, sp, #0
 8003ece:	6078      	str	r0, [r7, #4]
  uint32_t itsource = htim->Instance->DIER;
 8003ed0:	687b      	ldr	r3, [r7, #4]
 8003ed2:	681b      	ldr	r3, [r3, #0]
 8003ed4:	68db      	ldr	r3, [r3, #12]
 8003ed6:	60fb      	str	r3, [r7, #12]
  uint32_t itflag   = htim->Instance->SR;
 8003ed8:	687b      	ldr	r3, [r7, #4]
 8003eda:	681b      	ldr	r3, [r3, #0]
 8003edc:	691b      	ldr	r3, [r3, #16]
 8003ede:	60bb      	str	r3, [r7, #8]

  /* Capture compare 1 event */
  if ((itflag & (TIM_FLAG_CC1)) == (TIM_FLAG_CC1))
 8003ee0:	68bb      	ldr	r3, [r7, #8]
 8003ee2:	f003 0302 	and.w	r3, r3, #2
 8003ee6:	2b00      	cmp	r3, #0
 8003ee8:	d020      	beq.n	8003f2c <HAL_TIM_IRQHandler+0x64>
  {
    if ((itsource & (TIM_IT_CC1)) == (TIM_IT_CC1))
 8003eea:	68fb      	ldr	r3, [r7, #12]
 8003eec:	f003 0302 	and.w	r3, r3, #2
 8003ef0:	2b00      	cmp	r3, #0
 8003ef2:	d01b      	beq.n	8003f2c <HAL_TIM_IRQHandler+0x64>
    {
      {
        __HAL_TIM_CLEAR_FLAG(htim, TIM_FLAG_CC1);
 8003ef4:	687b      	ldr	r3, [r7, #4]
 8003ef6:	681b      	ldr	r3, [r3, #0]
 8003ef8:	f06f 0202 	mvn.w	r2, #2
 8003efc:	611a      	str	r2, [r3, #16]
        htim->Channel = HAL_TIM_ACTIVE_CHANNEL_1;
 8003efe:	687b      	ldr	r3, [r7, #4]
 8003f00:	2201      	movs	r2, #1
 8003f02:	771a      	strb	r2, [r3, #28]

        /* Input capture event */
        if ((htim->Instance->CCMR1 & TIM_CCMR1_CC1S) != 0x00U)
 8003f04:	687b      	ldr	r3, [r7, #4]
 8003f06:	681b      	ldr	r3, [r3, #0]
 8003f08:	699b      	ldr	r3, [r3, #24]
 8003f0a:	f003 0303 	and.w	r3, r3, #3
 8003f0e:	2b00      	cmp	r3, #0
 8003f10:	d003      	beq.n	8003f1a <HAL_TIM_IRQHandler+0x52>
        {
#if (USE_HAL_TIM_REGISTER_CALLBACKS == 1)
          htim->IC_CaptureCallback(htim);
#else
          HAL_TIM_IC_CaptureCallback(htim);
 8003f12:	6878      	ldr	r0, [r7, #4]
 8003f14:	f000 f998 	bl	8004248 <HAL_TIM_IC_CaptureCallback>
 8003f18:	e005      	b.n	8003f26 <HAL_TIM_IRQHandler+0x5e>
        {
#if (USE_HAL_TIM_REGISTER_CALLBACKS == 1)
          htim->OC_DelayElapsedCallback(htim);
          htim->PWM_PulseFinishedCallback(htim);
#else
          HAL_TIM_OC_DelayElapsedCallback(htim);
 8003f1a:	6878      	ldr	r0, [r7, #4]
 8003f1c:	f000 f98b 	bl	8004236 <HAL_TIM_OC_DelayElapsedCallback>
          HAL_TIM_PWM_PulseFinishedCallback(htim);
 8003f20:	6878      	ldr	r0, [r7, #4]
 8003f22:	f000 f99a 	bl	800425a <HAL_TIM_PWM_PulseFinishedCallback>
#endif /* USE_HAL_TIM_REGISTER_CALLBACKS */
        }
        htim->Channel = HAL_TIM_ACTIVE_CHANNEL_CLEARED;
 8003f26:	687b      	ldr	r3, [r7, #4]
 8003f28:	2200      	movs	r2, #0
 8003f2a:	771a      	strb	r2, [r3, #28]
      }
    }
  }
  /* Capture compare 2 event */
  if ((itflag & (TIM_FLAG_CC2)) == (TIM_FLAG_CC2))
 8003f2c:	68bb      	ldr	r3, [r7, #8]
 8003f2e:	f003 0304 	and.w	r3, r3, #4
 8003f32:	2b00      	cmp	r3, #0
 8003f34:	d020      	beq.n	8003f78 <HAL_TIM_IRQHandler+0xb0>
  {
    if ((itsource & (TIM_IT_CC2)) == (TIM_IT_CC2))
 8003f36:	68fb      	ldr	r3, [r7, #12]
 8003f38:	f003 0304 	and.w	r3, r3, #4
 8003f3c:	2b00      	cmp	r3, #0
 8003f3e:	d01b      	beq.n	8003f78 <HAL_TIM_IRQHandler+0xb0>
    {
      __HAL_TIM_CLEAR_FLAG(htim, TIM_FLAG_CC2);
 8003f40:	687b      	ldr	r3, [r7, #4]
 8003f42:	681b      	ldr	r3, [r3, #0]
 8003f44:	f06f 0204 	mvn.w	r2, #4
 8003f48:	611a      	str	r2, [r3, #16]
      htim->Channel = HAL_TIM_ACTIVE_CHANNEL_2;
 8003f4a:	687b      	ldr	r3, [r7, #4]
 8003f4c:	2202      	movs	r2, #2
 8003f4e:	771a      	strb	r2, [r3, #28]
      /* Input capture event */
      if ((htim->Instance->CCMR1 & TIM_CCMR1_CC2S) != 0x00U)
 8003f50:	687b      	ldr	r3, [r7, #4]
 8003f52:	681b      	ldr	r3, [r3, #0]
 8003f54:	699b      	ldr	r3, [r3, #24]
 8003f56:	f403 7340 	and.w	r3, r3, #768	@ 0x300
 8003f5a:	2b00      	cmp	r3, #0
 8003f5c:	d003      	beq.n	8003f66 <HAL_TIM_IRQHandler+0x9e>
      {
#if (USE_HAL_TIM_REGISTER_CALLBACKS == 1)
        htim->IC_CaptureCallback(htim);
#else
        HAL_TIM_IC_CaptureCallback(htim);
 8003f5e:	6878      	ldr	r0, [r7, #4]
 8003f60:	f000 f972 	bl	8004248 <HAL_TIM_IC_CaptureCallback>
 8003f64:	e005      	b.n	8003f72 <HAL_TIM_IRQHandler+0xaa>
      {
#if (USE_HAL_TIM_REGISTER_CALLBACKS == 1)
        htim->OC_DelayElapsedCallback(htim);
        htim->PWM_PulseFinishedCallback(htim);
#else
        HAL_TIM_OC_DelayElapsedCallback(htim);
 8003f66:	6878      	ldr	r0, [r7, #4]
 8003f68:	f000 f965 	bl	8004236 <HAL_TIM_OC_DelayElapsedCallback>
        HAL_TIM_PWM_PulseFinishedCallback(htim);
 8003f6c:	6878      	ldr	r0, [r7, #4]
 8003f6e:	f000 f974 	bl	800425a <HAL_TIM_PWM_PulseFinishedCallback>
#endif /* USE_HAL_TIM_REGISTER_CALLBACKS */
      }
      htim->Channel = HAL_TIM_ACTIVE_CHANNEL_CLEARED;
 8003f72:	687b      	ldr	r3, [r7, #4]
 8003f74:	2200      	movs	r2, #0
 8003f76:	771a      	strb	r2, [r3, #28]
    }
  }
  /* Capture compare 3 event */
  if ((itflag & (TIM_FLAG_CC3)) == (TIM_FLAG_CC3))
 8003f78:	68bb      	ldr	r3, [r7, #8]
 8003f7a:	f003 0308 	and.w	r3, r3, #8
 8003f7e:	2b00      	cmp	r3, #0
 8003f80:	d020      	beq.n	8003fc4 <HAL_TIM_IRQHandler+0xfc>
  {
    if ((itsource & (TIM_IT_CC3)) == (TIM_IT_CC3))
 8003f82:	68fb      	ldr	r3, [r7, #12]
 8003f84:	f003 0308 	and.w	r3, r3, #8
 8003f88:	2b00      	cmp	r3, #0
 8003f8a:	d01b      	beq.n	8003fc4 <HAL_TIM_IRQHandler+0xfc>
    {
      __HAL_TIM_CLEAR_FLAG(htim, TIM_FLAG_CC3);
 8003f8c:	687b      	ldr	r3, [r7, #4]
 8003f8e:	681b      	ldr	r3, [r3, #0]
 8003f90:	f06f 0208 	mvn.w	r2, #8
 8003f94:	611a      	str	r2, [r3, #16]
      htim->Channel = HAL_TIM_ACTIVE_CHANNEL_3;
 8003f96:	687b      	ldr	r3, [r7, #4]
 8003f98:	2204      	movs	r2, #4
 8003f9a:	771a      	strb	r2, [r3, #28]
      /* Input capture event */
      if ((htim->Instance->CCMR2 & TIM_CCMR2_CC3S) != 0x00U)
 8003f9c:	687b      	ldr	r3, [r7, #4]
 8003f9e:	681b      	ldr	r3, [r3, #0]
 8003fa0:	69db      	ldr	r3, [r3, #28]
 8003fa2:	f003 0303 	and.w	r3, r3, #3
 8003fa6:	2b00      	cmp	r3, #0
 8003fa8:	d003      	beq.n	8003fb2 <HAL_TIM_IRQHandler+0xea>
      {
#if (USE_HAL_TIM_REGISTER_CALLBACKS == 1)
        htim->IC_CaptureCallback(htim);
#else
        HAL_TIM_IC_CaptureCallback(htim);
 8003faa:	6878      	ldr	r0, [r7, #4]
 8003fac:	f000 f94c 	bl	8004248 <HAL_TIM_IC_CaptureCallback>
 8003fb0:	e005      	b.n	8003fbe <HAL_TIM_IRQHandler+0xf6>
      {
#if (USE_HAL_TIM_REGISTER_CALLBACKS == 1)
        htim->OC_DelayElapsedCallback(htim);
        htim->PWM_PulseFinishedCallback(htim);
#else
        HAL_TIM_OC_DelayElapsedCallback(htim);
 8003fb2:	6878      	ldr	r0, [r7, #4]
 8003fb4:	f000 f93f 	bl	8004236 <HAL_TIM_OC_DelayElapsedCallback>
        HAL_TIM_PWM_PulseFinishedCallback(htim);
 8003fb8:	6878      	ldr	r0, [r7, #4]
 8003fba:	f000 f94e 	bl	800425a <HAL_TIM_PWM_PulseFinishedCallback>
#endif /* USE_HAL_TIM_REGISTER_CALLBACKS */
      }
      htim->Channel = HAL_TIM_ACTIVE_CHANNEL_CLEARED;
 8003fbe:	687b      	ldr	r3, [r7, #4]
 8003fc0:	2200      	movs	r2, #0
 8003fc2:	771a      	strb	r2, [r3, #28]
    }
  }
  /* Capture compare 4 event */
  if ((itflag & (TIM_FLAG_CC4)) == (TIM_FLAG_CC4))
 8003fc4:	68bb      	ldr	r3, [r7, #8]
 8003fc6:	f003 0310 	and.w	r3, r3, #16
 8003fca:	2b00      	cmp	r3, #0
 8003fcc:	d020      	beq.n	8004010 <HAL_TIM_IRQHandler+0x148>
  {
    if ((itsource & (TIM_IT_CC4)) == (TIM_IT_CC4))
 8003fce:	68fb      	ldr	r3, [r7, #12]
 8003fd0:	f003 0310 	and.w	r3, r3, #16
 8003fd4:	2b00      	cmp	r3, #0
 8003fd6:	d01b      	beq.n	8004010 <HAL_TIM_IRQHandler+0x148>
    {
      __HAL_TIM_CLEAR_FLAG(htim, TIM_FLAG_CC4);
 8003fd8:	687b      	ldr	r3, [r7, #4]
 8003fda:	681b      	ldr	r3, [r3, #0]
 8003fdc:	f06f 0210 	mvn.w	r2, #16
 8003fe0:	611a      	str	r2, [r3, #16]
      htim->Channel = HAL_TIM_ACTIVE_CHANNEL_4;
 8003fe2:	687b      	ldr	r3, [r7, #4]
 8003fe4:	2208      	movs	r2, #8
 8003fe6:	771a      	strb	r2, [r3, #28]
      /* Input capture event */
      if ((htim->Instance->CCMR2 & TIM_CCMR2_CC4S) != 0x00U)
 8003fe8:	687b      	ldr	r3, [r7, #4]
 8003fea:	681b      	ldr	r3, [r3, #0]
 8003fec:	69db      	ldr	r3, [r3, #28]
 8003fee:	f403 7340 	and.w	r3, r3, #768	@ 0x300
 8003ff2:	2b00      	cmp	r3, #0
 8003ff4:	d003      	beq.n	8003ffe <HAL_TIM_IRQHandler+0x136>
      {
#if (USE_HAL_TIM_REGISTER_CALLBACKS == 1)
        htim->IC_CaptureCallback(htim);
#else
        HAL_TIM_IC_CaptureCallback(htim);
 8003ff6:	6878      	ldr	r0, [r7, #4]
 8003ff8:	f000 f926 	bl	8004248 <HAL_TIM_IC_CaptureCallback>
 8003ffc:	e005      	b.n	800400a <HAL_TIM_IRQHandler+0x142>
      {
#if (USE_HAL_TIM_REGISTER_CALLBACKS == 1)
        htim->OC_DelayElapsedCallback(htim);
        htim->PWM_PulseFinishedCallback(htim);
#else
        HAL_TIM_OC_DelayElapsedCallback(htim);
 8003ffe:	6878      	ldr	r0, [r7, #4]
 8004000:	f000 f919 	bl	8004236 <HAL_TIM_OC_DelayElapsedCallback>
        HAL_TIM_PWM_PulseFinishedCallback(htim);
 8004004:	6878      	ldr	r0, [r7, #4]
 8004006:	f000 f928 	bl	800425a <HAL_TIM_PWM_PulseFinishedCallback>
#endif /* USE_HAL_TIM_REGISTER_CALLBACKS */
      }
      htim->Channel = HAL_TIM_ACTIVE_CHANNEL_CLEARED;
 800400a:	687b      	ldr	r3, [r7, #4]
 800400c:	2200      	movs	r2, #0
 800400e:	771a      	strb	r2, [r3, #28]
    }
  }
  /* TIM Update event */
  if ((itflag & (TIM_FLAG_UPDATE)) == (TIM_FLAG_UPDATE))
 8004010:	68bb      	ldr	r3, [r7, #8]
 8004012:	f003 0301 	and.w	r3, r3, #1
 8004016:	2b00      	cmp	r3, #0
 8004018:	d00c      	beq.n	8004034 <HAL_TIM_IRQHandler+0x16c>
  {
    if ((itsource & (TIM_IT_UPDATE)) == (TIM_IT_UPDATE))
 800401a:	68fb      	ldr	r3, [r7, #12]
 800401c:	f003 0301 	and.w	r3, r3, #1
 8004020:	2b00      	cmp	r3, #0
 8004022:	d007      	beq.n	8004034 <HAL_TIM_IRQHandler+0x16c>
    {
      __HAL_TIM_CLEAR_FLAG(htim, TIM_FLAG_UPDATE);
 8004024:	687b      	ldr	r3, [r7, #4]
 8004026:	681b      	ldr	r3, [r3, #0]
 8004028:	f06f 0201 	mvn.w	r2, #1
 800402c:	611a      	str	r2, [r3, #16]
#if (USE_HAL_TIM_REGISTER_CALLBACKS == 1)
      htim->PeriodElapsedCallback(htim);
#else
      HAL_TIM_PeriodElapsedCallback(htim);
 800402e:	6878      	ldr	r0, [r7, #4]
 8004030:	f7fc fcf4 	bl	8000a1c <HAL_TIM_PeriodElapsedCallback>
#endif /* USE_HAL_TIM_REGISTER_CALLBACKS */
    }
  }
  /* TIM Break input event */
  if ((itflag & (TIM_FLAG_BREAK)) == (TIM_FLAG_BREAK))
 8004034:	68bb      	ldr	r3, [r7, #8]
 8004036:	f003 0380 	and.w	r3, r3, #128	@ 0x80
 800403a:	2b00      	cmp	r3, #0
 800403c:	d00c      	beq.n	8004058 <HAL_TIM_IRQHandler+0x190>
  {
    if ((itsource & (TIM_IT_BREAK)) == (TIM_IT_BREAK))
 800403e:	68fb      	ldr	r3, [r7, #12]
 8004040:	f003 0380 	and.w	r3, r3, #128	@ 0x80
 8004044:	2b00      	cmp	r3, #0
 8004046:	d007      	beq.n	8004058 <HAL_TIM_IRQHandler+0x190>
    {
      __HAL_TIM_CLEAR_FLAG(htim, TIM_FLAG_BREAK);
 8004048:	687b      	ldr	r3, [r7, #4]
 800404a:	681b      	ldr	r3, [r3, #0]
 800404c:	f06f 0280 	mvn.w	r2, #128	@ 0x80
 8004050:	611a      	str	r2, [r3, #16]
#if (USE_HAL_TIM_REGISTER_CALLBACKS == 1)
      htim->BreakCallback(htim);
#else
      HAL_TIMEx_BreakCallback(htim);
 8004052:	6878      	ldr	r0, [r7, #4]
 8004054:	f000 fa6f 	bl	8004536 <HAL_TIMEx_BreakCallback>
#endif /* USE_HAL_TIM_REGISTER_CALLBACKS */
    }
  }
  /* TIM Trigger detection event */
  if ((itflag & (TIM_FLAG_TRIGGER)) == (TIM_FLAG_TRIGGER))
 8004058:	68bb      	ldr	r3, [r7, #8]
 800405a:	f003 0340 	and.w	r3, r3, #64	@ 0x40
 800405e:	2b00      	cmp	r3, #0
 8004060:	d00c      	beq.n	800407c <HAL_TIM_IRQHandler+0x1b4>
  {
    if ((itsource & (TIM_IT_TRIGGER)) == (TIM_IT_TRIGGER))
 8004062:	68fb      	ldr	r3, [r7, #12]
 8004064:	f003 0340 	and.w	r3, r3, #64	@ 0x40
 8004068:	2b00      	cmp	r3, #0
 800406a:	d007      	beq.n	800407c <HAL_TIM_IRQHandler+0x1b4>
    {
      __HAL_TIM_CLEAR_FLAG(htim, TIM_FLAG_TRIGGER);
 800406c:	687b      	ldr	r3, [r7, #4]
 800406e:	681b      	ldr	r3, [r3, #0]
 8004070:	f06f 0240 	mvn.w	r2, #64	@ 0x40
 8004074:	611a      	str	r2, [r3, #16]
#if (USE_HAL_TIM_REGISTER_CALLBACKS == 1)
      htim->TriggerCallback(htim);
#else
      HAL_TIM_TriggerCallback(htim);
 8004076:	6878      	ldr	r0, [r7, #4]
 8004078:	f000 f8f8 	bl	800426c <HAL_TIM_TriggerCallback>
#endif /* USE_HAL_TIM_REGISTER_CALLBACKS */
    }
  }
  /* TIM commutation event */
  if ((itflag & (TIM_FLAG_COM)) == (TIM_FLAG_COM))
 800407c:	68bb      	ldr	r3, [r7, #8]
 800407e:	f003 0320 	and.w	r3, r3, #32
 8004082:	2b00      	cmp	r3, #0
 8004084:	d00c      	beq.n	80040a0 <HAL_TIM_IRQHandler+0x1d8>
  {
    if ((itsource & (TIM_IT_COM)) == (TIM_IT_COM))
 8004086:	68fb      	ldr	r3, [r7, #12]
 8004088:	f003 0320 	and.w	r3, r3, #32
 800408c:	2b00      	cmp	r3, #0
 800408e:	d007      	beq.n	80040a0 <HAL_TIM_IRQHandler+0x1d8>
    {
      __HAL_TIM_CLEAR_FLAG(htim, TIM_FLAG_COM);
 8004090:	687b      	ldr	r3, [r7, #4]
 8004092:	681b      	ldr	r3, [r3, #0]
 8004094:	f06f 0220 	mvn.w	r2, #32
 8004098:	611a      	str	r2, [r3, #16]
#if (USE_HAL_TIM_REGISTER_CALLBACKS == 1)
      htim->CommutationCallback(htim);
#else
      HAL_TIMEx_CommutCallback(htim);
 800409a:	6878      	ldr	r0, [r7, #4]
 800409c:	f000 fa42 	bl	8004524 <HAL_TIMEx_CommutCallback>
#endif /* USE_HAL_TIM_REGISTER_CALLBACKS */
    }
  }
}
 80040a0:	bf00      	nop
 80040a2:	3710      	adds	r7, #16
 80040a4:	46bd      	mov	sp, r7
 80040a6:	bd80      	pop	{r7, pc}

080040a8 <HAL_TIM_ConfigClockSource>:
  * @param  sClockSourceConfig pointer to a TIM_ClockConfigTypeDef structure that
  *         contains the clock source information for the TIM peripheral.
  * @retval HAL status
  */
HAL_StatusTypeDef HAL_TIM_ConfigClockSource(TIM_HandleTypeDef *htim, const TIM_ClockConfigTypeDef *sClockSourceConfig)
{
 80040a8:	b580      	push	{r7, lr}
 80040aa:	b084      	sub	sp, #16
 80040ac:	af00      	add	r7, sp, #0
 80040ae:	6078      	str	r0, [r7, #4]
 80040b0:	6039      	str	r1, [r7, #0]
  HAL_StatusTypeDef status = HAL_OK;
 80040b2:	2300      	movs	r3, #0
 80040b4:	73fb      	strb	r3, [r7, #15]
  uint32_t tmpsmcr;

  /* Process Locked */
  __HAL_LOCK(htim);
 80040b6:	687b      	ldr	r3, [r7, #4]
 80040b8:	f893 303c 	ldrb.w	r3, [r3, #60]	@ 0x3c
 80040bc:	2b01      	cmp	r3, #1
 80040be:	d101      	bne.n	80040c4 <HAL_TIM_ConfigClockSource+0x1c>
 80040c0:	2302      	movs	r3, #2
 80040c2:	e0b4      	b.n	800422e <HAL_TIM_ConfigClockSource+0x186>
 80040c4:	687b      	ldr	r3, [r7, #4]
 80040c6:	2201      	movs	r2, #1
 80040c8:	f883 203c 	strb.w	r2, [r3, #60]	@ 0x3c

  htim->State = HAL_TIM_STATE_BUSY;
 80040cc:	687b      	ldr	r3, [r7, #4]
 80040ce:	2202      	movs	r2, #2
 80040d0:	f883 203d 	strb.w	r2, [r3, #61]	@ 0x3d

  /* Check the parameters */
  assert_param(IS_TIM_CLOCKSOURCE(sClockSourceConfig->ClockSource));

  /* Reset the SMS, TS, ECE, ETPS and ETRF bits */
  tmpsmcr = htim->Instance->SMCR;
 80040d4:	687b      	ldr	r3, [r7, #4]
 80040d6:	681b      	ldr	r3, [r3, #0]
 80040d8:	689b      	ldr	r3, [r3, #8]
 80040da:	60bb      	str	r3, [r7, #8]
  tmpsmcr &= ~(TIM_SMCR_SMS | TIM_SMCR_TS);
 80040dc:	68bb      	ldr	r3, [r7, #8]
 80040de:	f023 0377 	bic.w	r3, r3, #119	@ 0x77
 80040e2:	60bb      	str	r3, [r7, #8]
  tmpsmcr &= ~(TIM_SMCR_ETF | TIM_SMCR_ETPS | TIM_SMCR_ECE | TIM_SMCR_ETP);
 80040e4:	68bb      	ldr	r3, [r7, #8]
 80040e6:	f423 437f 	bic.w	r3, r3, #65280	@ 0xff00
 80040ea:	60bb      	str	r3, [r7, #8]
  htim->Instance->SMCR = tmpsmcr;
 80040ec:	687b      	ldr	r3, [r7, #4]
 80040ee:	681b      	ldr	r3, [r3, #0]
 80040f0:	68ba      	ldr	r2, [r7, #8]
 80040f2:	609a      	str	r2, [r3, #8]

  switch (sClockSourceConfig->ClockSource)
 80040f4:	683b      	ldr	r3, [r7, #0]
 80040f6:	681b      	ldr	r3, [r3, #0]
 80040f8:	f5b3 5f00 	cmp.w	r3, #8192	@ 0x2000
 80040fc:	d03e      	beq.n	800417c <HAL_TIM_ConfigClockSource+0xd4>
 80040fe:	f5b3 5f00 	cmp.w	r3, #8192	@ 0x2000
 8004102:	f200 8087 	bhi.w	8004214 <HAL_TIM_ConfigClockSource+0x16c>
 8004106:	f5b3 5f80 	cmp.w	r3, #4096	@ 0x1000
 800410a:	f000 8086 	beq.w	800421a <HAL_TIM_ConfigClockSource+0x172>
 800410e:	f5b3 5f80 	cmp.w	r3, #4096	@ 0x1000
 8004112:	d87f      	bhi.n	8004214 <HAL_TIM_ConfigClockSource+0x16c>
 8004114:	2b70      	cmp	r3, #112	@ 0x70
 8004116:	d01a      	beq.n	800414e <HAL_TIM_ConfigClockSource+0xa6>
 8004118:	2b70      	cmp	r3, #112	@ 0x70
 800411a:	d87b      	bhi.n	8004214 <HAL_TIM_ConfigClockSource+0x16c>
 800411c:	2b60      	cmp	r3, #96	@ 0x60
 800411e:	d050      	beq.n	80041c2 <HAL_TIM_ConfigClockSource+0x11a>
 8004120:	2b60      	cmp	r3, #96	@ 0x60
 8004122:	d877      	bhi.n	8004214 <HAL_TIM_ConfigClockSource+0x16c>
 8004124:	2b50      	cmp	r3, #80	@ 0x50
 8004126:	d03c      	beq.n	80041a2 <HAL_TIM_ConfigClockSource+0xfa>
 8004128:	2b50      	cmp	r3, #80	@ 0x50
 800412a:	d873      	bhi.n	8004214 <HAL_TIM_ConfigClockSource+0x16c>
 800412c:	2b40      	cmp	r3, #64	@ 0x40
 800412e:	d058      	beq.n	80041e2 <HAL_TIM_ConfigClockSource+0x13a>
 8004130:	2b40      	cmp	r3, #64	@ 0x40
 8004132:	d86f      	bhi.n	8004214 <HAL_TIM_ConfigClockSource+0x16c>
 8004134:	2b30      	cmp	r3, #48	@ 0x30
 8004136:	d064      	beq.n	8004202 <HAL_TIM_ConfigClockSource+0x15a>
 8004138:	2b30      	cmp	r3, #48	@ 0x30
 800413a:	d86b      	bhi.n	8004214 <HAL_TIM_ConfigClockSource+0x16c>
 800413c:	2b20      	cmp	r3, #32
 800413e:	d060      	beq.n	8004202 <HAL_TIM_ConfigClockSource+0x15a>
 8004140:	2b20      	cmp	r3, #32
 8004142:	d867      	bhi.n	8004214 <HAL_TIM_ConfigClockSource+0x16c>
 8004144:	2b00      	cmp	r3, #0
 8004146:	d05c      	beq.n	8004202 <HAL_TIM_ConfigClockSource+0x15a>
 8004148:	2b10      	cmp	r3, #16
 800414a:	d05a      	beq.n	8004202 <HAL_TIM_ConfigClockSource+0x15a>
 800414c:	e062      	b.n	8004214 <HAL_TIM_ConfigClockSource+0x16c>
      assert_param(IS_TIM_CLOCKPRESCALER(sClockSourceConfig->ClockPrescaler));
      assert_param(IS_TIM_CLOCKPOLARITY(sClockSourceConfig->ClockPolarity));
      assert_param(IS_TIM_CLOCKFILTER(sClockSourceConfig->ClockFilter));

      /* Configure the ETR Clock source */
      TIM_ETR_SetConfig(htim->Instance,
 800414e:	687b      	ldr	r3, [r7, #4]
 8004150:	6818      	ldr	r0, [r3, #0]
                        sClockSourceConfig->ClockPrescaler,
 8004152:	683b      	ldr	r3, [r7, #0]
 8004154:	6899      	ldr	r1, [r3, #8]
                        sClockSourceConfig->ClockPolarity,
 8004156:	683b      	ldr	r3, [r7, #0]
 8004158:	685a      	ldr	r2, [r3, #4]
                        sClockSourceConfig->ClockFilter);
 800415a:	683b      	ldr	r3, [r7, #0]
 800415c:	68db      	ldr	r3, [r3, #12]
      TIM_ETR_SetConfig(htim->Instance,
 800415e:	f000 f96a 	bl	8004436 <TIM_ETR_SetConfig>

      /* Select the External clock mode1 and the ETRF trigger */
      tmpsmcr = htim->Instance->SMCR;
 8004162:	687b      	ldr	r3, [r7, #4]
 8004164:	681b      	ldr	r3, [r3, #0]
 8004166:	689b      	ldr	r3, [r3, #8]
 8004168:	60bb      	str	r3, [r7, #8]
      tmpsmcr |= (TIM_SLAVEMODE_EXTERNAL1 | TIM_CLOCKSOURCE_ETRMODE1);
 800416a:	68bb      	ldr	r3, [r7, #8]
 800416c:	f043 0377 	orr.w	r3, r3, #119	@ 0x77
 8004170:	60bb      	str	r3, [r7, #8]
      /* Write to TIMx SMCR */
      htim->Instance->SMCR = tmpsmcr;
 8004172:	687b      	ldr	r3, [r7, #4]
 8004174:	681b      	ldr	r3, [r3, #0]
 8004176:	68ba      	ldr	r2, [r7, #8]
 8004178:	609a      	str	r2, [r3, #8]
      break;
 800417a:	e04f      	b.n	800421c <HAL_TIM_ConfigClockSource+0x174>
      assert_param(IS_TIM_CLOCKPRESCALER(sClockSourceConfig->ClockPrescaler));
      assert_param(IS_TIM_CLOCKPOLARITY(sClockSourceConfig->ClockPolarity));
      assert_param(IS_TIM_CLOCKFILTER(sClockSourceConfig->ClockFilter));

      /* Configure the ETR Clock source */
      TIM_ETR_SetConfig(htim->Instance,
 800417c:	687b      	ldr	r3, [r7, #4]
 800417e:	6818      	ldr	r0, [r3, #0]
                        sClockSourceConfig->ClockPrescaler,
 8004180:	683b      	ldr	r3, [r7, #0]
 8004182:	6899      	ldr	r1, [r3, #8]
                        sClockSourceConfig->ClockPolarity,
 8004184:	683b      	ldr	r3, [r7, #0]
 8004186:	685a      	ldr	r2, [r3, #4]
                        sClockSourceConfig->ClockFilter);
 8004188:	683b      	ldr	r3, [r7, #0]
 800418a:	68db      	ldr	r3, [r3, #12]
      TIM_ETR_SetConfig(htim->Instance,
 800418c:	f000 f953 	bl	8004436 <TIM_ETR_SetConfig>
      /* Enable the External clock mode2 */
      htim->Instance->SMCR |= TIM_SMCR_ECE;
 8004190:	687b      	ldr	r3, [r7, #4]
 8004192:	681b      	ldr	r3, [r3, #0]
 8004194:	689a      	ldr	r2, [r3, #8]
 8004196:	687b      	ldr	r3, [r7, #4]
 8004198:	681b      	ldr	r3, [r3, #0]
 800419a:	f442 4280 	orr.w	r2, r2, #16384	@ 0x4000
 800419e:	609a      	str	r2, [r3, #8]
      break;
 80041a0:	e03c      	b.n	800421c <HAL_TIM_ConfigClockSource+0x174>

      /* Check TI1 input conditioning related parameters */
      assert_param(IS_TIM_CLOCKPOLARITY(sClockSourceConfig->ClockPolarity));
      assert_param(IS_TIM_CLOCKFILTER(sClockSourceConfig->ClockFilter));

      TIM_TI1_ConfigInputStage(htim->Instance,
 80041a2:	687b      	ldr	r3, [r7, #4]
 80041a4:	6818      	ldr	r0, [r3, #0]
                               sClockSourceConfig->ClockPolarity,
 80041a6:	683b      	ldr	r3, [r7, #0]
 80041a8:	6859      	ldr	r1, [r3, #4]
                               sClockSourceConfig->ClockFilter);
 80041aa:	683b      	ldr	r3, [r7, #0]
 80041ac:	68db      	ldr	r3, [r3, #12]
      TIM_TI1_ConfigInputStage(htim->Instance,
 80041ae:	461a      	mov	r2, r3
 80041b0:	f000 f8ca 	bl	8004348 <TIM_TI1_ConfigInputStage>
      TIM_ITRx_SetConfig(htim->Instance, TIM_CLOCKSOURCE_TI1);
 80041b4:	687b      	ldr	r3, [r7, #4]
 80041b6:	681b      	ldr	r3, [r3, #0]
 80041b8:	2150      	movs	r1, #80	@ 0x50
 80041ba:	4618      	mov	r0, r3
 80041bc:	f000 f921 	bl	8004402 <TIM_ITRx_SetConfig>
      break;
 80041c0:	e02c      	b.n	800421c <HAL_TIM_ConfigClockSource+0x174>

      /* Check TI2 input conditioning related parameters */
      assert_param(IS_TIM_CLOCKPOLARITY(sClockSourceConfig->ClockPolarity));
      assert_param(IS_TIM_CLOCKFILTER(sClockSourceConfig->ClockFilter));

      TIM_TI2_ConfigInputStage(htim->Instance,
 80041c2:	687b      	ldr	r3, [r7, #4]
 80041c4:	6818      	ldr	r0, [r3, #0]
                               sClockSourceConfig->ClockPolarity,
 80041c6:	683b      	ldr	r3, [r7, #0]
 80041c8:	6859      	ldr	r1, [r3, #4]
                               sClockSourceConfig->ClockFilter);
 80041ca:	683b      	ldr	r3, [r7, #0]
 80041cc:	68db      	ldr	r3, [r3, #12]
      TIM_TI2_ConfigInputStage(htim->Instance,
 80041ce:	461a      	mov	r2, r3
 80041d0:	f000 f8e8 	bl	80043a4 <TIM_TI2_ConfigInputStage>
      TIM_ITRx_SetConfig(htim->Instance, TIM_CLOCKSOURCE_TI2);
 80041d4:	687b      	ldr	r3, [r7, #4]
 80041d6:	681b      	ldr	r3, [r3, #0]
 80041d8:	2160      	movs	r1, #96	@ 0x60
 80041da:	4618      	mov	r0, r3
 80041dc:	f000 f911 	bl	8004402 <TIM_ITRx_SetConfig>
      break;
 80041e0:	e01c      	b.n	800421c <HAL_TIM_ConfigClockSource+0x174>

      /* Check TI1 input conditioning related parameters */
      assert_param(IS_TIM_CLOCKPOLARITY(sClockSourceConfig->ClockPolarity));
      assert_param(IS_TIM_CLOCKFILTER(sClockSourceConfig->ClockFilter));

      TIM_TI1_ConfigInputStage(htim->Instance,
 80041e2:	687b      	ldr	r3, [r7, #4]
 80041e4:	6818      	ldr	r0, [r3, #0]
                               sClockSourceConfig->ClockPolarity,
 80041e6:	683b      	ldr	r3, [r7, #0]
 80041e8:	6859      	ldr	r1, [r3, #4]
                               sClockSourceConfig->ClockFilter);
 80041ea:	683b      	ldr	r3, [r7, #0]
 80041ec:	68db      	ldr	r3, [r3, #12]
      TIM_TI1_ConfigInputStage(htim->Instance,
 80041ee:	461a      	mov	r2, r3
 80041f0:	f000 f8aa 	bl	8004348 <TIM_TI1_ConfigInputStage>
      TIM_ITRx_SetConfig(htim->Instance, TIM_CLOCKSOURCE_TI1ED);
 80041f4:	687b      	ldr	r3, [r7, #4]
 80041f6:	681b      	ldr	r3, [r3, #0]
 80041f8:	2140      	movs	r1, #64	@ 0x40
 80041fa:	4618      	mov	r0, r3
 80041fc:	f000 f901 	bl	8004402 <TIM_ITRx_SetConfig>
      break;
 8004200:	e00c      	b.n	800421c <HAL_TIM_ConfigClockSource+0x174>
    case TIM_CLOCKSOURCE_ITR3:
    {
      /* Check whether or not the timer instance supports internal trigger input */
      assert_param(IS_TIM_CLOCKSOURCE_ITRX_INSTANCE(htim->Instance));

      TIM_ITRx_SetConfig(htim->Instance, sClockSourceConfig->ClockSource);
 8004202:	687b      	ldr	r3, [r7, #4]
 8004204:	681a      	ldr	r2, [r3, #0]
 8004206:	683b      	ldr	r3, [r7, #0]
 8004208:	681b      	ldr	r3, [r3, #0]
 800420a:	4619      	mov	r1, r3
 800420c:	4610      	mov	r0, r2
 800420e:	f000 f8f8 	bl	8004402 <TIM_ITRx_SetConfig>
      break;
 8004212:	e003      	b.n	800421c <HAL_TIM_ConfigClockSource+0x174>
    }

    default:
      status = HAL_ERROR;
 8004214:	2301      	movs	r3, #1
 8004216:	73fb      	strb	r3, [r7, #15]
      break;
 8004218:	e000      	b.n	800421c <HAL_TIM_ConfigClockSource+0x174>
      break;
 800421a:	bf00      	nop
  }
  htim->State = HAL_TIM_STATE_READY;
 800421c:	687b      	ldr	r3, [r7, #4]
 800421e:	2201      	movs	r2, #1
 8004220:	f883 203d 	strb.w	r2, [r3, #61]	@ 0x3d

  __HAL_UNLOCK(htim);
 8004224:	687b      	ldr	r3, [r7, #4]
 8004226:	2200      	movs	r2, #0
 8004228:	f883 203c 	strb.w	r2, [r3, #60]	@ 0x3c

  return status;
 800422c:	7bfb      	ldrb	r3, [r7, #15]
}
 800422e:	4618      	mov	r0, r3
 8004230:	3710      	adds	r7, #16
 8004232:	46bd      	mov	sp, r7
 8004234:	bd80      	pop	{r7, pc}

08004236 <HAL_TIM_OC_DelayElapsedCallback>:
  * @brief  Output Compare callback in non-blocking mode
  * @param  htim TIM OC handle
  * @retval None
  */
__weak void HAL_TIM_OC_DelayElapsedCallback(TIM_HandleTypeDef *htim)
{
 8004236:	b480      	push	{r7}
 8004238:	b083      	sub	sp, #12
 800423a:	af00      	add	r7, sp, #0
 800423c:	6078      	str	r0, [r7, #4]
  UNUSED(htim);

  /* NOTE : This function should not be modified, when the callback is needed,
            the HAL_TIM_OC_DelayElapsedCallback could be implemented in the user file
   */
}
 800423e:	bf00      	nop
 8004240:	370c      	adds	r7, #12
 8004242:	46bd      	mov	sp, r7
 8004244:	bc80      	pop	{r7}
 8004246:	4770      	bx	lr

08004248 <HAL_TIM_IC_CaptureCallback>:
  * @brief  Input Capture callback in non-blocking mode
  * @param  htim TIM IC handle
  * @retval None
  */
__weak void HAL_TIM_IC_CaptureCallback(TIM_HandleTypeDef *htim)
{
 8004248:	b480      	push	{r7}
 800424a:	b083      	sub	sp, #12
 800424c:	af00      	add	r7, sp, #0
 800424e:	6078      	str	r0, [r7, #4]
  UNUSED(htim);

  /* NOTE : This function should not be modified, when the callback is needed,
            the HAL_TIM_IC_CaptureCallback could be implemented in the user file
   */
}
 8004250:	bf00      	nop
 8004252:	370c      	adds	r7, #12
 8004254:	46bd      	mov	sp, r7
 8004256:	bc80      	pop	{r7}
 8004258:	4770      	bx	lr

0800425a <HAL_TIM_PWM_PulseFinishedCallback>:
  * @brief  PWM Pulse finished callback in non-blocking mode
  * @param  htim TIM handle
  * @retval None
  */
__weak void HAL_TIM_PWM_PulseFinishedCallback(TIM_HandleTypeDef *htim)
{
 800425a:	b480      	push	{r7}
 800425c:	b083      	sub	sp, #12
 800425e:	af00      	add	r7, sp, #0
 8004260:	6078      	str	r0, [r7, #4]
  UNUSED(htim);

  /* NOTE : This function should not be modified, when the callback is needed,
            the HAL_TIM_PWM_PulseFinishedCallback could be implemented in the user file
   */
}
 8004262:	bf00      	nop
 8004264:	370c      	adds	r7, #12
 8004266:	46bd      	mov	sp, r7
 8004268:	bc80      	pop	{r7}
 800426a:	4770      	bx	lr

0800426c <HAL_TIM_TriggerCallback>:
  * @brief  Hall Trigger detection callback in non-blocking mode
  * @param  htim TIM handle
  * @retval None
  */
__weak void HAL_TIM_TriggerCallback(TIM_HandleTypeDef *htim)
{
 800426c:	b480      	push	{r7}
 800426e:	b083      	sub	sp, #12
 8004270:	af00      	add	r7, sp, #0
 8004272:	6078      	str	r0, [r7, #4]
  UNUSED(htim);

  /* NOTE : This function should not be modified, when the callback is needed,
            the HAL_TIM_TriggerCallback could be implemented in the user file
   */
}
 8004274:	bf00      	nop
 8004276:	370c      	adds	r7, #12
 8004278:	46bd      	mov	sp, r7
 800427a:	bc80      	pop	{r7}
 800427c:	4770      	bx	lr
	...

08004280 <TIM_Base_SetConfig>:
  * @param  TIMx TIM peripheral
  * @param  Structure TIM Base configuration structure
  * @retval None
  */
void TIM_Base_SetConfig(TIM_TypeDef *TIMx, const TIM_Base_InitTypeDef *Structure)
{
 8004280:	b480      	push	{r7}
 8004282:	b085      	sub	sp, #20
 8004284:	af00      	add	r7, sp, #0
 8004286:	6078      	str	r0, [r7, #4]
 8004288:	6039      	str	r1, [r7, #0]
  uint32_t tmpcr1;
  tmpcr1 = TIMx->CR1;
 800428a:	687b      	ldr	r3, [r7, #4]
 800428c:	681b      	ldr	r3, [r3, #0]
 800428e:	60fb      	str	r3, [r7, #12]

  /* Set TIM Time Base Unit parameters ---------------------------------------*/
  if (IS_TIM_COUNTER_MODE_SELECT_INSTANCE(TIMx))
 8004290:	687b      	ldr	r3, [r7, #4]
 8004292:	4a2b      	ldr	r2, [pc, #172]	@ (8004340 <TIM_Base_SetConfig+0xc0>)
 8004294:	4293      	cmp	r3, r2
 8004296:	d007      	beq.n	80042a8 <TIM_Base_SetConfig+0x28>
 8004298:	687b      	ldr	r3, [r7, #4]
 800429a:	f1b3 4f80 	cmp.w	r3, #1073741824	@ 0x40000000
 800429e:	d003      	beq.n	80042a8 <TIM_Base_SetConfig+0x28>
 80042a0:	687b      	ldr	r3, [r7, #4]
 80042a2:	4a28      	ldr	r2, [pc, #160]	@ (8004344 <TIM_Base_SetConfig+0xc4>)
 80042a4:	4293      	cmp	r3, r2
 80042a6:	d108      	bne.n	80042ba <TIM_Base_SetConfig+0x3a>
  {
    /* Select the Counter Mode */
    tmpcr1 &= ~(TIM_CR1_DIR | TIM_CR1_CMS);
 80042a8:	68fb      	ldr	r3, [r7, #12]
 80042aa:	f023 0370 	bic.w	r3, r3, #112	@ 0x70
 80042ae:	60fb      	str	r3, [r7, #12]
    tmpcr1 |= Structure->CounterMode;
 80042b0:	683b      	ldr	r3, [r7, #0]
 80042b2:	685b      	ldr	r3, [r3, #4]
 80042b4:	68fa      	ldr	r2, [r7, #12]
 80042b6:	4313      	orrs	r3, r2
 80042b8:	60fb      	str	r3, [r7, #12]
  }

  if (IS_TIM_CLOCK_DIVISION_INSTANCE(TIMx))
 80042ba:	687b      	ldr	r3, [r7, #4]
 80042bc:	4a20      	ldr	r2, [pc, #128]	@ (8004340 <TIM_Base_SetConfig+0xc0>)
 80042be:	4293      	cmp	r3, r2
 80042c0:	d007      	beq.n	80042d2 <TIM_Base_SetConfig+0x52>
 80042c2:	687b      	ldr	r3, [r7, #4]
 80042c4:	f1b3 4f80 	cmp.w	r3, #1073741824	@ 0x40000000
 80042c8:	d003      	beq.n	80042d2 <TIM_Base_SetConfig+0x52>
 80042ca:	687b      	ldr	r3, [r7, #4]
 80042cc:	4a1d      	ldr	r2, [pc, #116]	@ (8004344 <TIM_Base_SetConfig+0xc4>)
 80042ce:	4293      	cmp	r3, r2
 80042d0:	d108      	bne.n	80042e4 <TIM_Base_SetConfig+0x64>
  {
    /* Set the clock division */
    tmpcr1 &= ~TIM_CR1_CKD;
 80042d2:	68fb      	ldr	r3, [r7, #12]
 80042d4:	f423 7340 	bic.w	r3, r3, #768	@ 0x300
 80042d8:	60fb      	str	r3, [r7, #12]
    tmpcr1 |= (uint32_t)Structure->ClockDivision;
 80042da:	683b      	ldr	r3, [r7, #0]
 80042dc:	68db      	ldr	r3, [r3, #12]
 80042de:	68fa      	ldr	r2, [r7, #12]
 80042e0:	4313      	orrs	r3, r2
 80042e2:	60fb      	str	r3, [r7, #12]
  }

  /* Set the auto-reload preload */
  MODIFY_REG(tmpcr1, TIM_CR1_ARPE, Structure->AutoReloadPreload);
 80042e4:	68fb      	ldr	r3, [r7, #12]
 80042e6:	f023 0280 	bic.w	r2, r3, #128	@ 0x80
 80042ea:	683b      	ldr	r3, [r7, #0]
 80042ec:	695b      	ldr	r3, [r3, #20]
 80042ee:	4313      	orrs	r3, r2
 80042f0:	60fb      	str	r3, [r7, #12]

  TIMx->CR1 = tmpcr1;
 80042f2:	687b      	ldr	r3, [r7, #4]
 80042f4:	68fa      	ldr	r2, [r7, #12]
 80042f6:	601a      	str	r2, [r3, #0]

  /* Set the Autoreload value */
  TIMx->ARR = (uint32_t)Structure->Period ;
 80042f8:	683b      	ldr	r3, [r7, #0]
 80042fa:	689a      	ldr	r2, [r3, #8]
 80042fc:	687b      	ldr	r3, [r7, #4]
 80042fe:	62da      	str	r2, [r3, #44]	@ 0x2c

  /* Set the Prescaler value */
  TIMx->PSC = Structure->Prescaler;
 8004300:	683b      	ldr	r3, [r7, #0]
 8004302:	681a      	ldr	r2, [r3, #0]
 8004304:	687b      	ldr	r3, [r7, #4]
 8004306:	629a      	str	r2, [r3, #40]	@ 0x28

  if (IS_TIM_REPETITION_COUNTER_INSTANCE(TIMx))
 8004308:	687b      	ldr	r3, [r7, #4]
 800430a:	4a0d      	ldr	r2, [pc, #52]	@ (8004340 <TIM_Base_SetConfig+0xc0>)
 800430c:	4293      	cmp	r3, r2
 800430e:	d103      	bne.n	8004318 <TIM_Base_SetConfig+0x98>
  {
    /* Set the Repetition Counter value */
    TIMx->RCR = Structure->RepetitionCounter;
 8004310:	683b      	ldr	r3, [r7, #0]
 8004312:	691a      	ldr	r2, [r3, #16]
 8004314:	687b      	ldr	r3, [r7, #4]
 8004316:	631a      	str	r2, [r3, #48]	@ 0x30
  }

  /* Generate an update event to reload the Prescaler
     and the repetition counter (only for advanced timer) value immediately */
  TIMx->EGR = TIM_EGR_UG;
 8004318:	687b      	ldr	r3, [r7, #4]
 800431a:	2201      	movs	r2, #1
 800431c:	615a      	str	r2, [r3, #20]

  /* Check if the update flag is set after the Update Generation, if so clear the UIF flag */
  if (HAL_IS_BIT_SET(TIMx->SR, TIM_FLAG_UPDATE))
 800431e:	687b      	ldr	r3, [r7, #4]
 8004320:	691b      	ldr	r3, [r3, #16]
 8004322:	f003 0301 	and.w	r3, r3, #1
 8004326:	2b00      	cmp	r3, #0
 8004328:	d005      	beq.n	8004336 <TIM_Base_SetConfig+0xb6>
  {
    /* Clear the update flag */
    CLEAR_BIT(TIMx->SR, TIM_FLAG_UPDATE);
 800432a:	687b      	ldr	r3, [r7, #4]
 800432c:	691b      	ldr	r3, [r3, #16]
 800432e:	f023 0201 	bic.w	r2, r3, #1
 8004332:	687b      	ldr	r3, [r7, #4]
 8004334:	611a      	str	r2, [r3, #16]
  }
}
 8004336:	bf00      	nop
 8004338:	3714      	adds	r7, #20
 800433a:	46bd      	mov	sp, r7
 800433c:	bc80      	pop	{r7}
 800433e:	4770      	bx	lr
 8004340:	40012c00 	.word	0x40012c00
 8004344:	40000400 	.word	0x40000400

08004348 <TIM_TI1_ConfigInputStage>:
  * @param  TIM_ICFilter Specifies the Input Capture Filter.
  *          This parameter must be a value between 0x00 and 0x0F.
  * @retval None
  */
static void TIM_TI1_ConfigInputStage(TIM_TypeDef *TIMx, uint32_t TIM_ICPolarity, uint32_t TIM_ICFilter)
{
 8004348:	b480      	push	{r7}
 800434a:	b087      	sub	sp, #28
 800434c:	af00      	add	r7, sp, #0
 800434e:	60f8      	str	r0, [r7, #12]
 8004350:	60b9      	str	r1, [r7, #8]
 8004352:	607a      	str	r2, [r7, #4]
  uint32_t tmpccmr1;
  uint32_t tmpccer;

  /* Disable the Channel 1: Reset the CC1E Bit */
  tmpccer = TIMx->CCER;
 8004354:	68fb      	ldr	r3, [r7, #12]
 8004356:	6a1b      	ldr	r3, [r3, #32]
 8004358:	617b      	str	r3, [r7, #20]
  TIMx->CCER &= ~TIM_CCER_CC1E;
 800435a:	68fb      	ldr	r3, [r7, #12]
 800435c:	6a1b      	ldr	r3, [r3, #32]
 800435e:	f023 0201 	bic.w	r2, r3, #1
 8004362:	68fb      	ldr	r3, [r7, #12]
 8004364:	621a      	str	r2, [r3, #32]
  tmpccmr1 = TIMx->CCMR1;
 8004366:	68fb      	ldr	r3, [r7, #12]
 8004368:	699b      	ldr	r3, [r3, #24]
 800436a:	613b      	str	r3, [r7, #16]

  /* Set the filter */
  tmpccmr1 &= ~TIM_CCMR1_IC1F;
 800436c:	693b      	ldr	r3, [r7, #16]
 800436e:	f023 03f0 	bic.w	r3, r3, #240	@ 0xf0
 8004372:	613b      	str	r3, [r7, #16]
  tmpccmr1 |= (TIM_ICFilter << 4U);
 8004374:	687b      	ldr	r3, [r7, #4]
 8004376:	011b      	lsls	r3, r3, #4
 8004378:	693a      	ldr	r2, [r7, #16]
 800437a:	4313      	orrs	r3, r2
 800437c:	613b      	str	r3, [r7, #16]

  /* Select the Polarity and set the CC1E Bit */
  tmpccer &= ~(TIM_CCER_CC1P | TIM_CCER_CC1NP);
 800437e:	697b      	ldr	r3, [r7, #20]
 8004380:	f023 030a 	bic.w	r3, r3, #10
 8004384:	617b      	str	r3, [r7, #20]
  tmpccer |= TIM_ICPolarity;
 8004386:	697a      	ldr	r2, [r7, #20]
 8004388:	68bb      	ldr	r3, [r7, #8]
 800438a:	4313      	orrs	r3, r2
 800438c:	617b      	str	r3, [r7, #20]

  /* Write to TIMx CCMR1 and CCER registers */
  TIMx->CCMR1 = tmpccmr1;
 800438e:	68fb      	ldr	r3, [r7, #12]
 8004390:	693a      	ldr	r2, [r7, #16]
 8004392:	619a      	str	r2, [r3, #24]
  TIMx->CCER = tmpccer;
 8004394:	68fb      	ldr	r3, [r7, #12]
 8004396:	697a      	ldr	r2, [r7, #20]
 8004398:	621a      	str	r2, [r3, #32]
}
 800439a:	bf00      	nop
 800439c:	371c      	adds	r7, #28
 800439e:	46bd      	mov	sp, r7
 80043a0:	bc80      	pop	{r7}
 80043a2:	4770      	bx	lr

080043a4 <TIM_TI2_ConfigInputStage>:
  * @param  TIM_ICFilter Specifies the Input Capture Filter.
  *          This parameter must be a value between 0x00 and 0x0F.
  * @retval None
  */
static void TIM_TI2_ConfigInputStage(TIM_TypeDef *TIMx, uint32_t TIM_ICPolarity, uint32_t TIM_ICFilter)
{
 80043a4:	b480      	push	{r7}
 80043a6:	b087      	sub	sp, #28
 80043a8:	af00      	add	r7, sp, #0
 80043aa:	60f8      	str	r0, [r7, #12]
 80043ac:	60b9      	str	r1, [r7, #8]
 80043ae:	607a      	str	r2, [r7, #4]
  uint32_t tmpccmr1;
  uint32_t tmpccer;

  /* Disable the Channel 2: Reset the CC2E Bit */
  tmpccer = TIMx->CCER;
 80043b0:	68fb      	ldr	r3, [r7, #12]
 80043b2:	6a1b      	ldr	r3, [r3, #32]
 80043b4:	617b      	str	r3, [r7, #20]
  TIMx->CCER &= ~TIM_CCER_CC2E;
 80043b6:	68fb      	ldr	r3, [r7, #12]
 80043b8:	6a1b      	ldr	r3, [r3, #32]
 80043ba:	f023 0210 	bic.w	r2, r3, #16
 80043be:	68fb      	ldr	r3, [r7, #12]
 80043c0:	621a      	str	r2, [r3, #32]
  tmpccmr1 = TIMx->CCMR1;
 80043c2:	68fb      	ldr	r3, [r7, #12]
 80043c4:	699b      	ldr	r3, [r3, #24]
 80043c6:	613b      	str	r3, [r7, #16]

  /* Set the filter */
  tmpccmr1 &= ~TIM_CCMR1_IC2F;
 80043c8:	693b      	ldr	r3, [r7, #16]
 80043ca:	f423 4370 	bic.w	r3, r3, #61440	@ 0xf000
 80043ce:	613b      	str	r3, [r7, #16]
  tmpccmr1 |= (TIM_ICFilter << 12U);
 80043d0:	687b      	ldr	r3, [r7, #4]
 80043d2:	031b      	lsls	r3, r3, #12
 80043d4:	693a      	ldr	r2, [r7, #16]
 80043d6:	4313      	orrs	r3, r2
 80043d8:	613b      	str	r3, [r7, #16]

  /* Select the Polarity and set the CC2E Bit */
  tmpccer &= ~(TIM_CCER_CC2P | TIM_CCER_CC2NP);
 80043da:	697b      	ldr	r3, [r7, #20]
 80043dc:	f023 03a0 	bic.w	r3, r3, #160	@ 0xa0
 80043e0:	617b      	str	r3, [r7, #20]
  tmpccer |= (TIM_ICPolarity << 4U);
 80043e2:	68bb      	ldr	r3, [r7, #8]
 80043e4:	011b      	lsls	r3, r3, #4
 80043e6:	697a      	ldr	r2, [r7, #20]
 80043e8:	4313      	orrs	r3, r2
 80043ea:	617b      	str	r3, [r7, #20]

  /* Write to TIMx CCMR1 and CCER registers */
  TIMx->CCMR1 = tmpccmr1 ;
 80043ec:	68fb      	ldr	r3, [r7, #12]
 80043ee:	693a      	ldr	r2, [r7, #16]
 80043f0:	619a      	str	r2, [r3, #24]
  TIMx->CCER = tmpccer;
 80043f2:	68fb      	ldr	r3, [r7, #12]
 80043f4:	697a      	ldr	r2, [r7, #20]
 80043f6:	621a      	str	r2, [r3, #32]
}
 80043f8:	bf00      	nop
 80043fa:	371c      	adds	r7, #28
 80043fc:	46bd      	mov	sp, r7
 80043fe:	bc80      	pop	{r7}
 8004400:	4770      	bx	lr

08004402 <TIM_ITRx_SetConfig>:
  *            @arg TIM_TS_TI2FP2: Filtered Timer Input 2
  *            @arg TIM_TS_ETRF: External Trigger input
  * @retval None
  */
static void TIM_ITRx_SetConfig(TIM_TypeDef *TIMx, uint32_t InputTriggerSource)
{
 8004402:	b480      	push	{r7}
 8004404:	b085      	sub	sp, #20
 8004406:	af00      	add	r7, sp, #0
 8004408:	6078      	str	r0, [r7, #4]
 800440a:	6039      	str	r1, [r7, #0]
  uint32_t tmpsmcr;

  /* Get the TIMx SMCR register value */
  tmpsmcr = TIMx->SMCR;
 800440c:	687b      	ldr	r3, [r7, #4]
 800440e:	689b      	ldr	r3, [r3, #8]
 8004410:	60fb      	str	r3, [r7, #12]
  /* Reset the TS Bits */
  tmpsmcr &= ~TIM_SMCR_TS;
 8004412:	68fb      	ldr	r3, [r7, #12]
 8004414:	f023 0370 	bic.w	r3, r3, #112	@ 0x70
 8004418:	60fb      	str	r3, [r7, #12]
  /* Set the Input Trigger source and the slave mode*/
  tmpsmcr |= (InputTriggerSource | TIM_SLAVEMODE_EXTERNAL1);
 800441a:	683a      	ldr	r2, [r7, #0]
 800441c:	68fb      	ldr	r3, [r7, #12]
 800441e:	4313      	orrs	r3, r2
 8004420:	f043 0307 	orr.w	r3, r3, #7
 8004424:	60fb      	str	r3, [r7, #12]
  /* Write to TIMx SMCR */
  TIMx->SMCR = tmpsmcr;
 8004426:	687b      	ldr	r3, [r7, #4]
 8004428:	68fa      	ldr	r2, [r7, #12]
 800442a:	609a      	str	r2, [r3, #8]
}
 800442c:	bf00      	nop
 800442e:	3714      	adds	r7, #20
 8004430:	46bd      	mov	sp, r7
 8004432:	bc80      	pop	{r7}
 8004434:	4770      	bx	lr

08004436 <TIM_ETR_SetConfig>:
  *          This parameter must be a value between 0x00 and 0x0F
  * @retval None
  */
void TIM_ETR_SetConfig(TIM_TypeDef *TIMx, uint32_t TIM_ExtTRGPrescaler,
                       uint32_t TIM_ExtTRGPolarity, uint32_t ExtTRGFilter)
{
 8004436:	b480      	push	{r7}
 8004438:	b087      	sub	sp, #28
 800443a:	af00      	add	r7, sp, #0
 800443c:	60f8      	str	r0, [r7, #12]
 800443e:	60b9      	str	r1, [r7, #8]
 8004440:	607a      	str	r2, [r7, #4]
 8004442:	603b      	str	r3, [r7, #0]
  uint32_t tmpsmcr;

  tmpsmcr = TIMx->SMCR;
 8004444:	68fb      	ldr	r3, [r7, #12]
 8004446:	689b      	ldr	r3, [r3, #8]
 8004448:	617b      	str	r3, [r7, #20]

  /* Reset the ETR Bits */
  tmpsmcr &= ~(TIM_SMCR_ETF | TIM_SMCR_ETPS | TIM_SMCR_ECE | TIM_SMCR_ETP);
 800444a:	697b      	ldr	r3, [r7, #20]
 800444c:	f423 437f 	bic.w	r3, r3, #65280	@ 0xff00
 8004450:	617b      	str	r3, [r7, #20]

  /* Set the Prescaler, the Filter value and the Polarity */
  tmpsmcr |= (uint32_t)(TIM_ExtTRGPrescaler | (TIM_ExtTRGPolarity | (ExtTRGFilter << 8U)));
 8004452:	683b      	ldr	r3, [r7, #0]
 8004454:	021a      	lsls	r2, r3, #8
 8004456:	687b      	ldr	r3, [r7, #4]
 8004458:	431a      	orrs	r2, r3
 800445a:	68bb      	ldr	r3, [r7, #8]
 800445c:	4313      	orrs	r3, r2
 800445e:	697a      	ldr	r2, [r7, #20]
 8004460:	4313      	orrs	r3, r2
 8004462:	617b      	str	r3, [r7, #20]

  /* Write to TIMx SMCR */
  TIMx->SMCR = tmpsmcr;
 8004464:	68fb      	ldr	r3, [r7, #12]
 8004466:	697a      	ldr	r2, [r7, #20]
 8004468:	609a      	str	r2, [r3, #8]
}
 800446a:	bf00      	nop
 800446c:	371c      	adds	r7, #28
 800446e:	46bd      	mov	sp, r7
 8004470:	bc80      	pop	{r7}
 8004472:	4770      	bx	lr

08004474 <HAL_TIMEx_MasterConfigSynchronization>:
  *         mode.
  * @retval HAL status
  */
HAL_StatusTypeDef HAL_TIMEx_MasterConfigSynchronization(TIM_HandleTypeDef *htim,
                                                        const TIM_MasterConfigTypeDef *sMasterConfig)
{
 8004474:	b480      	push	{r7}
 8004476:	b085      	sub	sp, #20
 8004478:	af00      	add	r7, sp, #0
 800447a:	6078      	str	r0, [r7, #4]
 800447c:	6039      	str	r1, [r7, #0]
  assert_param(IS_TIM_MASTER_INSTANCE(htim->Instance));
  assert_param(IS_TIM_TRGO_SOURCE(sMasterConfig->MasterOutputTrigger));
  assert_param(IS_TIM_MSM_STATE(sMasterConfig->MasterSlaveMode));

  /* Check input state */
  __HAL_LOCK(htim);
 800447e:	687b      	ldr	r3, [r7, #4]
 8004480:	f893 303c 	ldrb.w	r3, [r3, #60]	@ 0x3c
 8004484:	2b01      	cmp	r3, #1
 8004486:	d101      	bne.n	800448c <HAL_TIMEx_MasterConfigSynchronization+0x18>
 8004488:	2302      	movs	r3, #2
 800448a:	e041      	b.n	8004510 <HAL_TIMEx_MasterConfigSynchronization+0x9c>
 800448c:	687b      	ldr	r3, [r7, #4]
 800448e:	2201      	movs	r2, #1
 8004490:	f883 203c 	strb.w	r2, [r3, #60]	@ 0x3c

  /* Change the handler state */
  htim->State = HAL_TIM_STATE_BUSY;
 8004494:	687b      	ldr	r3, [r7, #4]
 8004496:	2202      	movs	r2, #2
 8004498:	f883 203d 	strb.w	r2, [r3, #61]	@ 0x3d

  /* Get the TIMx CR2 register value */
  tmpcr2 = htim->Instance->CR2;
 800449c:	687b      	ldr	r3, [r7, #4]
 800449e:	681b      	ldr	r3, [r3, #0]
 80044a0:	685b      	ldr	r3, [r3, #4]
 80044a2:	60fb      	str	r3, [r7, #12]

  /* Get the TIMx SMCR register value */
  tmpsmcr = htim->Instance->SMCR;
 80044a4:	687b      	ldr	r3, [r7, #4]
 80044a6:	681b      	ldr	r3, [r3, #0]
 80044a8:	689b      	ldr	r3, [r3, #8]
 80044aa:	60bb      	str	r3, [r7, #8]

  /* Reset the MMS Bits */
  tmpcr2 &= ~TIM_CR2_MMS;
 80044ac:	68fb      	ldr	r3, [r7, #12]
 80044ae:	f023 0370 	bic.w	r3, r3, #112	@ 0x70
 80044b2:	60fb      	str	r3, [r7, #12]
  /* Select the TRGO source */
  tmpcr2 |=  sMasterConfig->MasterOutputTrigger;
 80044b4:	683b      	ldr	r3, [r7, #0]
 80044b6:	681b      	ldr	r3, [r3, #0]
 80044b8:	68fa      	ldr	r2, [r7, #12]
 80044ba:	4313      	orrs	r3, r2
 80044bc:	60fb      	str	r3, [r7, #12]

  /* Update TIMx CR2 */
  htim->Instance->CR2 = tmpcr2;
 80044be:	687b      	ldr	r3, [r7, #4]
 80044c0:	681b      	ldr	r3, [r3, #0]
 80044c2:	68fa      	ldr	r2, [r7, #12]
 80044c4:	605a      	str	r2, [r3, #4]

  if (IS_TIM_SLAVE_INSTANCE(htim->Instance))
 80044c6:	687b      	ldr	r3, [r7, #4]
 80044c8:	681b      	ldr	r3, [r3, #0]
 80044ca:	4a14      	ldr	r2, [pc, #80]	@ (800451c <HAL_TIMEx_MasterConfigSynchronization+0xa8>)
 80044cc:	4293      	cmp	r3, r2
 80044ce:	d009      	beq.n	80044e4 <HAL_TIMEx_MasterConfigSynchronization+0x70>
 80044d0:	687b      	ldr	r3, [r7, #4]
 80044d2:	681b      	ldr	r3, [r3, #0]
 80044d4:	f1b3 4f80 	cmp.w	r3, #1073741824	@ 0x40000000
 80044d8:	d004      	beq.n	80044e4 <HAL_TIMEx_MasterConfigSynchronization+0x70>
 80044da:	687b      	ldr	r3, [r7, #4]
 80044dc:	681b      	ldr	r3, [r3, #0]
 80044de:	4a10      	ldr	r2, [pc, #64]	@ (8004520 <HAL_TIMEx_MasterConfigSynchronization+0xac>)
 80044e0:	4293      	cmp	r3, r2
 80044e2:	d10c      	bne.n	80044fe <HAL_TIMEx_MasterConfigSynchronization+0x8a>
  {
    /* Reset the MSM Bit */
    tmpsmcr &= ~TIM_SMCR_MSM;
 80044e4:	68bb      	ldr	r3, [r7, #8]
 80044e6:	f023 0380 	bic.w	r3, r3, #128	@ 0x80
 80044ea:	60bb      	str	r3, [r7, #8]
    /* Set master mode */
    tmpsmcr |= sMasterConfig->MasterSlaveMode;
 80044ec:	683b      	ldr	r3, [r7, #0]
 80044ee:	685b      	ldr	r3, [r3, #4]
 80044f0:	68ba      	ldr	r2, [r7, #8]
 80044f2:	4313      	orrs	r3, r2
 80044f4:	60bb      	str	r3, [r7, #8]

    /* Update TIMx SMCR */
    htim->Instance->SMCR = tmpsmcr;
 80044f6:	687b      	ldr	r3, [r7, #4]
 80044f8:	681b      	ldr	r3, [r3, #0]
 80044fa:	68ba      	ldr	r2, [r7, #8]
 80044fc:	609a      	str	r2, [r3, #8]
  }

  /* Change the htim state */
  htim->State = HAL_TIM_STATE_READY;
 80044fe:	687b      	ldr	r3, [r7, #4]
 8004500:	2201      	movs	r2, #1
 8004502:	f883 203d 	strb.w	r2, [r3, #61]	@ 0x3d

  __HAL_UNLOCK(htim);
 8004506:	687b      	ldr	r3, [r7, #4]
 8004508:	2200      	movs	r2, #0
 800450a:	f883 203c 	strb.w	r2, [r3, #60]	@ 0x3c

  return HAL_OK;
 800450e:	2300      	movs	r3, #0
}
 8004510:	4618      	mov	r0, r3
 8004512:	3714      	adds	r7, #20
 8004514:	46bd      	mov	sp, r7
 8004516:	bc80      	pop	{r7}
 8004518:	4770      	bx	lr
 800451a:	bf00      	nop
 800451c:	40012c00 	.word	0x40012c00
 8004520:	40000400 	.word	0x40000400

08004524 <HAL_TIMEx_CommutCallback>:
  * @brief  Commutation callback in non-blocking mode
  * @param  htim TIM handle
  * @retval None
  */
__weak void HAL_TIMEx_CommutCallback(TIM_HandleTypeDef *htim)
{
 8004524:	b480      	push	{r7}
 8004526:	b083      	sub	sp, #12
 8004528:	af00      	add	r7, sp, #0
 800452a:	6078      	str	r0, [r7, #4]
  UNUSED(htim);

  /* NOTE : This function should not be modified, when the callback is needed,
            the HAL_TIMEx_CommutCallback could be implemented in the user file
   */
}
 800452c:	bf00      	nop
 800452e:	370c      	adds	r7, #12
 8004530:	46bd      	mov	sp, r7
 8004532:	bc80      	pop	{r7}
 8004534:	4770      	bx	lr

08004536 <HAL_TIMEx_BreakCallback>:
  * @brief  Break detection callback in non-blocking mode
  * @param  htim TIM handle
  * @retval None
  */
__weak void HAL_TIMEx_BreakCallback(TIM_HandleTypeDef *htim)
{
 8004536:	b480      	push	{r7}
 8004538:	b083      	sub	sp, #12
 800453a:	af00      	add	r7, sp, #0
 800453c:	6078      	str	r0, [r7, #4]
  UNUSED(htim);

  /* NOTE : This function should not be modified, when the callback is needed,
            the HAL_TIMEx_BreakCallback could be implemented in the user file
   */
}
 800453e:	bf00      	nop
 8004540:	370c      	adds	r7, #12
 8004542:	46bd      	mov	sp, r7
 8004544:	bc80      	pop	{r7}
 8004546:	4770      	bx	lr

08004548 <HAL_UART_Init>:
  * @param  huart  Pointer to a UART_HandleTypeDef structure that contains
  *                the configuration information for the specified UART module.
  * @retval HAL status
  */
HAL_StatusTypeDef HAL_UART_Init(UART_HandleTypeDef *huart)
{
 8004548:	b580      	push	{r7, lr}
 800454a:	b082      	sub	sp, #8
 800454c:	af00      	add	r7, sp, #0
 800454e:	6078      	str	r0, [r7, #4]
  /* Check the UART handle allocation */
  if (huart == NULL)
 8004550:	687b      	ldr	r3, [r7, #4]
 8004552:	2b00      	cmp	r3, #0
 8004554:	d101      	bne.n	800455a <HAL_UART_Init+0x12>
  {
    return HAL_ERROR;
 8004556:	2301      	movs	r3, #1
 8004558:	e042      	b.n	80045e0 <HAL_UART_Init+0x98>
  assert_param(IS_UART_WORD_LENGTH(huart->Init.WordLength));
#if defined(USART_CR1_OVER8)
  assert_param(IS_UART_OVERSAMPLING(huart->Init.OverSampling));
#endif /* USART_CR1_OVER8 */

  if (huart->gState == HAL_UART_STATE_RESET)
 800455a:	687b      	ldr	r3, [r7, #4]
 800455c:	f893 3041 	ldrb.w	r3, [r3, #65]	@ 0x41
 8004560:	b2db      	uxtb	r3, r3
 8004562:	2b00      	cmp	r3, #0
 8004564:	d106      	bne.n	8004574 <HAL_UART_Init+0x2c>
  {
    /* Allocate lock resource and initialize it */
    huart->Lock = HAL_UNLOCKED;
 8004566:	687b      	ldr	r3, [r7, #4]
 8004568:	2200      	movs	r2, #0
 800456a:	f883 2040 	strb.w	r2, [r3, #64]	@ 0x40

    /* Init the low level hardware */
    huart->MspInitCallback(huart);
#else
    /* Init the low level hardware : GPIO, CLOCK */
    HAL_UART_MspInit(huart);
 800456e:	6878      	ldr	r0, [r7, #4]
 8004570:	f7fc fc18 	bl	8000da4 <HAL_UART_MspInit>
#endif /* (USE_HAL_UART_REGISTER_CALLBACKS) */
  }

  huart->gState = HAL_UART_STATE_BUSY;
 8004574:	687b      	ldr	r3, [r7, #4]
 8004576:	2224      	movs	r2, #36	@ 0x24
 8004578:	f883 2041 	strb.w	r2, [r3, #65]	@ 0x41

  /* Disable the peripheral */
  __HAL_UART_DISABLE(huart);
 800457c:	687b      	ldr	r3, [r7, #4]
 800457e:	681b      	ldr	r3, [r3, #0]
 8004580:	68da      	ldr	r2, [r3, #12]
 8004582:	687b      	ldr	r3, [r7, #4]
 8004584:	681b      	ldr	r3, [r3, #0]
 8004586:	f422 5200 	bic.w	r2, r2, #8192	@ 0x2000
 800458a:	60da      	str	r2, [r3, #12]

  /* Set the UART Communication parameters */
  UART_SetConfig(huart);
 800458c:	6878      	ldr	r0, [r7, #4]
 800458e:	f000 f971 	bl	8004874 <UART_SetConfig>

  /* In asynchronous mode, the following bits must be kept cleared:
     - LINEN and CLKEN bits in the USART_CR2 register,
     - SCEN, HDSEL and IREN  bits in the USART_CR3 register.*/
  CLEAR_BIT(huart->Instance->CR2, (USART_CR2_LINEN | USART_CR2_CLKEN));
 8004592:	687b      	ldr	r3, [r7, #4]
 8004594:	681b      	ldr	r3, [r3, #0]
 8004596:	691a      	ldr	r2, [r3, #16]
 8004598:	687b      	ldr	r3, [r7, #4]
 800459a:	681b      	ldr	r3, [r3, #0]
 800459c:	f422 4290 	bic.w	r2, r2, #18432	@ 0x4800
 80045a0:	611a      	str	r2, [r3, #16]
  CLEAR_BIT(huart->Instance->CR3, (USART_CR3_SCEN | USART_CR3_HDSEL | USART_CR3_IREN));
 80045a2:	687b      	ldr	r3, [r7, #4]
 80045a4:	681b      	ldr	r3, [r3, #0]
 80045a6:	695a      	ldr	r2, [r3, #20]
 80045a8:	687b      	ldr	r3, [r7, #4]
 80045aa:	681b      	ldr	r3, [r3, #0]
 80045ac:	f022 022a 	bic.w	r2, r2, #42	@ 0x2a
 80045b0:	615a      	str	r2, [r3, #20]

  /* Enable the peripheral */
  __HAL_UART_ENABLE(huart);
 80045b2:	687b      	ldr	r3, [r7, #4]
 80045b4:	681b      	ldr	r3, [r3, #0]
 80045b6:	68da      	ldr	r2, [r3, #12]
 80045b8:	687b      	ldr	r3, [r7, #4]
 80045ba:	681b      	ldr	r3, [r3, #0]
 80045bc:	f442 5200 	orr.w	r2, r2, #8192	@ 0x2000
 80045c0:	60da      	str	r2, [r3, #12]

  /* Initialize the UART state */
  huart->ErrorCode = HAL_UART_ERROR_NONE;
 80045c2:	687b      	ldr	r3, [r7, #4]
 80045c4:	2200      	movs	r2, #0
 80045c6:	645a      	str	r2, [r3, #68]	@ 0x44
  huart->gState = HAL_UART_STATE_READY;
 80045c8:	687b      	ldr	r3, [r7, #4]
 80045ca:	2220      	movs	r2, #32
 80045cc:	f883 2041 	strb.w	r2, [r3, #65]	@ 0x41
  huart->RxState = HAL_UART_STATE_READY;
 80045d0:	687b      	ldr	r3, [r7, #4]
 80045d2:	2220      	movs	r2, #32
 80045d4:	f883 2042 	strb.w	r2, [r3, #66]	@ 0x42
  huart->RxEventType = HAL_UART_RXEVENT_TC;
 80045d8:	687b      	ldr	r3, [r7, #4]
 80045da:	2200      	movs	r2, #0
 80045dc:	635a      	str	r2, [r3, #52]	@ 0x34

  return HAL_OK;
 80045de:	2300      	movs	r3, #0
}
 80045e0:	4618      	mov	r0, r3
 80045e2:	3708      	adds	r7, #8
 80045e4:	46bd      	mov	sp, r7
 80045e6:	bd80      	pop	{r7, pc}

080045e8 <HAL_UART_Transmit>:
  * @param  Size  Amount of data elements (u8 or u16) to be sent
  * @param  Timeout Timeout duration
  * @retval HAL status
  */
HAL_StatusTypeDef HAL_UART_Transmit(UART_HandleTypeDef *huart, const uint8_t *pData, uint16_t Size, uint32_t Timeout)
{
 80045e8:	b580      	push	{r7, lr}
 80045ea:	b08a      	sub	sp, #40	@ 0x28
 80045ec:	af02      	add	r7, sp, #8
 80045ee:	60f8      	str	r0, [r7, #12]
 80045f0:	60b9      	str	r1, [r7, #8]
 80045f2:	603b      	str	r3, [r7, #0]
 80045f4:	4613      	mov	r3, r2
 80045f6:	80fb      	strh	r3, [r7, #6]
  const uint8_t  *pdata8bits;
  const uint16_t *pdata16bits;
  uint32_t tickstart = 0U;
 80045f8:	2300      	movs	r3, #0
 80045fa:	617b      	str	r3, [r7, #20]

  /* Check that a Tx process is not already ongoing */
  if (huart->gState == HAL_UART_STATE_READY)
 80045fc:	68fb      	ldr	r3, [r7, #12]
 80045fe:	f893 3041 	ldrb.w	r3, [r3, #65]	@ 0x41
 8004602:	b2db      	uxtb	r3, r3
 8004604:	2b20      	cmp	r3, #32
 8004606:	d175      	bne.n	80046f4 <HAL_UART_Transmit+0x10c>
  {
    if ((pData == NULL) || (Size == 0U))
 8004608:	68bb      	ldr	r3, [r7, #8]
 800460a:	2b00      	cmp	r3, #0
 800460c:	d002      	beq.n	8004614 <HAL_UART_Transmit+0x2c>
 800460e:	88fb      	ldrh	r3, [r7, #6]
 8004610:	2b00      	cmp	r3, #0
 8004612:	d101      	bne.n	8004618 <HAL_UART_Transmit+0x30>
    {
      return  HAL_ERROR;
 8004614:	2301      	movs	r3, #1
 8004616:	e06e      	b.n	80046f6 <HAL_UART_Transmit+0x10e>
    }

    huart->ErrorCode = HAL_UART_ERROR_NONE;
 8004618:	68fb      	ldr	r3, [r7, #12]
 800461a:	2200      	movs	r2, #0
 800461c:	645a      	str	r2, [r3, #68]	@ 0x44
    huart->gState = HAL_UART_STATE_BUSY_TX;
 800461e:	68fb      	ldr	r3, [r7, #12]
 8004620:	2221      	movs	r2, #33	@ 0x21
 8004622:	f883 2041 	strb.w	r2, [r3, #65]	@ 0x41

    /* Init tickstart for timeout management */
    tickstart = HAL_GetTick();
 8004626:	f7fd fe49 	bl	80022bc <HAL_GetTick>
 800462a:	6178      	str	r0, [r7, #20]

    huart->TxXferSize = Size;
 800462c:	68fb      	ldr	r3, [r7, #12]
 800462e:	88fa      	ldrh	r2, [r7, #6]
 8004630:	849a      	strh	r2, [r3, #36]	@ 0x24
    huart->TxXferCount = Size;
 8004632:	68fb      	ldr	r3, [r7, #12]
 8004634:	88fa      	ldrh	r2, [r7, #6]
 8004636:	84da      	strh	r2, [r3, #38]	@ 0x26

    /* In case of 9bits/No Parity transfer, pData needs to be handled as a uint16_t pointer */
    if ((huart->Init.WordLength == UART_WORDLENGTH_9B) && (huart->Init.Parity == UART_PARITY_NONE))
 8004638:	68fb      	ldr	r3, [r7, #12]
 800463a:	689b      	ldr	r3, [r3, #8]
 800463c:	f5b3 5f80 	cmp.w	r3, #4096	@ 0x1000
 8004640:	d108      	bne.n	8004654 <HAL_UART_Transmit+0x6c>
 8004642:	68fb      	ldr	r3, [r7, #12]
 8004644:	691b      	ldr	r3, [r3, #16]
 8004646:	2b00      	cmp	r3, #0
 8004648:	d104      	bne.n	8004654 <HAL_UART_Transmit+0x6c>
    {
      pdata8bits  = NULL;
 800464a:	2300      	movs	r3, #0
 800464c:	61fb      	str	r3, [r7, #28]
      pdata16bits = (const uint16_t *) pData;
 800464e:	68bb      	ldr	r3, [r7, #8]
 8004650:	61bb      	str	r3, [r7, #24]
 8004652:	e003      	b.n	800465c <HAL_UART_Transmit+0x74>
    }
    else
    {
      pdata8bits  = pData;
 8004654:	68bb      	ldr	r3, [r7, #8]
 8004656:	61fb      	str	r3, [r7, #28]
      pdata16bits = NULL;
 8004658:	2300      	movs	r3, #0
 800465a:	61bb      	str	r3, [r7, #24]
    }

    while (huart->TxXferCount > 0U)
 800465c:	e02e      	b.n	80046bc <HAL_UART_Transmit+0xd4>
    {
      if (UART_WaitOnFlagUntilTimeout(huart, UART_FLAG_TXE, RESET, tickstart, Timeout) != HAL_OK)
 800465e:	683b      	ldr	r3, [r7, #0]
 8004660:	9300      	str	r3, [sp, #0]
 8004662:	697b      	ldr	r3, [r7, #20]
 8004664:	2200      	movs	r2, #0
 8004666:	2180      	movs	r1, #128	@ 0x80
 8004668:	68f8      	ldr	r0, [r7, #12]
 800466a:	f000 f848 	bl	80046fe <UART_WaitOnFlagUntilTimeout>
 800466e:	4603      	mov	r3, r0
 8004670:	2b00      	cmp	r3, #0
 8004672:	d005      	beq.n	8004680 <HAL_UART_Transmit+0x98>
      {
        huart->gState = HAL_UART_STATE_READY;
 8004674:	68fb      	ldr	r3, [r7, #12]
 8004676:	2220      	movs	r2, #32
 8004678:	f883 2041 	strb.w	r2, [r3, #65]	@ 0x41

        return HAL_TIMEOUT;
 800467c:	2303      	movs	r3, #3
 800467e:	e03a      	b.n	80046f6 <HAL_UART_Transmit+0x10e>
      }
      if (pdata8bits == NULL)
 8004680:	69fb      	ldr	r3, [r7, #28]
 8004682:	2b00      	cmp	r3, #0
 8004684:	d10b      	bne.n	800469e <HAL_UART_Transmit+0xb6>
      {
        huart->Instance->DR = (uint16_t)(*pdata16bits & 0x01FFU);
 8004686:	69bb      	ldr	r3, [r7, #24]
 8004688:	881b      	ldrh	r3, [r3, #0]
 800468a:	461a      	mov	r2, r3
 800468c:	68fb      	ldr	r3, [r7, #12]
 800468e:	681b      	ldr	r3, [r3, #0]
 8004690:	f3c2 0208 	ubfx	r2, r2, #0, #9
 8004694:	605a      	str	r2, [r3, #4]
        pdata16bits++;
 8004696:	69bb      	ldr	r3, [r7, #24]
 8004698:	3302      	adds	r3, #2
 800469a:	61bb      	str	r3, [r7, #24]
 800469c:	e007      	b.n	80046ae <HAL_UART_Transmit+0xc6>
      }
      else
      {
        huart->Instance->DR = (uint8_t)(*pdata8bits & 0xFFU);
 800469e:	69fb      	ldr	r3, [r7, #28]
 80046a0:	781a      	ldrb	r2, [r3, #0]
 80046a2:	68fb      	ldr	r3, [r7, #12]
 80046a4:	681b      	ldr	r3, [r3, #0]
 80046a6:	605a      	str	r2, [r3, #4]
        pdata8bits++;
 80046a8:	69fb      	ldr	r3, [r7, #28]
 80046aa:	3301      	adds	r3, #1
 80046ac:	61fb      	str	r3, [r7, #28]
      }
      huart->TxXferCount--;
 80046ae:	68fb      	ldr	r3, [r7, #12]
 80046b0:	8cdb      	ldrh	r3, [r3, #38]	@ 0x26
 80046b2:	b29b      	uxth	r3, r3
 80046b4:	3b01      	subs	r3, #1
 80046b6:	b29a      	uxth	r2, r3
 80046b8:	68fb      	ldr	r3, [r7, #12]
 80046ba:	84da      	strh	r2, [r3, #38]	@ 0x26
    while (huart->TxXferCount > 0U)
 80046bc:	68fb      	ldr	r3, [r7, #12]
 80046be:	8cdb      	ldrh	r3, [r3, #38]	@ 0x26
 80046c0:	b29b      	uxth	r3, r3
 80046c2:	2b00      	cmp	r3, #0
 80046c4:	d1cb      	bne.n	800465e <HAL_UART_Transmit+0x76>
    }

    if (UART_WaitOnFlagUntilTimeout(huart, UART_FLAG_TC, RESET, tickstart, Timeout) != HAL_OK)
 80046c6:	683b      	ldr	r3, [r7, #0]
 80046c8:	9300      	str	r3, [sp, #0]
 80046ca:	697b      	ldr	r3, [r7, #20]
 80046cc:	2200      	movs	r2, #0
 80046ce:	2140      	movs	r1, #64	@ 0x40
 80046d0:	68f8      	ldr	r0, [r7, #12]
 80046d2:	f000 f814 	bl	80046fe <UART_WaitOnFlagUntilTimeout>
 80046d6:	4603      	mov	r3, r0
 80046d8:	2b00      	cmp	r3, #0
 80046da:	d005      	beq.n	80046e8 <HAL_UART_Transmit+0x100>
    {
      huart->gState = HAL_UART_STATE_READY;
 80046dc:	68fb      	ldr	r3, [r7, #12]
 80046de:	2220      	movs	r2, #32
 80046e0:	f883 2041 	strb.w	r2, [r3, #65]	@ 0x41

      return HAL_TIMEOUT;
 80046e4:	2303      	movs	r3, #3
 80046e6:	e006      	b.n	80046f6 <HAL_UART_Transmit+0x10e>
    }

    /* At end of Tx process, restore huart->gState to Ready */
    huart->gState = HAL_UART_STATE_READY;
 80046e8:	68fb      	ldr	r3, [r7, #12]
 80046ea:	2220      	movs	r2, #32
 80046ec:	f883 2041 	strb.w	r2, [r3, #65]	@ 0x41

    return HAL_OK;
 80046f0:	2300      	movs	r3, #0
 80046f2:	e000      	b.n	80046f6 <HAL_UART_Transmit+0x10e>
  }
  else
  {
    return HAL_BUSY;
 80046f4:	2302      	movs	r3, #2
  }
}
 80046f6:	4618      	mov	r0, r3
 80046f8:	3720      	adds	r7, #32
 80046fa:	46bd      	mov	sp, r7
 80046fc:	bd80      	pop	{r7, pc}

080046fe <UART_WaitOnFlagUntilTimeout>:
  * @param  Timeout Timeout duration
  * @retval HAL status
  */
static HAL_StatusTypeDef UART_WaitOnFlagUntilTimeout(UART_HandleTypeDef *huart, uint32_t Flag, FlagStatus Status,
                                                     uint32_t Tickstart, uint32_t Timeout)
{
 80046fe:	b580      	push	{r7, lr}
 8004700:	b086      	sub	sp, #24
 8004702:	af00      	add	r7, sp, #0
 8004704:	60f8      	str	r0, [r7, #12]
 8004706:	60b9      	str	r1, [r7, #8]
 8004708:	603b      	str	r3, [r7, #0]
 800470a:	4613      	mov	r3, r2
 800470c:	71fb      	strb	r3, [r7, #7]
  /* Wait until flag is set */
  while ((__HAL_UART_GET_FLAG(huart, Flag) ? SET : RESET) == Status)
 800470e:	e03b      	b.n	8004788 <UART_WaitOnFlagUntilTimeout+0x8a>
  {
    /* Check for the Timeout */
    if (Timeout != HAL_MAX_DELAY)
 8004710:	6a3b      	ldr	r3, [r7, #32]
 8004712:	f1b3 3fff 	cmp.w	r3, #4294967295
 8004716:	d037      	beq.n	8004788 <UART_WaitOnFlagUntilTimeout+0x8a>
    {
      if (((HAL_GetTick() - Tickstart) > Timeout) || (Timeout == 0U))
 8004718:	f7fd fdd0 	bl	80022bc <HAL_GetTick>
 800471c:	4602      	mov	r2, r0
 800471e:	683b      	ldr	r3, [r7, #0]
 8004720:	1ad3      	subs	r3, r2, r3
 8004722:	6a3a      	ldr	r2, [r7, #32]
 8004724:	429a      	cmp	r2, r3
 8004726:	d302      	bcc.n	800472e <UART_WaitOnFlagUntilTimeout+0x30>
 8004728:	6a3b      	ldr	r3, [r7, #32]
 800472a:	2b00      	cmp	r3, #0
 800472c:	d101      	bne.n	8004732 <UART_WaitOnFlagUntilTimeout+0x34>
      {

        return HAL_TIMEOUT;
 800472e:	2303      	movs	r3, #3
 8004730:	e03a      	b.n	80047a8 <UART_WaitOnFlagUntilTimeout+0xaa>
      }

      if ((READ_BIT(huart->Instance->CR1, USART_CR1_RE) != 0U) && (Flag != UART_FLAG_TXE) && (Flag != UART_FLAG_TC))
 8004732:	68fb      	ldr	r3, [r7, #12]
 8004734:	681b      	ldr	r3, [r3, #0]
 8004736:	68db      	ldr	r3, [r3, #12]
 8004738:	f003 0304 	and.w	r3, r3, #4
 800473c:	2b00      	cmp	r3, #0
 800473e:	d023      	beq.n	8004788 <UART_WaitOnFlagUntilTimeout+0x8a>
 8004740:	68bb      	ldr	r3, [r7, #8]
 8004742:	2b80      	cmp	r3, #128	@ 0x80
 8004744:	d020      	beq.n	8004788 <UART_WaitOnFlagUntilTimeout+0x8a>
 8004746:	68bb      	ldr	r3, [r7, #8]
 8004748:	2b40      	cmp	r3, #64	@ 0x40
 800474a:	d01d      	beq.n	8004788 <UART_WaitOnFlagUntilTimeout+0x8a>
      {
        if (__HAL_UART_GET_FLAG(huart, UART_FLAG_ORE) == SET)
 800474c:	68fb      	ldr	r3, [r7, #12]
 800474e:	681b      	ldr	r3, [r3, #0]
 8004750:	681b      	ldr	r3, [r3, #0]
 8004752:	f003 0308 	and.w	r3, r3, #8
 8004756:	2b08      	cmp	r3, #8
 8004758:	d116      	bne.n	8004788 <UART_WaitOnFlagUntilTimeout+0x8a>
        {
          /* Clear Overrun Error flag*/
          __HAL_UART_CLEAR_OREFLAG(huart);
 800475a:	2300      	movs	r3, #0
 800475c:	617b      	str	r3, [r7, #20]
 800475e:	68fb      	ldr	r3, [r7, #12]
 8004760:	681b      	ldr	r3, [r3, #0]
 8004762:	681b      	ldr	r3, [r3, #0]
 8004764:	617b      	str	r3, [r7, #20]
 8004766:	68fb      	ldr	r3, [r7, #12]
 8004768:	681b      	ldr	r3, [r3, #0]
 800476a:	685b      	ldr	r3, [r3, #4]
 800476c:	617b      	str	r3, [r7, #20]
 800476e:	697b      	ldr	r3, [r7, #20]

          /* Blocking error : transfer is aborted
          Set the UART state ready to be able to start again the process,
          Disable Rx Interrupts if ongoing */
          UART_EndRxTransfer(huart);
 8004770:	68f8      	ldr	r0, [r7, #12]
 8004772:	f000 f81d 	bl	80047b0 <UART_EndRxTransfer>

          huart->ErrorCode = HAL_UART_ERROR_ORE;
 8004776:	68fb      	ldr	r3, [r7, #12]
 8004778:	2208      	movs	r2, #8
 800477a:	645a      	str	r2, [r3, #68]	@ 0x44

          /* Process Unlocked */
          __HAL_UNLOCK(huart);
 800477c:	68fb      	ldr	r3, [r7, #12]
 800477e:	2200      	movs	r2, #0
 8004780:	f883 2040 	strb.w	r2, [r3, #64]	@ 0x40

          return HAL_ERROR;
 8004784:	2301      	movs	r3, #1
 8004786:	e00f      	b.n	80047a8 <UART_WaitOnFlagUntilTimeout+0xaa>
  while ((__HAL_UART_GET_FLAG(huart, Flag) ? SET : RESET) == Status)
 8004788:	68fb      	ldr	r3, [r7, #12]
 800478a:	681b      	ldr	r3, [r3, #0]
 800478c:	681a      	ldr	r2, [r3, #0]
 800478e:	68bb      	ldr	r3, [r7, #8]
 8004790:	4013      	ands	r3, r2
 8004792:	68ba      	ldr	r2, [r7, #8]
 8004794:	429a      	cmp	r2, r3
 8004796:	bf0c      	ite	eq
 8004798:	2301      	moveq	r3, #1
 800479a:	2300      	movne	r3, #0
 800479c:	b2db      	uxtb	r3, r3
 800479e:	461a      	mov	r2, r3
 80047a0:	79fb      	ldrb	r3, [r7, #7]
 80047a2:	429a      	cmp	r2, r3
 80047a4:	d0b4      	beq.n	8004710 <UART_WaitOnFlagUntilTimeout+0x12>
        }
      }
    }
  }
  return HAL_OK;
 80047a6:	2300      	movs	r3, #0
}
 80047a8:	4618      	mov	r0, r3
 80047aa:	3718      	adds	r7, #24
 80047ac:	46bd      	mov	sp, r7
 80047ae:	bd80      	pop	{r7, pc}

080047b0 <UART_EndRxTransfer>:
  * @brief  End ongoing Rx transfer on UART peripheral (following error detection or Reception completion).
  * @param  huart UART handle.
  * @retval None
  */
static void UART_EndRxTransfer(UART_HandleTypeDef *huart)
{
 80047b0:	b480      	push	{r7}
 80047b2:	b095      	sub	sp, #84	@ 0x54
 80047b4:	af00      	add	r7, sp, #0
 80047b6:	6078      	str	r0, [r7, #4]
  /* Disable RXNE, PE and ERR (Frame error, noise error, overrun error) interrupts */
  ATOMIC_CLEAR_BIT(huart->Instance->CR1, (USART_CR1_RXNEIE | USART_CR1_PEIE));
 80047b8:	687b      	ldr	r3, [r7, #4]
 80047ba:	681b      	ldr	r3, [r3, #0]
 80047bc:	330c      	adds	r3, #12
 80047be:	637b      	str	r3, [r7, #52]	@ 0x34
 */
__STATIC_FORCEINLINE uint32_t __LDREXW(volatile uint32_t *addr)
{
    uint32_t result;

   __ASM volatile ("ldrex %0, %1" : "=r" (result) : "Q" (*addr) );
 80047c0:	6b7b      	ldr	r3, [r7, #52]	@ 0x34
 80047c2:	e853 3f00 	ldrex	r3, [r3]
 80047c6:	633b      	str	r3, [r7, #48]	@ 0x30
   return(result);
 80047c8:	6b3b      	ldr	r3, [r7, #48]	@ 0x30
 80047ca:	f423 7390 	bic.w	r3, r3, #288	@ 0x120
 80047ce:	64fb      	str	r3, [r7, #76]	@ 0x4c
 80047d0:	687b      	ldr	r3, [r7, #4]
 80047d2:	681b      	ldr	r3, [r3, #0]
 80047d4:	330c      	adds	r3, #12
 80047d6:	6cfa      	ldr	r2, [r7, #76]	@ 0x4c
 80047d8:	643a      	str	r2, [r7, #64]	@ 0x40
 80047da:	63fb      	str	r3, [r7, #60]	@ 0x3c
 */
__STATIC_FORCEINLINE uint32_t __STREXW(uint32_t value, volatile uint32_t *addr)
{
   uint32_t result;

   __ASM volatile ("strex %0, %2, %1" : "=&r" (result), "=Q" (*addr) : "r" (value) );
 80047dc:	6bf9      	ldr	r1, [r7, #60]	@ 0x3c
 80047de:	6c3a      	ldr	r2, [r7, #64]	@ 0x40
 80047e0:	e841 2300 	strex	r3, r2, [r1]
 80047e4:	63bb      	str	r3, [r7, #56]	@ 0x38
   return(result);
 80047e6:	6bbb      	ldr	r3, [r7, #56]	@ 0x38
 80047e8:	2b00      	cmp	r3, #0
 80047ea:	d1e5      	bne.n	80047b8 <UART_EndRxTransfer+0x8>
  ATOMIC_CLEAR_BIT(huart->Instance->CR3, USART_CR3_EIE);
 80047ec:	687b      	ldr	r3, [r7, #4]
 80047ee:	681b      	ldr	r3, [r3, #0]
 80047f0:	3314      	adds	r3, #20
 80047f2:	623b      	str	r3, [r7, #32]
   __ASM volatile ("ldrex %0, %1" : "=r" (result) : "Q" (*addr) );
 80047f4:	6a3b      	ldr	r3, [r7, #32]
 80047f6:	e853 3f00 	ldrex	r3, [r3]
 80047fa:	61fb      	str	r3, [r7, #28]
   return(result);
 80047fc:	69fb      	ldr	r3, [r7, #28]
 80047fe:	f023 0301 	bic.w	r3, r3, #1
 8004802:	64bb      	str	r3, [r7, #72]	@ 0x48
 8004804:	687b      	ldr	r3, [r7, #4]
 8004806:	681b      	ldr	r3, [r3, #0]
 8004808:	3314      	adds	r3, #20
 800480a:	6cba      	ldr	r2, [r7, #72]	@ 0x48
 800480c:	62fa      	str	r2, [r7, #44]	@ 0x2c
 800480e:	62bb      	str	r3, [r7, #40]	@ 0x28
   __ASM volatile ("strex %0, %2, %1" : "=&r" (result), "=Q" (*addr) : "r" (value) );
 8004810:	6ab9      	ldr	r1, [r7, #40]	@ 0x28
 8004812:	6afa      	ldr	r2, [r7, #44]	@ 0x2c
 8004814:	e841 2300 	strex	r3, r2, [r1]
 8004818:	627b      	str	r3, [r7, #36]	@ 0x24
   return(result);
 800481a:	6a7b      	ldr	r3, [r7, #36]	@ 0x24
 800481c:	2b00      	cmp	r3, #0
 800481e:	d1e5      	bne.n	80047ec <UART_EndRxTransfer+0x3c>

  /* In case of reception waiting for IDLE event, disable also the IDLE IE interrupt source */
  if (huart->ReceptionType == HAL_UART_RECEPTION_TOIDLE)
 8004820:	687b      	ldr	r3, [r7, #4]
 8004822:	6b1b      	ldr	r3, [r3, #48]	@ 0x30
 8004824:	2b01      	cmp	r3, #1
 8004826:	d119      	bne.n	800485c <UART_EndRxTransfer+0xac>
  {
    ATOMIC_CLEAR_BIT(huart->Instance->CR1, USART_CR1_IDLEIE);
 8004828:	687b      	ldr	r3, [r7, #4]
 800482a:	681b      	ldr	r3, [r3, #0]
 800482c:	330c      	adds	r3, #12
 800482e:	60fb      	str	r3, [r7, #12]
   __ASM volatile ("ldrex %0, %1" : "=r" (result) : "Q" (*addr) );
 8004830:	68fb      	ldr	r3, [r7, #12]
 8004832:	e853 3f00 	ldrex	r3, [r3]
 8004836:	60bb      	str	r3, [r7, #8]
   return(result);
 8004838:	68bb      	ldr	r3, [r7, #8]
 800483a:	f023 0310 	bic.w	r3, r3, #16
 800483e:	647b      	str	r3, [r7, #68]	@ 0x44
 8004840:	687b      	ldr	r3, [r7, #4]
 8004842:	681b      	ldr	r3, [r3, #0]
 8004844:	330c      	adds	r3, #12
 8004846:	6c7a      	ldr	r2, [r7, #68]	@ 0x44
 8004848:	61ba      	str	r2, [r7, #24]
 800484a:	617b      	str	r3, [r7, #20]
   __ASM volatile ("strex %0, %2, %1" : "=&r" (result), "=Q" (*addr) : "r" (value) );
 800484c:	6979      	ldr	r1, [r7, #20]
 800484e:	69ba      	ldr	r2, [r7, #24]
 8004850:	e841 2300 	strex	r3, r2, [r1]
 8004854:	613b      	str	r3, [r7, #16]
   return(result);
 8004856:	693b      	ldr	r3, [r7, #16]
 8004858:	2b00      	cmp	r3, #0
 800485a:	d1e5      	bne.n	8004828 <UART_EndRxTransfer+0x78>
  }

  /* At end of Rx process, restore huart->RxState to Ready */
  huart->RxState = HAL_UART_STATE_READY;
 800485c:	687b      	ldr	r3, [r7, #4]
 800485e:	2220      	movs	r2, #32
 8004860:	f883 2042 	strb.w	r2, [r3, #66]	@ 0x42
  huart->ReceptionType = HAL_UART_RECEPTION_STANDARD;
 8004864:	687b      	ldr	r3, [r7, #4]
 8004866:	2200      	movs	r2, #0
 8004868:	631a      	str	r2, [r3, #48]	@ 0x30
}
 800486a:	bf00      	nop
 800486c:	3754      	adds	r7, #84	@ 0x54
 800486e:	46bd      	mov	sp, r7
 8004870:	bc80      	pop	{r7}
 8004872:	4770      	bx	lr

08004874 <UART_SetConfig>:
  * @param  huart  Pointer to a UART_HandleTypeDef structure that contains
  *                the configuration information for the specified UART module.
  * @retval None
  */
static void UART_SetConfig(UART_HandleTypeDef *huart)
{
 8004874:	b580      	push	{r7, lr}
 8004876:	b084      	sub	sp, #16
 8004878:	af00      	add	r7, sp, #0
 800487a:	6078      	str	r0, [r7, #4]
  assert_param(IS_UART_MODE(huart->Init.Mode));

  /*-------------------------- USART CR2 Configuration -----------------------*/
  /* Configure the UART Stop Bits: Set STOP[13:12] bits
     according to huart->Init.StopBits value */
  MODIFY_REG(huart->Instance->CR2, USART_CR2_STOP, huart->Init.StopBits);
 800487c:	687b      	ldr	r3, [r7, #4]
 800487e:	681b      	ldr	r3, [r3, #0]
 8004880:	691b      	ldr	r3, [r3, #16]
 8004882:	f423 5140 	bic.w	r1, r3, #12288	@ 0x3000
 8004886:	687b      	ldr	r3, [r7, #4]
 8004888:	68da      	ldr	r2, [r3, #12]
 800488a:	687b      	ldr	r3, [r7, #4]
 800488c:	681b      	ldr	r3, [r3, #0]
 800488e:	430a      	orrs	r2, r1
 8004890:	611a      	str	r2, [r3, #16]
  tmpreg = (uint32_t)huart->Init.WordLength | huart->Init.Parity | huart->Init.Mode | huart->Init.OverSampling;
  MODIFY_REG(huart->Instance->CR1,
             (uint32_t)(USART_CR1_M | USART_CR1_PCE | USART_CR1_PS | USART_CR1_TE | USART_CR1_RE | USART_CR1_OVER8),
             tmpreg);
#else
  tmpreg = (uint32_t)huart->Init.WordLength | huart->Init.Parity | huart->Init.Mode;
 8004892:	687b      	ldr	r3, [r7, #4]
 8004894:	689a      	ldr	r2, [r3, #8]
 8004896:	687b      	ldr	r3, [r7, #4]
 8004898:	691b      	ldr	r3, [r3, #16]
 800489a:	431a      	orrs	r2, r3
 800489c:	687b      	ldr	r3, [r7, #4]
 800489e:	695b      	ldr	r3, [r3, #20]
 80048a0:	4313      	orrs	r3, r2
 80048a2:	60bb      	str	r3, [r7, #8]
  MODIFY_REG(huart->Instance->CR1,
 80048a4:	687b      	ldr	r3, [r7, #4]
 80048a6:	681b      	ldr	r3, [r3, #0]
 80048a8:	68db      	ldr	r3, [r3, #12]
 80048aa:	f423 53b0 	bic.w	r3, r3, #5632	@ 0x1600
 80048ae:	f023 030c 	bic.w	r3, r3, #12
 80048b2:	687a      	ldr	r2, [r7, #4]
 80048b4:	6812      	ldr	r2, [r2, #0]
 80048b6:	68b9      	ldr	r1, [r7, #8]
 80048b8:	430b      	orrs	r3, r1
 80048ba:	60d3      	str	r3, [r2, #12]
             tmpreg);
#endif /* USART_CR1_OVER8 */

  /*-------------------------- USART CR3 Configuration -----------------------*/
  /* Configure the UART HFC: Set CTSE and RTSE bits according to huart->Init.HwFlowCtl value */
  MODIFY_REG(huart->Instance->CR3, (USART_CR3_RTSE | USART_CR3_CTSE), huart->Init.HwFlowCtl);
 80048bc:	687b      	ldr	r3, [r7, #4]
 80048be:	681b      	ldr	r3, [r3, #0]
 80048c0:	695b      	ldr	r3, [r3, #20]
 80048c2:	f423 7140 	bic.w	r1, r3, #768	@ 0x300
 80048c6:	687b      	ldr	r3, [r7, #4]
 80048c8:	699a      	ldr	r2, [r3, #24]
 80048ca:	687b      	ldr	r3, [r7, #4]
 80048cc:	681b      	ldr	r3, [r3, #0]
 80048ce:	430a      	orrs	r2, r1
 80048d0:	615a      	str	r2, [r3, #20]


  if(huart->Instance == USART1)
 80048d2:	687b      	ldr	r3, [r7, #4]
 80048d4:	681b      	ldr	r3, [r3, #0]
 80048d6:	4a2c      	ldr	r2, [pc, #176]	@ (8004988 <UART_SetConfig+0x114>)
 80048d8:	4293      	cmp	r3, r2
 80048da:	d103      	bne.n	80048e4 <UART_SetConfig+0x70>
  {
    pclk = HAL_RCC_GetPCLK2Freq();
 80048dc:	f7ff f8ba 	bl	8003a54 <HAL_RCC_GetPCLK2Freq>
 80048e0:	60f8      	str	r0, [r7, #12]
 80048e2:	e002      	b.n	80048ea <UART_SetConfig+0x76>
  }
  else
  {
    pclk = HAL_RCC_GetPCLK1Freq();
 80048e4:	f7ff f8a2 	bl	8003a2c <HAL_RCC_GetPCLK1Freq>
 80048e8:	60f8      	str	r0, [r7, #12]
  else
  {
    huart->Instance->BRR = UART_BRR_SAMPLING16(pclk, huart->Init.BaudRate);
  }
#else
  huart->Instance->BRR = UART_BRR_SAMPLING16(pclk, huart->Init.BaudRate);
 80048ea:	68fa      	ldr	r2, [r7, #12]
 80048ec:	4613      	mov	r3, r2
 80048ee:	009b      	lsls	r3, r3, #2
 80048f0:	4413      	add	r3, r2
 80048f2:	009a      	lsls	r2, r3, #2
 80048f4:	441a      	add	r2, r3
 80048f6:	687b      	ldr	r3, [r7, #4]
 80048f8:	685b      	ldr	r3, [r3, #4]
 80048fa:	009b      	lsls	r3, r3, #2
 80048fc:	fbb2 f3f3 	udiv	r3, r2, r3
 8004900:	4a22      	ldr	r2, [pc, #136]	@ (800498c <UART_SetConfig+0x118>)
 8004902:	fba2 2303 	umull	r2, r3, r2, r3
 8004906:	095b      	lsrs	r3, r3, #5
 8004908:	0119      	lsls	r1, r3, #4
 800490a:	68fa      	ldr	r2, [r7, #12]
 800490c:	4613      	mov	r3, r2
 800490e:	009b      	lsls	r3, r3, #2
 8004910:	4413      	add	r3, r2
 8004912:	009a      	lsls	r2, r3, #2
 8004914:	441a      	add	r2, r3
 8004916:	687b      	ldr	r3, [r7, #4]
 8004918:	685b      	ldr	r3, [r3, #4]
 800491a:	009b      	lsls	r3, r3, #2
 800491c:	fbb2 f2f3 	udiv	r2, r2, r3
 8004920:	4b1a      	ldr	r3, [pc, #104]	@ (800498c <UART_SetConfig+0x118>)
 8004922:	fba3 0302 	umull	r0, r3, r3, r2
 8004926:	095b      	lsrs	r3, r3, #5
 8004928:	2064      	movs	r0, #100	@ 0x64
 800492a:	fb00 f303 	mul.w	r3, r0, r3
 800492e:	1ad3      	subs	r3, r2, r3
 8004930:	011b      	lsls	r3, r3, #4
 8004932:	3332      	adds	r3, #50	@ 0x32
 8004934:	4a15      	ldr	r2, [pc, #84]	@ (800498c <UART_SetConfig+0x118>)
 8004936:	fba2 2303 	umull	r2, r3, r2, r3
 800493a:	095b      	lsrs	r3, r3, #5
 800493c:	f003 03f0 	and.w	r3, r3, #240	@ 0xf0
 8004940:	4419      	add	r1, r3
 8004942:	68fa      	ldr	r2, [r7, #12]
 8004944:	4613      	mov	r3, r2
 8004946:	009b      	lsls	r3, r3, #2
 8004948:	4413      	add	r3, r2
 800494a:	009a      	lsls	r2, r3, #2
 800494c:	441a      	add	r2, r3
 800494e:	687b      	ldr	r3, [r7, #4]
 8004950:	685b      	ldr	r3, [r3, #4]
 8004952:	009b      	lsls	r3, r3, #2
 8004954:	fbb2 f2f3 	udiv	r2, r2, r3
 8004958:	4b0c      	ldr	r3, [pc, #48]	@ (800498c <UART_SetConfig+0x118>)
 800495a:	fba3 0302 	umull	r0, r3, r3, r2
 800495e:	095b      	lsrs	r3, r3, #5
 8004960:	2064      	movs	r0, #100	@ 0x64
 8004962:	fb00 f303 	mul.w	r3, r0, r3
 8004966:	1ad3      	subs	r3, r2, r3
 8004968:	011b      	lsls	r3, r3, #4
 800496a:	3332      	adds	r3, #50	@ 0x32
 800496c:	4a07      	ldr	r2, [pc, #28]	@ (800498c <UART_SetConfig+0x118>)
 800496e:	fba2 2303 	umull	r2, r3, r2, r3
 8004972:	095b      	lsrs	r3, r3, #5
 8004974:	f003 020f 	and.w	r2, r3, #15
 8004978:	687b      	ldr	r3, [r7, #4]
 800497a:	681b      	ldr	r3, [r3, #0]
 800497c:	440a      	add	r2, r1
 800497e:	609a      	str	r2, [r3, #8]
#endif /* USART_CR1_OVER8 */
}
 8004980:	bf00      	nop
 8004982:	3710      	adds	r7, #16
 8004984:	46bd      	mov	sp, r7
 8004986:	bd80      	pop	{r7, pc}
 8004988:	40013800 	.word	0x40013800
 800498c:	51eb851f 	.word	0x51eb851f

08004990 <std>:
 8004990:	2300      	movs	r3, #0
 8004992:	b510      	push	{r4, lr}
 8004994:	4604      	mov	r4, r0
 8004996:	e9c0 3300 	strd	r3, r3, [r0]
 800499a:	e9c0 3304 	strd	r3, r3, [r0, #16]
 800499e:	6083      	str	r3, [r0, #8]
 80049a0:	8181      	strh	r1, [r0, #12]
 80049a2:	6643      	str	r3, [r0, #100]	@ 0x64
 80049a4:	81c2      	strh	r2, [r0, #14]
 80049a6:	6183      	str	r3, [r0, #24]
 80049a8:	4619      	mov	r1, r3
 80049aa:	2208      	movs	r2, #8
 80049ac:	305c      	adds	r0, #92	@ 0x5c
 80049ae:	f000 f93a 	bl	8004c26 <memset>
 80049b2:	4b0d      	ldr	r3, [pc, #52]	@ (80049e8 <std+0x58>)
 80049b4:	6224      	str	r4, [r4, #32]
 80049b6:	6263      	str	r3, [r4, #36]	@ 0x24
 80049b8:	4b0c      	ldr	r3, [pc, #48]	@ (80049ec <std+0x5c>)
 80049ba:	62a3      	str	r3, [r4, #40]	@ 0x28
 80049bc:	4b0c      	ldr	r3, [pc, #48]	@ (80049f0 <std+0x60>)
 80049be:	62e3      	str	r3, [r4, #44]	@ 0x2c
 80049c0:	4b0c      	ldr	r3, [pc, #48]	@ (80049f4 <std+0x64>)
 80049c2:	6323      	str	r3, [r4, #48]	@ 0x30
 80049c4:	4b0c      	ldr	r3, [pc, #48]	@ (80049f8 <std+0x68>)
 80049c6:	429c      	cmp	r4, r3
 80049c8:	d006      	beq.n	80049d8 <std+0x48>
 80049ca:	f103 0268 	add.w	r2, r3, #104	@ 0x68
 80049ce:	4294      	cmp	r4, r2
 80049d0:	d002      	beq.n	80049d8 <std+0x48>
 80049d2:	33d0      	adds	r3, #208	@ 0xd0
 80049d4:	429c      	cmp	r4, r3
 80049d6:	d105      	bne.n	80049e4 <std+0x54>
 80049d8:	f104 0058 	add.w	r0, r4, #88	@ 0x58
 80049dc:	e8bd 4010 	ldmia.w	sp!, {r4, lr}
 80049e0:	f000 b99a 	b.w	8004d18 <__retarget_lock_init_recursive>
 80049e4:	bd10      	pop	{r4, pc}
 80049e6:	bf00      	nop
 80049e8:	08004ba1 	.word	0x08004ba1
 80049ec:	08004bc3 	.word	0x08004bc3
 80049f0:	08004bfb 	.word	0x08004bfb
 80049f4:	08004c1f 	.word	0x08004c1f
 80049f8:	20000574 	.word	0x20000574

080049fc <stdio_exit_handler>:
 80049fc:	4a02      	ldr	r2, [pc, #8]	@ (8004a08 <stdio_exit_handler+0xc>)
 80049fe:	4903      	ldr	r1, [pc, #12]	@ (8004a0c <stdio_exit_handler+0x10>)
 8004a00:	4803      	ldr	r0, [pc, #12]	@ (8004a10 <stdio_exit_handler+0x14>)
 8004a02:	f000 b869 	b.w	8004ad8 <_fwalk_sglue>
 8004a06:	bf00      	nop
 8004a08:	20000024 	.word	0x20000024
 8004a0c:	08005861 	.word	0x08005861
 8004a10:	20000034 	.word	0x20000034

08004a14 <cleanup_stdio>:
 8004a14:	6841      	ldr	r1, [r0, #4]
 8004a16:	4b0c      	ldr	r3, [pc, #48]	@ (8004a48 <cleanup_stdio+0x34>)
 8004a18:	b510      	push	{r4, lr}
 8004a1a:	4299      	cmp	r1, r3
 8004a1c:	4604      	mov	r4, r0
 8004a1e:	d001      	beq.n	8004a24 <cleanup_stdio+0x10>
 8004a20:	f000 ff1e 	bl	8005860 <_fflush_r>
 8004a24:	68a1      	ldr	r1, [r4, #8]
 8004a26:	4b09      	ldr	r3, [pc, #36]	@ (8004a4c <cleanup_stdio+0x38>)
 8004a28:	4299      	cmp	r1, r3
 8004a2a:	d002      	beq.n	8004a32 <cleanup_stdio+0x1e>
 8004a2c:	4620      	mov	r0, r4
 8004a2e:	f000 ff17 	bl	8005860 <_fflush_r>
 8004a32:	68e1      	ldr	r1, [r4, #12]
 8004a34:	4b06      	ldr	r3, [pc, #24]	@ (8004a50 <cleanup_stdio+0x3c>)
 8004a36:	4299      	cmp	r1, r3
 8004a38:	d004      	beq.n	8004a44 <cleanup_stdio+0x30>
 8004a3a:	4620      	mov	r0, r4
 8004a3c:	e8bd 4010 	ldmia.w	sp!, {r4, lr}
 8004a40:	f000 bf0e 	b.w	8005860 <_fflush_r>
 8004a44:	bd10      	pop	{r4, pc}
 8004a46:	bf00      	nop
 8004a48:	20000574 	.word	0x20000574
 8004a4c:	200005dc 	.word	0x200005dc
 8004a50:	20000644 	.word	0x20000644

08004a54 <global_stdio_init.part.0>:
 8004a54:	b510      	push	{r4, lr}
 8004a56:	4b0b      	ldr	r3, [pc, #44]	@ (8004a84 <global_stdio_init.part.0+0x30>)
 8004a58:	4c0b      	ldr	r4, [pc, #44]	@ (8004a88 <global_stdio_init.part.0+0x34>)
 8004a5a:	4a0c      	ldr	r2, [pc, #48]	@ (8004a8c <global_stdio_init.part.0+0x38>)
 8004a5c:	4620      	mov	r0, r4
 8004a5e:	601a      	str	r2, [r3, #0]
 8004a60:	2104      	movs	r1, #4
 8004a62:	2200      	movs	r2, #0
 8004a64:	f7ff ff94 	bl	8004990 <std>
 8004a68:	f104 0068 	add.w	r0, r4, #104	@ 0x68
 8004a6c:	2201      	movs	r2, #1
 8004a6e:	2109      	movs	r1, #9
 8004a70:	f7ff ff8e 	bl	8004990 <std>
 8004a74:	f104 00d0 	add.w	r0, r4, #208	@ 0xd0
 8004a78:	2202      	movs	r2, #2
 8004a7a:	e8bd 4010 	ldmia.w	sp!, {r4, lr}
 8004a7e:	2112      	movs	r1, #18
 8004a80:	f7ff bf86 	b.w	8004990 <std>
 8004a84:	200006ac 	.word	0x200006ac
 8004a88:	20000574 	.word	0x20000574
 8004a8c:	080049fd 	.word	0x080049fd

08004a90 <__sfp_lock_acquire>:
 8004a90:	4801      	ldr	r0, [pc, #4]	@ (8004a98 <__sfp_lock_acquire+0x8>)
 8004a92:	f000 b942 	b.w	8004d1a <__retarget_lock_acquire_recursive>
 8004a96:	bf00      	nop
 8004a98:	200006b5 	.word	0x200006b5

08004a9c <__sfp_lock_release>:
 8004a9c:	4801      	ldr	r0, [pc, #4]	@ (8004aa4 <__sfp_lock_release+0x8>)
 8004a9e:	f000 b93d 	b.w	8004d1c <__retarget_lock_release_recursive>
 8004aa2:	bf00      	nop
 8004aa4:	200006b5 	.word	0x200006b5

08004aa8 <__sinit>:
 8004aa8:	b510      	push	{r4, lr}
 8004aaa:	4604      	mov	r4, r0
 8004aac:	f7ff fff0 	bl	8004a90 <__sfp_lock_acquire>
 8004ab0:	6a23      	ldr	r3, [r4, #32]
 8004ab2:	b11b      	cbz	r3, 8004abc <__sinit+0x14>
 8004ab4:	e8bd 4010 	ldmia.w	sp!, {r4, lr}
 8004ab8:	f7ff bff0 	b.w	8004a9c <__sfp_lock_release>
 8004abc:	4b04      	ldr	r3, [pc, #16]	@ (8004ad0 <__sinit+0x28>)
 8004abe:	6223      	str	r3, [r4, #32]
 8004ac0:	4b04      	ldr	r3, [pc, #16]	@ (8004ad4 <__sinit+0x2c>)
 8004ac2:	681b      	ldr	r3, [r3, #0]
 8004ac4:	2b00      	cmp	r3, #0
 8004ac6:	d1f5      	bne.n	8004ab4 <__sinit+0xc>
 8004ac8:	f7ff ffc4 	bl	8004a54 <global_stdio_init.part.0>
 8004acc:	e7f2      	b.n	8004ab4 <__sinit+0xc>
 8004ace:	bf00      	nop
 8004ad0:	08004a15 	.word	0x08004a15
 8004ad4:	200006ac 	.word	0x200006ac

08004ad8 <_fwalk_sglue>:
 8004ad8:	e92d 43f8 	stmdb	sp!, {r3, r4, r5, r6, r7, r8, r9, lr}
 8004adc:	4607      	mov	r7, r0
 8004ade:	4688      	mov	r8, r1
 8004ae0:	4614      	mov	r4, r2
 8004ae2:	2600      	movs	r6, #0
 8004ae4:	e9d4 9501 	ldrd	r9, r5, [r4, #4]
 8004ae8:	f1b9 0901 	subs.w	r9, r9, #1
 8004aec:	d505      	bpl.n	8004afa <_fwalk_sglue+0x22>
 8004aee:	6824      	ldr	r4, [r4, #0]
 8004af0:	2c00      	cmp	r4, #0
 8004af2:	d1f7      	bne.n	8004ae4 <_fwalk_sglue+0xc>
 8004af4:	4630      	mov	r0, r6
 8004af6:	e8bd 83f8 	ldmia.w	sp!, {r3, r4, r5, r6, r7, r8, r9, pc}
 8004afa:	89ab      	ldrh	r3, [r5, #12]
 8004afc:	2b01      	cmp	r3, #1
 8004afe:	d907      	bls.n	8004b10 <_fwalk_sglue+0x38>
 8004b00:	f9b5 300e 	ldrsh.w	r3, [r5, #14]
 8004b04:	3301      	adds	r3, #1
 8004b06:	d003      	beq.n	8004b10 <_fwalk_sglue+0x38>
 8004b08:	4629      	mov	r1, r5
 8004b0a:	4638      	mov	r0, r7
 8004b0c:	47c0      	blx	r8
 8004b0e:	4306      	orrs	r6, r0
 8004b10:	3568      	adds	r5, #104	@ 0x68
 8004b12:	e7e9      	b.n	8004ae8 <_fwalk_sglue+0x10>

08004b14 <iprintf>:
 8004b14:	b40f      	push	{r0, r1, r2, r3}
 8004b16:	b507      	push	{r0, r1, r2, lr}
 8004b18:	4906      	ldr	r1, [pc, #24]	@ (8004b34 <iprintf+0x20>)
 8004b1a:	ab04      	add	r3, sp, #16
 8004b1c:	6808      	ldr	r0, [r1, #0]
 8004b1e:	f853 2b04 	ldr.w	r2, [r3], #4
 8004b22:	6881      	ldr	r1, [r0, #8]
 8004b24:	9301      	str	r3, [sp, #4]
 8004b26:	f000 fb71 	bl	800520c <_vfiprintf_r>
 8004b2a:	b003      	add	sp, #12
 8004b2c:	f85d eb04 	ldr.w	lr, [sp], #4
 8004b30:	b004      	add	sp, #16
 8004b32:	4770      	bx	lr
 8004b34:	20000030 	.word	0x20000030

08004b38 <sniprintf>:
 8004b38:	b40c      	push	{r2, r3}
 8004b3a:	b530      	push	{r4, r5, lr}
 8004b3c:	4b17      	ldr	r3, [pc, #92]	@ (8004b9c <sniprintf+0x64>)
 8004b3e:	1e0c      	subs	r4, r1, #0
 8004b40:	681d      	ldr	r5, [r3, #0]
 8004b42:	b09d      	sub	sp, #116	@ 0x74
 8004b44:	da08      	bge.n	8004b58 <sniprintf+0x20>
 8004b46:	238b      	movs	r3, #139	@ 0x8b
 8004b48:	f04f 30ff 	mov.w	r0, #4294967295
 8004b4c:	602b      	str	r3, [r5, #0]
 8004b4e:	b01d      	add	sp, #116	@ 0x74
 8004b50:	e8bd 4030 	ldmia.w	sp!, {r4, r5, lr}
 8004b54:	b002      	add	sp, #8
 8004b56:	4770      	bx	lr
 8004b58:	f44f 7302 	mov.w	r3, #520	@ 0x208
 8004b5c:	f8ad 3014 	strh.w	r3, [sp, #20]
 8004b60:	bf0c      	ite	eq
 8004b62:	4623      	moveq	r3, r4
 8004b64:	f104 33ff 	addne.w	r3, r4, #4294967295
 8004b68:	9304      	str	r3, [sp, #16]
 8004b6a:	9307      	str	r3, [sp, #28]
 8004b6c:	f64f 73ff 	movw	r3, #65535	@ 0xffff
 8004b70:	9002      	str	r0, [sp, #8]
 8004b72:	9006      	str	r0, [sp, #24]
 8004b74:	f8ad 3016 	strh.w	r3, [sp, #22]
 8004b78:	4628      	mov	r0, r5
 8004b7a:	ab21      	add	r3, sp, #132	@ 0x84
 8004b7c:	9a20      	ldr	r2, [sp, #128]	@ 0x80
 8004b7e:	a902      	add	r1, sp, #8
 8004b80:	9301      	str	r3, [sp, #4]
 8004b82:	f000 fa1f 	bl	8004fc4 <_svfiprintf_r>
 8004b86:	1c43      	adds	r3, r0, #1
 8004b88:	bfbc      	itt	lt
 8004b8a:	238b      	movlt	r3, #139	@ 0x8b
 8004b8c:	602b      	strlt	r3, [r5, #0]
 8004b8e:	2c00      	cmp	r4, #0
 8004b90:	d0dd      	beq.n	8004b4e <sniprintf+0x16>
 8004b92:	2200      	movs	r2, #0
 8004b94:	9b02      	ldr	r3, [sp, #8]
 8004b96:	701a      	strb	r2, [r3, #0]
 8004b98:	e7d9      	b.n	8004b4e <sniprintf+0x16>
 8004b9a:	bf00      	nop
 8004b9c:	20000030 	.word	0x20000030

08004ba0 <__sread>:
 8004ba0:	b510      	push	{r4, lr}
 8004ba2:	460c      	mov	r4, r1
 8004ba4:	f9b1 100e 	ldrsh.w	r1, [r1, #14]
 8004ba8:	f000 f868 	bl	8004c7c <_read_r>
 8004bac:	2800      	cmp	r0, #0
 8004bae:	bfab      	itete	ge
 8004bb0:	6d63      	ldrge	r3, [r4, #84]	@ 0x54
 8004bb2:	89a3      	ldrhlt	r3, [r4, #12]
 8004bb4:	181b      	addge	r3, r3, r0
 8004bb6:	f423 5380 	biclt.w	r3, r3, #4096	@ 0x1000
 8004bba:	bfac      	ite	ge
 8004bbc:	6563      	strge	r3, [r4, #84]	@ 0x54
 8004bbe:	81a3      	strhlt	r3, [r4, #12]
 8004bc0:	bd10      	pop	{r4, pc}

08004bc2 <__swrite>:
 8004bc2:	e92d 41f0 	stmdb	sp!, {r4, r5, r6, r7, r8, lr}
 8004bc6:	461f      	mov	r7, r3
 8004bc8:	898b      	ldrh	r3, [r1, #12]
 8004bca:	4605      	mov	r5, r0
 8004bcc:	05db      	lsls	r3, r3, #23
 8004bce:	460c      	mov	r4, r1
 8004bd0:	4616      	mov	r6, r2
 8004bd2:	d505      	bpl.n	8004be0 <__swrite+0x1e>
 8004bd4:	2302      	movs	r3, #2
 8004bd6:	2200      	movs	r2, #0
 8004bd8:	f9b1 100e 	ldrsh.w	r1, [r1, #14]
 8004bdc:	f000 f83c 	bl	8004c58 <_lseek_r>
 8004be0:	89a3      	ldrh	r3, [r4, #12]
 8004be2:	4632      	mov	r2, r6
 8004be4:	f423 5380 	bic.w	r3, r3, #4096	@ 0x1000
 8004be8:	81a3      	strh	r3, [r4, #12]
 8004bea:	4628      	mov	r0, r5
 8004bec:	463b      	mov	r3, r7
 8004bee:	f9b4 100e 	ldrsh.w	r1, [r4, #14]
 8004bf2:	e8bd 41f0 	ldmia.w	sp!, {r4, r5, r6, r7, r8, lr}
 8004bf6:	f000 b853 	b.w	8004ca0 <_write_r>

08004bfa <__sseek>:
 8004bfa:	b510      	push	{r4, lr}
 8004bfc:	460c      	mov	r4, r1
 8004bfe:	f9b1 100e 	ldrsh.w	r1, [r1, #14]
 8004c02:	f000 f829 	bl	8004c58 <_lseek_r>
 8004c06:	1c43      	adds	r3, r0, #1
 8004c08:	89a3      	ldrh	r3, [r4, #12]
 8004c0a:	bf15      	itete	ne
 8004c0c:	6560      	strne	r0, [r4, #84]	@ 0x54
 8004c0e:	f423 5380 	biceq.w	r3, r3, #4096	@ 0x1000
 8004c12:	f443 5380 	orrne.w	r3, r3, #4096	@ 0x1000
 8004c16:	81a3      	strheq	r3, [r4, #12]
 8004c18:	bf18      	it	ne
 8004c1a:	81a3      	strhne	r3, [r4, #12]
 8004c1c:	bd10      	pop	{r4, pc}

08004c1e <__sclose>:
 8004c1e:	f9b1 100e 	ldrsh.w	r1, [r1, #14]
 8004c22:	f000 b809 	b.w	8004c38 <_close_r>

08004c26 <memset>:
 8004c26:	4603      	mov	r3, r0
 8004c28:	4402      	add	r2, r0
 8004c2a:	4293      	cmp	r3, r2
 8004c2c:	d100      	bne.n	8004c30 <memset+0xa>
 8004c2e:	4770      	bx	lr
 8004c30:	f803 1b01 	strb.w	r1, [r3], #1
 8004c34:	e7f9      	b.n	8004c2a <memset+0x4>
	...

08004c38 <_close_r>:
 8004c38:	b538      	push	{r3, r4, r5, lr}
 8004c3a:	2300      	movs	r3, #0
 8004c3c:	4d05      	ldr	r5, [pc, #20]	@ (8004c54 <_close_r+0x1c>)
 8004c3e:	4604      	mov	r4, r0
 8004c40:	4608      	mov	r0, r1
 8004c42:	602b      	str	r3, [r5, #0]
 8004c44:	f7fb ffa5 	bl	8000b92 <_close>
 8004c48:	1c43      	adds	r3, r0, #1
 8004c4a:	d102      	bne.n	8004c52 <_close_r+0x1a>
 8004c4c:	682b      	ldr	r3, [r5, #0]
 8004c4e:	b103      	cbz	r3, 8004c52 <_close_r+0x1a>
 8004c50:	6023      	str	r3, [r4, #0]
 8004c52:	bd38      	pop	{r3, r4, r5, pc}
 8004c54:	200006b0 	.word	0x200006b0

08004c58 <_lseek_r>:
 8004c58:	b538      	push	{r3, r4, r5, lr}
 8004c5a:	4604      	mov	r4, r0
 8004c5c:	4608      	mov	r0, r1
 8004c5e:	4611      	mov	r1, r2
 8004c60:	2200      	movs	r2, #0
 8004c62:	4d05      	ldr	r5, [pc, #20]	@ (8004c78 <_lseek_r+0x20>)
 8004c64:	602a      	str	r2, [r5, #0]
 8004c66:	461a      	mov	r2, r3
 8004c68:	f7fb ffb7 	bl	8000bda <_lseek>
 8004c6c:	1c43      	adds	r3, r0, #1
 8004c6e:	d102      	bne.n	8004c76 <_lseek_r+0x1e>
 8004c70:	682b      	ldr	r3, [r5, #0]
 8004c72:	b103      	cbz	r3, 8004c76 <_lseek_r+0x1e>
 8004c74:	6023      	str	r3, [r4, #0]
 8004c76:	bd38      	pop	{r3, r4, r5, pc}
 8004c78:	200006b0 	.word	0x200006b0

08004c7c <_read_r>:
 8004c7c:	b538      	push	{r3, r4, r5, lr}
 8004c7e:	4604      	mov	r4, r0
 8004c80:	4608      	mov	r0, r1
 8004c82:	4611      	mov	r1, r2
 8004c84:	2200      	movs	r2, #0
 8004c86:	4d05      	ldr	r5, [pc, #20]	@ (8004c9c <_read_r+0x20>)
 8004c88:	602a      	str	r2, [r5, #0]
 8004c8a:	461a      	mov	r2, r3
 8004c8c:	f7fb ff48 	bl	8000b20 <_read>
 8004c90:	1c43      	adds	r3, r0, #1
 8004c92:	d102      	bne.n	8004c9a <_read_r+0x1e>
 8004c94:	682b      	ldr	r3, [r5, #0]
 8004c96:	b103      	cbz	r3, 8004c9a <_read_r+0x1e>
 8004c98:	6023      	str	r3, [r4, #0]
 8004c9a:	bd38      	pop	{r3, r4, r5, pc}
 8004c9c:	200006b0 	.word	0x200006b0

08004ca0 <_write_r>:
 8004ca0:	b538      	push	{r3, r4, r5, lr}
 8004ca2:	4604      	mov	r4, r0
 8004ca4:	4608      	mov	r0, r1
 8004ca6:	4611      	mov	r1, r2
 8004ca8:	2200      	movs	r2, #0
 8004caa:	4d05      	ldr	r5, [pc, #20]	@ (8004cc0 <_write_r+0x20>)
 8004cac:	602a      	str	r2, [r5, #0]
 8004cae:	461a      	mov	r2, r3
 8004cb0:	f7fb ff53 	bl	8000b5a <_write>
 8004cb4:	1c43      	adds	r3, r0, #1
 8004cb6:	d102      	bne.n	8004cbe <_write_r+0x1e>
 8004cb8:	682b      	ldr	r3, [r5, #0]
 8004cba:	b103      	cbz	r3, 8004cbe <_write_r+0x1e>
 8004cbc:	6023      	str	r3, [r4, #0]
 8004cbe:	bd38      	pop	{r3, r4, r5, pc}
 8004cc0:	200006b0 	.word	0x200006b0

08004cc4 <__errno>:
 8004cc4:	4b01      	ldr	r3, [pc, #4]	@ (8004ccc <__errno+0x8>)
 8004cc6:	6818      	ldr	r0, [r3, #0]
 8004cc8:	4770      	bx	lr
 8004cca:	bf00      	nop
 8004ccc:	20000030 	.word	0x20000030

08004cd0 <__libc_init_array>:
 8004cd0:	b570      	push	{r4, r5, r6, lr}
 8004cd2:	2600      	movs	r6, #0
 8004cd4:	4d0c      	ldr	r5, [pc, #48]	@ (8004d08 <__libc_init_array+0x38>)
 8004cd6:	4c0d      	ldr	r4, [pc, #52]	@ (8004d0c <__libc_init_array+0x3c>)
 8004cd8:	1b64      	subs	r4, r4, r5
 8004cda:	10a4      	asrs	r4, r4, #2
 8004cdc:	42a6      	cmp	r6, r4
 8004cde:	d109      	bne.n	8004cf4 <__libc_init_array+0x24>
 8004ce0:	f000 ff7a 	bl	8005bd8 <_init>
 8004ce4:	2600      	movs	r6, #0
 8004ce6:	4d0a      	ldr	r5, [pc, #40]	@ (8004d10 <__libc_init_array+0x40>)
 8004ce8:	4c0a      	ldr	r4, [pc, #40]	@ (8004d14 <__libc_init_array+0x44>)
 8004cea:	1b64      	subs	r4, r4, r5
 8004cec:	10a4      	asrs	r4, r4, #2
 8004cee:	42a6      	cmp	r6, r4
 8004cf0:	d105      	bne.n	8004cfe <__libc_init_array+0x2e>
 8004cf2:	bd70      	pop	{r4, r5, r6, pc}
 8004cf4:	f855 3b04 	ldr.w	r3, [r5], #4
 8004cf8:	4798      	blx	r3
 8004cfa:	3601      	adds	r6, #1
 8004cfc:	e7ee      	b.n	8004cdc <__libc_init_array+0xc>
 8004cfe:	f855 3b04 	ldr.w	r3, [r5], #4
 8004d02:	4798      	blx	r3
 8004d04:	3601      	adds	r6, #1
 8004d06:	e7f2      	b.n	8004cee <__libc_init_array+0x1e>
 8004d08:	080074b8 	.word	0x080074b8
 8004d0c:	080074b8 	.word	0x080074b8
 8004d10:	080074b8 	.word	0x080074b8
 8004d14:	080074bc 	.word	0x080074bc

08004d18 <__retarget_lock_init_recursive>:
 8004d18:	4770      	bx	lr

08004d1a <__retarget_lock_acquire_recursive>:
 8004d1a:	4770      	bx	lr

08004d1c <__retarget_lock_release_recursive>:
 8004d1c:	4770      	bx	lr
	...

08004d20 <_free_r>:
 8004d20:	b538      	push	{r3, r4, r5, lr}
 8004d22:	4605      	mov	r5, r0
 8004d24:	2900      	cmp	r1, #0
 8004d26:	d040      	beq.n	8004daa <_free_r+0x8a>
 8004d28:	f851 3c04 	ldr.w	r3, [r1, #-4]
 8004d2c:	1f0c      	subs	r4, r1, #4
 8004d2e:	2b00      	cmp	r3, #0
 8004d30:	bfb8      	it	lt
 8004d32:	18e4      	addlt	r4, r4, r3
 8004d34:	f000 f8de 	bl	8004ef4 <__malloc_lock>
 8004d38:	4a1c      	ldr	r2, [pc, #112]	@ (8004dac <_free_r+0x8c>)
 8004d3a:	6813      	ldr	r3, [r2, #0]
 8004d3c:	b933      	cbnz	r3, 8004d4c <_free_r+0x2c>
 8004d3e:	6063      	str	r3, [r4, #4]
 8004d40:	6014      	str	r4, [r2, #0]
 8004d42:	4628      	mov	r0, r5
 8004d44:	e8bd 4038 	ldmia.w	sp!, {r3, r4, r5, lr}
 8004d48:	f000 b8da 	b.w	8004f00 <__malloc_unlock>
 8004d4c:	42a3      	cmp	r3, r4
 8004d4e:	d908      	bls.n	8004d62 <_free_r+0x42>
 8004d50:	6820      	ldr	r0, [r4, #0]
 8004d52:	1821      	adds	r1, r4, r0
 8004d54:	428b      	cmp	r3, r1
 8004d56:	bf01      	itttt	eq
 8004d58:	6819      	ldreq	r1, [r3, #0]
 8004d5a:	685b      	ldreq	r3, [r3, #4]
 8004d5c:	1809      	addeq	r1, r1, r0
 8004d5e:	6021      	streq	r1, [r4, #0]
 8004d60:	e7ed      	b.n	8004d3e <_free_r+0x1e>
 8004d62:	461a      	mov	r2, r3
 8004d64:	685b      	ldr	r3, [r3, #4]
 8004d66:	b10b      	cbz	r3, 8004d6c <_free_r+0x4c>
 8004d68:	42a3      	cmp	r3, r4
 8004d6a:	d9fa      	bls.n	8004d62 <_free_r+0x42>
 8004d6c:	6811      	ldr	r1, [r2, #0]
 8004d6e:	1850      	adds	r0, r2, r1
 8004d70:	42a0      	cmp	r0, r4
 8004d72:	d10b      	bne.n	8004d8c <_free_r+0x6c>
 8004d74:	6820      	ldr	r0, [r4, #0]
 8004d76:	4401      	add	r1, r0
 8004d78:	1850      	adds	r0, r2, r1
 8004d7a:	4283      	cmp	r3, r0
 8004d7c:	6011      	str	r1, [r2, #0]
 8004d7e:	d1e0      	bne.n	8004d42 <_free_r+0x22>
 8004d80:	6818      	ldr	r0, [r3, #0]
 8004d82:	685b      	ldr	r3, [r3, #4]
 8004d84:	4408      	add	r0, r1
 8004d86:	6010      	str	r0, [r2, #0]
 8004d88:	6053      	str	r3, [r2, #4]
 8004d8a:	e7da      	b.n	8004d42 <_free_r+0x22>
 8004d8c:	d902      	bls.n	8004d94 <_free_r+0x74>
 8004d8e:	230c      	movs	r3, #12
 8004d90:	602b      	str	r3, [r5, #0]
 8004d92:	e7d6      	b.n	8004d42 <_free_r+0x22>
 8004d94:	6820      	ldr	r0, [r4, #0]
 8004d96:	1821      	adds	r1, r4, r0
 8004d98:	428b      	cmp	r3, r1
 8004d9a:	bf01      	itttt	eq
 8004d9c:	6819      	ldreq	r1, [r3, #0]
 8004d9e:	685b      	ldreq	r3, [r3, #4]
 8004da0:	1809      	addeq	r1, r1, r0
 8004da2:	6021      	streq	r1, [r4, #0]
 8004da4:	6063      	str	r3, [r4, #4]
 8004da6:	6054      	str	r4, [r2, #4]
 8004da8:	e7cb      	b.n	8004d42 <_free_r+0x22>
 8004daa:	bd38      	pop	{r3, r4, r5, pc}
 8004dac:	200006bc 	.word	0x200006bc

08004db0 <sbrk_aligned>:
 8004db0:	b570      	push	{r4, r5, r6, lr}
 8004db2:	4e0f      	ldr	r6, [pc, #60]	@ (8004df0 <sbrk_aligned+0x40>)
 8004db4:	460c      	mov	r4, r1
 8004db6:	6831      	ldr	r1, [r6, #0]
 8004db8:	4605      	mov	r5, r0
 8004dba:	b911      	cbnz	r1, 8004dc2 <sbrk_aligned+0x12>
 8004dbc:	f000 fe26 	bl	8005a0c <_sbrk_r>
 8004dc0:	6030      	str	r0, [r6, #0]
 8004dc2:	4621      	mov	r1, r4
 8004dc4:	4628      	mov	r0, r5
 8004dc6:	f000 fe21 	bl	8005a0c <_sbrk_r>
 8004dca:	1c43      	adds	r3, r0, #1
 8004dcc:	d103      	bne.n	8004dd6 <sbrk_aligned+0x26>
 8004dce:	f04f 34ff 	mov.w	r4, #4294967295
 8004dd2:	4620      	mov	r0, r4
 8004dd4:	bd70      	pop	{r4, r5, r6, pc}
 8004dd6:	1cc4      	adds	r4, r0, #3
 8004dd8:	f024 0403 	bic.w	r4, r4, #3
 8004ddc:	42a0      	cmp	r0, r4
 8004dde:	d0f8      	beq.n	8004dd2 <sbrk_aligned+0x22>
 8004de0:	1a21      	subs	r1, r4, r0
 8004de2:	4628      	mov	r0, r5
 8004de4:	f000 fe12 	bl	8005a0c <_sbrk_r>
 8004de8:	3001      	adds	r0, #1
 8004dea:	d1f2      	bne.n	8004dd2 <sbrk_aligned+0x22>
 8004dec:	e7ef      	b.n	8004dce <sbrk_aligned+0x1e>
 8004dee:	bf00      	nop
 8004df0:	200006b8 	.word	0x200006b8

08004df4 <_malloc_r>:
 8004df4:	e92d 43f8 	stmdb	sp!, {r3, r4, r5, r6, r7, r8, r9, lr}
 8004df8:	1ccd      	adds	r5, r1, #3
 8004dfa:	f025 0503 	bic.w	r5, r5, #3
 8004dfe:	3508      	adds	r5, #8
 8004e00:	2d0c      	cmp	r5, #12
 8004e02:	bf38      	it	cc
 8004e04:	250c      	movcc	r5, #12
 8004e06:	2d00      	cmp	r5, #0
 8004e08:	4606      	mov	r6, r0
 8004e0a:	db01      	blt.n	8004e10 <_malloc_r+0x1c>
 8004e0c:	42a9      	cmp	r1, r5
 8004e0e:	d904      	bls.n	8004e1a <_malloc_r+0x26>
 8004e10:	230c      	movs	r3, #12
 8004e12:	6033      	str	r3, [r6, #0]
 8004e14:	2000      	movs	r0, #0
 8004e16:	e8bd 83f8 	ldmia.w	sp!, {r3, r4, r5, r6, r7, r8, r9, pc}
 8004e1a:	f8df 80d4 	ldr.w	r8, [pc, #212]	@ 8004ef0 <_malloc_r+0xfc>
 8004e1e:	f000 f869 	bl	8004ef4 <__malloc_lock>
 8004e22:	f8d8 3000 	ldr.w	r3, [r8]
 8004e26:	461c      	mov	r4, r3
 8004e28:	bb44      	cbnz	r4, 8004e7c <_malloc_r+0x88>
 8004e2a:	4629      	mov	r1, r5
 8004e2c:	4630      	mov	r0, r6
 8004e2e:	f7ff ffbf 	bl	8004db0 <sbrk_aligned>
 8004e32:	1c43      	adds	r3, r0, #1
 8004e34:	4604      	mov	r4, r0
 8004e36:	d158      	bne.n	8004eea <_malloc_r+0xf6>
 8004e38:	f8d8 4000 	ldr.w	r4, [r8]
 8004e3c:	4627      	mov	r7, r4
 8004e3e:	2f00      	cmp	r7, #0
 8004e40:	d143      	bne.n	8004eca <_malloc_r+0xd6>
 8004e42:	2c00      	cmp	r4, #0
 8004e44:	d04b      	beq.n	8004ede <_malloc_r+0xea>
 8004e46:	6823      	ldr	r3, [r4, #0]
 8004e48:	4639      	mov	r1, r7
 8004e4a:	4630      	mov	r0, r6
 8004e4c:	eb04 0903 	add.w	r9, r4, r3
 8004e50:	f000 fddc 	bl	8005a0c <_sbrk_r>
 8004e54:	4581      	cmp	r9, r0
 8004e56:	d142      	bne.n	8004ede <_malloc_r+0xea>
 8004e58:	6821      	ldr	r1, [r4, #0]
 8004e5a:	4630      	mov	r0, r6
 8004e5c:	1a6d      	subs	r5, r5, r1
 8004e5e:	4629      	mov	r1, r5
 8004e60:	f7ff ffa6 	bl	8004db0 <sbrk_aligned>
 8004e64:	3001      	adds	r0, #1
 8004e66:	d03a      	beq.n	8004ede <_malloc_r+0xea>
 8004e68:	6823      	ldr	r3, [r4, #0]
 8004e6a:	442b      	add	r3, r5
 8004e6c:	6023      	str	r3, [r4, #0]
 8004e6e:	f8d8 3000 	ldr.w	r3, [r8]
 8004e72:	685a      	ldr	r2, [r3, #4]
 8004e74:	bb62      	cbnz	r2, 8004ed0 <_malloc_r+0xdc>
 8004e76:	f8c8 7000 	str.w	r7, [r8]
 8004e7a:	e00f      	b.n	8004e9c <_malloc_r+0xa8>
 8004e7c:	6822      	ldr	r2, [r4, #0]
 8004e7e:	1b52      	subs	r2, r2, r5
 8004e80:	d420      	bmi.n	8004ec4 <_malloc_r+0xd0>
 8004e82:	2a0b      	cmp	r2, #11
 8004e84:	d917      	bls.n	8004eb6 <_malloc_r+0xc2>
 8004e86:	1961      	adds	r1, r4, r5
 8004e88:	42a3      	cmp	r3, r4
 8004e8a:	6025      	str	r5, [r4, #0]
 8004e8c:	bf18      	it	ne
 8004e8e:	6059      	strne	r1, [r3, #4]
 8004e90:	6863      	ldr	r3, [r4, #4]
 8004e92:	bf08      	it	eq
 8004e94:	f8c8 1000 	streq.w	r1, [r8]
 8004e98:	5162      	str	r2, [r4, r5]
 8004e9a:	604b      	str	r3, [r1, #4]
 8004e9c:	4630      	mov	r0, r6
 8004e9e:	f000 f82f 	bl	8004f00 <__malloc_unlock>
 8004ea2:	f104 000b 	add.w	r0, r4, #11
 8004ea6:	1d23      	adds	r3, r4, #4
 8004ea8:	f020 0007 	bic.w	r0, r0, #7
 8004eac:	1ac2      	subs	r2, r0, r3
 8004eae:	bf1c      	itt	ne
 8004eb0:	1a1b      	subne	r3, r3, r0
 8004eb2:	50a3      	strne	r3, [r4, r2]
 8004eb4:	e7af      	b.n	8004e16 <_malloc_r+0x22>
 8004eb6:	6862      	ldr	r2, [r4, #4]
 8004eb8:	42a3      	cmp	r3, r4
 8004eba:	bf0c      	ite	eq
 8004ebc:	f8c8 2000 	streq.w	r2, [r8]
 8004ec0:	605a      	strne	r2, [r3, #4]
 8004ec2:	e7eb      	b.n	8004e9c <_malloc_r+0xa8>
 8004ec4:	4623      	mov	r3, r4
 8004ec6:	6864      	ldr	r4, [r4, #4]
 8004ec8:	e7ae      	b.n	8004e28 <_malloc_r+0x34>
 8004eca:	463c      	mov	r4, r7
 8004ecc:	687f      	ldr	r7, [r7, #4]
 8004ece:	e7b6      	b.n	8004e3e <_malloc_r+0x4a>
 8004ed0:	461a      	mov	r2, r3
 8004ed2:	685b      	ldr	r3, [r3, #4]
 8004ed4:	42a3      	cmp	r3, r4
 8004ed6:	d1fb      	bne.n	8004ed0 <_malloc_r+0xdc>
 8004ed8:	2300      	movs	r3, #0
 8004eda:	6053      	str	r3, [r2, #4]
 8004edc:	e7de      	b.n	8004e9c <_malloc_r+0xa8>
 8004ede:	230c      	movs	r3, #12
 8004ee0:	4630      	mov	r0, r6
 8004ee2:	6033      	str	r3, [r6, #0]
 8004ee4:	f000 f80c 	bl	8004f00 <__malloc_unlock>
 8004ee8:	e794      	b.n	8004e14 <_malloc_r+0x20>
 8004eea:	6005      	str	r5, [r0, #0]
 8004eec:	e7d6      	b.n	8004e9c <_malloc_r+0xa8>
 8004eee:	bf00      	nop
 8004ef0:	200006bc 	.word	0x200006bc

08004ef4 <__malloc_lock>:
 8004ef4:	4801      	ldr	r0, [pc, #4]	@ (8004efc <__malloc_lock+0x8>)
 8004ef6:	f7ff bf10 	b.w	8004d1a <__retarget_lock_acquire_recursive>
 8004efa:	bf00      	nop
 8004efc:	200006b4 	.word	0x200006b4

08004f00 <__malloc_unlock>:
 8004f00:	4801      	ldr	r0, [pc, #4]	@ (8004f08 <__malloc_unlock+0x8>)
 8004f02:	f7ff bf0b 	b.w	8004d1c <__retarget_lock_release_recursive>
 8004f06:	bf00      	nop
 8004f08:	200006b4 	.word	0x200006b4

08004f0c <__ssputs_r>:
 8004f0c:	e92d 47f0 	stmdb	sp!, {r4, r5, r6, r7, r8, r9, sl, lr}
 8004f10:	461f      	mov	r7, r3
 8004f12:	688e      	ldr	r6, [r1, #8]
 8004f14:	4682      	mov	sl, r0
 8004f16:	42be      	cmp	r6, r7
 8004f18:	460c      	mov	r4, r1
 8004f1a:	4690      	mov	r8, r2
 8004f1c:	680b      	ldr	r3, [r1, #0]
 8004f1e:	d82d      	bhi.n	8004f7c <__ssputs_r+0x70>
 8004f20:	f9b1 200c 	ldrsh.w	r2, [r1, #12]
 8004f24:	f412 6f90 	tst.w	r2, #1152	@ 0x480
 8004f28:	d026      	beq.n	8004f78 <__ssputs_r+0x6c>
 8004f2a:	6965      	ldr	r5, [r4, #20]
 8004f2c:	6909      	ldr	r1, [r1, #16]
 8004f2e:	eb05 0545 	add.w	r5, r5, r5, lsl #1
 8004f32:	eba3 0901 	sub.w	r9, r3, r1
 8004f36:	eb05 75d5 	add.w	r5, r5, r5, lsr #31
 8004f3a:	1c7b      	adds	r3, r7, #1
 8004f3c:	444b      	add	r3, r9
 8004f3e:	106d      	asrs	r5, r5, #1
 8004f40:	429d      	cmp	r5, r3
 8004f42:	bf38      	it	cc
 8004f44:	461d      	movcc	r5, r3
 8004f46:	0553      	lsls	r3, r2, #21
 8004f48:	d527      	bpl.n	8004f9a <__ssputs_r+0x8e>
 8004f4a:	4629      	mov	r1, r5
 8004f4c:	f7ff ff52 	bl	8004df4 <_malloc_r>
 8004f50:	4606      	mov	r6, r0
 8004f52:	b360      	cbz	r0, 8004fae <__ssputs_r+0xa2>
 8004f54:	464a      	mov	r2, r9
 8004f56:	6921      	ldr	r1, [r4, #16]
 8004f58:	f000 fd76 	bl	8005a48 <memcpy>
 8004f5c:	89a3      	ldrh	r3, [r4, #12]
 8004f5e:	f423 6390 	bic.w	r3, r3, #1152	@ 0x480
 8004f62:	f043 0380 	orr.w	r3, r3, #128	@ 0x80
 8004f66:	81a3      	strh	r3, [r4, #12]
 8004f68:	6126      	str	r6, [r4, #16]
 8004f6a:	444e      	add	r6, r9
 8004f6c:	6026      	str	r6, [r4, #0]
 8004f6e:	463e      	mov	r6, r7
 8004f70:	6165      	str	r5, [r4, #20]
 8004f72:	eba5 0509 	sub.w	r5, r5, r9
 8004f76:	60a5      	str	r5, [r4, #8]
 8004f78:	42be      	cmp	r6, r7
 8004f7a:	d900      	bls.n	8004f7e <__ssputs_r+0x72>
 8004f7c:	463e      	mov	r6, r7
 8004f7e:	4632      	mov	r2, r6
 8004f80:	4641      	mov	r1, r8
 8004f82:	6820      	ldr	r0, [r4, #0]
 8004f84:	f000 fd28 	bl	80059d8 <memmove>
 8004f88:	2000      	movs	r0, #0
 8004f8a:	68a3      	ldr	r3, [r4, #8]
 8004f8c:	1b9b      	subs	r3, r3, r6
 8004f8e:	60a3      	str	r3, [r4, #8]
 8004f90:	6823      	ldr	r3, [r4, #0]
 8004f92:	4433      	add	r3, r6
 8004f94:	6023      	str	r3, [r4, #0]
 8004f96:	e8bd 87f0 	ldmia.w	sp!, {r4, r5, r6, r7, r8, r9, sl, pc}
 8004f9a:	462a      	mov	r2, r5
 8004f9c:	f000 fd62 	bl	8005a64 <_realloc_r>
 8004fa0:	4606      	mov	r6, r0
 8004fa2:	2800      	cmp	r0, #0
 8004fa4:	d1e0      	bne.n	8004f68 <__ssputs_r+0x5c>
 8004fa6:	4650      	mov	r0, sl
 8004fa8:	6921      	ldr	r1, [r4, #16]
 8004faa:	f7ff feb9 	bl	8004d20 <_free_r>
 8004fae:	230c      	movs	r3, #12
 8004fb0:	f8ca 3000 	str.w	r3, [sl]
 8004fb4:	89a3      	ldrh	r3, [r4, #12]
 8004fb6:	f04f 30ff 	mov.w	r0, #4294967295
 8004fba:	f043 0340 	orr.w	r3, r3, #64	@ 0x40
 8004fbe:	81a3      	strh	r3, [r4, #12]
 8004fc0:	e7e9      	b.n	8004f96 <__ssputs_r+0x8a>
	...

08004fc4 <_svfiprintf_r>:
 8004fc4:	e92d 4ff0 	stmdb	sp!, {r4, r5, r6, r7, r8, r9, sl, fp, lr}
 8004fc8:	4698      	mov	r8, r3
 8004fca:	898b      	ldrh	r3, [r1, #12]
 8004fcc:	4607      	mov	r7, r0
 8004fce:	061b      	lsls	r3, r3, #24
 8004fd0:	460d      	mov	r5, r1
 8004fd2:	4614      	mov	r4, r2
 8004fd4:	b09d      	sub	sp, #116	@ 0x74
 8004fd6:	d510      	bpl.n	8004ffa <_svfiprintf_r+0x36>
 8004fd8:	690b      	ldr	r3, [r1, #16]
 8004fda:	b973      	cbnz	r3, 8004ffa <_svfiprintf_r+0x36>
 8004fdc:	2140      	movs	r1, #64	@ 0x40
 8004fde:	f7ff ff09 	bl	8004df4 <_malloc_r>
 8004fe2:	6028      	str	r0, [r5, #0]
 8004fe4:	6128      	str	r0, [r5, #16]
 8004fe6:	b930      	cbnz	r0, 8004ff6 <_svfiprintf_r+0x32>
 8004fe8:	230c      	movs	r3, #12
 8004fea:	603b      	str	r3, [r7, #0]
 8004fec:	f04f 30ff 	mov.w	r0, #4294967295
 8004ff0:	b01d      	add	sp, #116	@ 0x74
 8004ff2:	e8bd 8ff0 	ldmia.w	sp!, {r4, r5, r6, r7, r8, r9, sl, fp, pc}
 8004ff6:	2340      	movs	r3, #64	@ 0x40
 8004ff8:	616b      	str	r3, [r5, #20]
 8004ffa:	2300      	movs	r3, #0
 8004ffc:	9309      	str	r3, [sp, #36]	@ 0x24
 8004ffe:	2320      	movs	r3, #32
 8005000:	f88d 3029 	strb.w	r3, [sp, #41]	@ 0x29
 8005004:	2330      	movs	r3, #48	@ 0x30
 8005006:	f04f 0901 	mov.w	r9, #1
 800500a:	f8cd 800c 	str.w	r8, [sp, #12]
 800500e:	f8df 8198 	ldr.w	r8, [pc, #408]	@ 80051a8 <_svfiprintf_r+0x1e4>
 8005012:	f88d 302a 	strb.w	r3, [sp, #42]	@ 0x2a
 8005016:	4623      	mov	r3, r4
 8005018:	469a      	mov	sl, r3
 800501a:	f813 2b01 	ldrb.w	r2, [r3], #1
 800501e:	b10a      	cbz	r2, 8005024 <_svfiprintf_r+0x60>
 8005020:	2a25      	cmp	r2, #37	@ 0x25
 8005022:	d1f9      	bne.n	8005018 <_svfiprintf_r+0x54>
 8005024:	ebba 0b04 	subs.w	fp, sl, r4
 8005028:	d00b      	beq.n	8005042 <_svfiprintf_r+0x7e>
 800502a:	465b      	mov	r3, fp
 800502c:	4622      	mov	r2, r4
 800502e:	4629      	mov	r1, r5
 8005030:	4638      	mov	r0, r7
 8005032:	f7ff ff6b 	bl	8004f0c <__ssputs_r>
 8005036:	3001      	adds	r0, #1
 8005038:	f000 80a7 	beq.w	800518a <_svfiprintf_r+0x1c6>
 800503c:	9a09      	ldr	r2, [sp, #36]	@ 0x24
 800503e:	445a      	add	r2, fp
 8005040:	9209      	str	r2, [sp, #36]	@ 0x24
 8005042:	f89a 3000 	ldrb.w	r3, [sl]
 8005046:	2b00      	cmp	r3, #0
 8005048:	f000 809f 	beq.w	800518a <_svfiprintf_r+0x1c6>
 800504c:	2300      	movs	r3, #0
 800504e:	f04f 32ff 	mov.w	r2, #4294967295
 8005052:	e9cd 2305 	strd	r2, r3, [sp, #20]
 8005056:	f10a 0a01 	add.w	sl, sl, #1
 800505a:	9304      	str	r3, [sp, #16]
 800505c:	9307      	str	r3, [sp, #28]
 800505e:	f88d 3053 	strb.w	r3, [sp, #83]	@ 0x53
 8005062:	931a      	str	r3, [sp, #104]	@ 0x68
 8005064:	4654      	mov	r4, sl
 8005066:	2205      	movs	r2, #5
 8005068:	f814 1b01 	ldrb.w	r1, [r4], #1
 800506c:	484e      	ldr	r0, [pc, #312]	@ (80051a8 <_svfiprintf_r+0x1e4>)
 800506e:	f000 fcdd 	bl	8005a2c <memchr>
 8005072:	9a04      	ldr	r2, [sp, #16]
 8005074:	b9d8      	cbnz	r0, 80050ae <_svfiprintf_r+0xea>
 8005076:	06d0      	lsls	r0, r2, #27
 8005078:	bf44      	itt	mi
 800507a:	2320      	movmi	r3, #32
 800507c:	f88d 3053 	strbmi.w	r3, [sp, #83]	@ 0x53
 8005080:	0711      	lsls	r1, r2, #28
 8005082:	bf44      	itt	mi
 8005084:	232b      	movmi	r3, #43	@ 0x2b
 8005086:	f88d 3053 	strbmi.w	r3, [sp, #83]	@ 0x53
 800508a:	f89a 3000 	ldrb.w	r3, [sl]
 800508e:	2b2a      	cmp	r3, #42	@ 0x2a
 8005090:	d015      	beq.n	80050be <_svfiprintf_r+0xfa>
 8005092:	4654      	mov	r4, sl
 8005094:	2000      	movs	r0, #0
 8005096:	f04f 0c0a 	mov.w	ip, #10
 800509a:	9a07      	ldr	r2, [sp, #28]
 800509c:	4621      	mov	r1, r4
 800509e:	f811 3b01 	ldrb.w	r3, [r1], #1
 80050a2:	3b30      	subs	r3, #48	@ 0x30
 80050a4:	2b09      	cmp	r3, #9
 80050a6:	d94b      	bls.n	8005140 <_svfiprintf_r+0x17c>
 80050a8:	b1b0      	cbz	r0, 80050d8 <_svfiprintf_r+0x114>
 80050aa:	9207      	str	r2, [sp, #28]
 80050ac:	e014      	b.n	80050d8 <_svfiprintf_r+0x114>
 80050ae:	eba0 0308 	sub.w	r3, r0, r8
 80050b2:	fa09 f303 	lsl.w	r3, r9, r3
 80050b6:	4313      	orrs	r3, r2
 80050b8:	46a2      	mov	sl, r4
 80050ba:	9304      	str	r3, [sp, #16]
 80050bc:	e7d2      	b.n	8005064 <_svfiprintf_r+0xa0>
 80050be:	9b03      	ldr	r3, [sp, #12]
 80050c0:	1d19      	adds	r1, r3, #4
 80050c2:	681b      	ldr	r3, [r3, #0]
 80050c4:	9103      	str	r1, [sp, #12]
 80050c6:	2b00      	cmp	r3, #0
 80050c8:	bfbb      	ittet	lt
 80050ca:	425b      	neglt	r3, r3
 80050cc:	f042 0202 	orrlt.w	r2, r2, #2
 80050d0:	9307      	strge	r3, [sp, #28]
 80050d2:	9307      	strlt	r3, [sp, #28]
 80050d4:	bfb8      	it	lt
 80050d6:	9204      	strlt	r2, [sp, #16]
 80050d8:	7823      	ldrb	r3, [r4, #0]
 80050da:	2b2e      	cmp	r3, #46	@ 0x2e
 80050dc:	d10a      	bne.n	80050f4 <_svfiprintf_r+0x130>
 80050de:	7863      	ldrb	r3, [r4, #1]
 80050e0:	2b2a      	cmp	r3, #42	@ 0x2a
 80050e2:	d132      	bne.n	800514a <_svfiprintf_r+0x186>
 80050e4:	9b03      	ldr	r3, [sp, #12]
 80050e6:	3402      	adds	r4, #2
 80050e8:	1d1a      	adds	r2, r3, #4
 80050ea:	681b      	ldr	r3, [r3, #0]
 80050ec:	9203      	str	r2, [sp, #12]
 80050ee:	ea43 73e3 	orr.w	r3, r3, r3, asr #31
 80050f2:	9305      	str	r3, [sp, #20]
 80050f4:	f8df a0b4 	ldr.w	sl, [pc, #180]	@ 80051ac <_svfiprintf_r+0x1e8>
 80050f8:	2203      	movs	r2, #3
 80050fa:	4650      	mov	r0, sl
 80050fc:	7821      	ldrb	r1, [r4, #0]
 80050fe:	f000 fc95 	bl	8005a2c <memchr>
 8005102:	b138      	cbz	r0, 8005114 <_svfiprintf_r+0x150>
 8005104:	2240      	movs	r2, #64	@ 0x40
 8005106:	9b04      	ldr	r3, [sp, #16]
 8005108:	eba0 000a 	sub.w	r0, r0, sl
 800510c:	4082      	lsls	r2, r0
 800510e:	4313      	orrs	r3, r2
 8005110:	3401      	adds	r4, #1
 8005112:	9304      	str	r3, [sp, #16]
 8005114:	f814 1b01 	ldrb.w	r1, [r4], #1
 8005118:	2206      	movs	r2, #6
 800511a:	4825      	ldr	r0, [pc, #148]	@ (80051b0 <_svfiprintf_r+0x1ec>)
 800511c:	f88d 1028 	strb.w	r1, [sp, #40]	@ 0x28
 8005120:	f000 fc84 	bl	8005a2c <memchr>
 8005124:	2800      	cmp	r0, #0
 8005126:	d036      	beq.n	8005196 <_svfiprintf_r+0x1d2>
 8005128:	4b22      	ldr	r3, [pc, #136]	@ (80051b4 <_svfiprintf_r+0x1f0>)
 800512a:	bb1b      	cbnz	r3, 8005174 <_svfiprintf_r+0x1b0>
 800512c:	9b03      	ldr	r3, [sp, #12]
 800512e:	3307      	adds	r3, #7
 8005130:	f023 0307 	bic.w	r3, r3, #7
 8005134:	3308      	adds	r3, #8
 8005136:	9303      	str	r3, [sp, #12]
 8005138:	9b09      	ldr	r3, [sp, #36]	@ 0x24
 800513a:	4433      	add	r3, r6
 800513c:	9309      	str	r3, [sp, #36]	@ 0x24
 800513e:	e76a      	b.n	8005016 <_svfiprintf_r+0x52>
 8005140:	460c      	mov	r4, r1
 8005142:	2001      	movs	r0, #1
 8005144:	fb0c 3202 	mla	r2, ip, r2, r3
 8005148:	e7a8      	b.n	800509c <_svfiprintf_r+0xd8>
 800514a:	2300      	movs	r3, #0
 800514c:	f04f 0c0a 	mov.w	ip, #10
 8005150:	4619      	mov	r1, r3
 8005152:	3401      	adds	r4, #1
 8005154:	9305      	str	r3, [sp, #20]
 8005156:	4620      	mov	r0, r4
 8005158:	f810 2b01 	ldrb.w	r2, [r0], #1
 800515c:	3a30      	subs	r2, #48	@ 0x30
 800515e:	2a09      	cmp	r2, #9
 8005160:	d903      	bls.n	800516a <_svfiprintf_r+0x1a6>
 8005162:	2b00      	cmp	r3, #0
 8005164:	d0c6      	beq.n	80050f4 <_svfiprintf_r+0x130>
 8005166:	9105      	str	r1, [sp, #20]
 8005168:	e7c4      	b.n	80050f4 <_svfiprintf_r+0x130>
 800516a:	4604      	mov	r4, r0
 800516c:	2301      	movs	r3, #1
 800516e:	fb0c 2101 	mla	r1, ip, r1, r2
 8005172:	e7f0      	b.n	8005156 <_svfiprintf_r+0x192>
 8005174:	ab03      	add	r3, sp, #12
 8005176:	9300      	str	r3, [sp, #0]
 8005178:	462a      	mov	r2, r5
 800517a:	4638      	mov	r0, r7
 800517c:	4b0e      	ldr	r3, [pc, #56]	@ (80051b8 <_svfiprintf_r+0x1f4>)
 800517e:	a904      	add	r1, sp, #16
 8005180:	f3af 8000 	nop.w
 8005184:	1c42      	adds	r2, r0, #1
 8005186:	4606      	mov	r6, r0
 8005188:	d1d6      	bne.n	8005138 <_svfiprintf_r+0x174>
 800518a:	89ab      	ldrh	r3, [r5, #12]
 800518c:	065b      	lsls	r3, r3, #25
 800518e:	f53f af2d 	bmi.w	8004fec <_svfiprintf_r+0x28>
 8005192:	9809      	ldr	r0, [sp, #36]	@ 0x24
 8005194:	e72c      	b.n	8004ff0 <_svfiprintf_r+0x2c>
 8005196:	ab03      	add	r3, sp, #12
 8005198:	9300      	str	r3, [sp, #0]
 800519a:	462a      	mov	r2, r5
 800519c:	4638      	mov	r0, r7
 800519e:	4b06      	ldr	r3, [pc, #24]	@ (80051b8 <_svfiprintf_r+0x1f4>)
 80051a0:	a904      	add	r1, sp, #16
 80051a2:	f000 f9bd 	bl	8005520 <_printf_i>
 80051a6:	e7ed      	b.n	8005184 <_svfiprintf_r+0x1c0>
 80051a8:	08007482 	.word	0x08007482
 80051ac:	08007488 	.word	0x08007488
 80051b0:	0800748c 	.word	0x0800748c
 80051b4:	00000000 	.word	0x00000000
 80051b8:	08004f0d 	.word	0x08004f0d

080051bc <__sfputc_r>:
 80051bc:	6893      	ldr	r3, [r2, #8]
 80051be:	b410      	push	{r4}
 80051c0:	3b01      	subs	r3, #1
 80051c2:	2b00      	cmp	r3, #0
 80051c4:	6093      	str	r3, [r2, #8]
 80051c6:	da07      	bge.n	80051d8 <__sfputc_r+0x1c>
 80051c8:	6994      	ldr	r4, [r2, #24]
 80051ca:	42a3      	cmp	r3, r4
 80051cc:	db01      	blt.n	80051d2 <__sfputc_r+0x16>
 80051ce:	290a      	cmp	r1, #10
 80051d0:	d102      	bne.n	80051d8 <__sfputc_r+0x1c>
 80051d2:	bc10      	pop	{r4}
 80051d4:	f000 bb6c 	b.w	80058b0 <__swbuf_r>
 80051d8:	6813      	ldr	r3, [r2, #0]
 80051da:	1c58      	adds	r0, r3, #1
 80051dc:	6010      	str	r0, [r2, #0]
 80051de:	7019      	strb	r1, [r3, #0]
 80051e0:	4608      	mov	r0, r1
 80051e2:	bc10      	pop	{r4}
 80051e4:	4770      	bx	lr

080051e6 <__sfputs_r>:
 80051e6:	b5f8      	push	{r3, r4, r5, r6, r7, lr}
 80051e8:	4606      	mov	r6, r0
 80051ea:	460f      	mov	r7, r1
 80051ec:	4614      	mov	r4, r2
 80051ee:	18d5      	adds	r5, r2, r3
 80051f0:	42ac      	cmp	r4, r5
 80051f2:	d101      	bne.n	80051f8 <__sfputs_r+0x12>
 80051f4:	2000      	movs	r0, #0
 80051f6:	e007      	b.n	8005208 <__sfputs_r+0x22>
 80051f8:	463a      	mov	r2, r7
 80051fa:	4630      	mov	r0, r6
 80051fc:	f814 1b01 	ldrb.w	r1, [r4], #1
 8005200:	f7ff ffdc 	bl	80051bc <__sfputc_r>
 8005204:	1c43      	adds	r3, r0, #1
 8005206:	d1f3      	bne.n	80051f0 <__sfputs_r+0xa>
 8005208:	bdf8      	pop	{r3, r4, r5, r6, r7, pc}
	...

0800520c <_vfiprintf_r>:
 800520c:	e92d 4ff0 	stmdb	sp!, {r4, r5, r6, r7, r8, r9, sl, fp, lr}
 8005210:	460d      	mov	r5, r1
 8005212:	4614      	mov	r4, r2
 8005214:	4698      	mov	r8, r3
 8005216:	4606      	mov	r6, r0
 8005218:	b09d      	sub	sp, #116	@ 0x74
 800521a:	b118      	cbz	r0, 8005224 <_vfiprintf_r+0x18>
 800521c:	6a03      	ldr	r3, [r0, #32]
 800521e:	b90b      	cbnz	r3, 8005224 <_vfiprintf_r+0x18>
 8005220:	f7ff fc42 	bl	8004aa8 <__sinit>
 8005224:	6e6b      	ldr	r3, [r5, #100]	@ 0x64
 8005226:	07d9      	lsls	r1, r3, #31
 8005228:	d405      	bmi.n	8005236 <_vfiprintf_r+0x2a>
 800522a:	89ab      	ldrh	r3, [r5, #12]
 800522c:	059a      	lsls	r2, r3, #22
 800522e:	d402      	bmi.n	8005236 <_vfiprintf_r+0x2a>
 8005230:	6da8      	ldr	r0, [r5, #88]	@ 0x58
 8005232:	f7ff fd72 	bl	8004d1a <__retarget_lock_acquire_recursive>
 8005236:	89ab      	ldrh	r3, [r5, #12]
 8005238:	071b      	lsls	r3, r3, #28
 800523a:	d501      	bpl.n	8005240 <_vfiprintf_r+0x34>
 800523c:	692b      	ldr	r3, [r5, #16]
 800523e:	b99b      	cbnz	r3, 8005268 <_vfiprintf_r+0x5c>
 8005240:	4629      	mov	r1, r5
 8005242:	4630      	mov	r0, r6
 8005244:	f000 fb72 	bl	800592c <__swsetup_r>
 8005248:	b170      	cbz	r0, 8005268 <_vfiprintf_r+0x5c>
 800524a:	6e6b      	ldr	r3, [r5, #100]	@ 0x64
 800524c:	07dc      	lsls	r4, r3, #31
 800524e:	d504      	bpl.n	800525a <_vfiprintf_r+0x4e>
 8005250:	f04f 30ff 	mov.w	r0, #4294967295
 8005254:	b01d      	add	sp, #116	@ 0x74
 8005256:	e8bd 8ff0 	ldmia.w	sp!, {r4, r5, r6, r7, r8, r9, sl, fp, pc}
 800525a:	89ab      	ldrh	r3, [r5, #12]
 800525c:	0598      	lsls	r0, r3, #22
 800525e:	d4f7      	bmi.n	8005250 <_vfiprintf_r+0x44>
 8005260:	6da8      	ldr	r0, [r5, #88]	@ 0x58
 8005262:	f7ff fd5b 	bl	8004d1c <__retarget_lock_release_recursive>
 8005266:	e7f3      	b.n	8005250 <_vfiprintf_r+0x44>
 8005268:	2300      	movs	r3, #0
 800526a:	9309      	str	r3, [sp, #36]	@ 0x24
 800526c:	2320      	movs	r3, #32
 800526e:	f88d 3029 	strb.w	r3, [sp, #41]	@ 0x29
 8005272:	2330      	movs	r3, #48	@ 0x30
 8005274:	f04f 0901 	mov.w	r9, #1
 8005278:	f8cd 800c 	str.w	r8, [sp, #12]
 800527c:	f8df 81a8 	ldr.w	r8, [pc, #424]	@ 8005428 <_vfiprintf_r+0x21c>
 8005280:	f88d 302a 	strb.w	r3, [sp, #42]	@ 0x2a
 8005284:	4623      	mov	r3, r4
 8005286:	469a      	mov	sl, r3
 8005288:	f813 2b01 	ldrb.w	r2, [r3], #1
 800528c:	b10a      	cbz	r2, 8005292 <_vfiprintf_r+0x86>
 800528e:	2a25      	cmp	r2, #37	@ 0x25
 8005290:	d1f9      	bne.n	8005286 <_vfiprintf_r+0x7a>
 8005292:	ebba 0b04 	subs.w	fp, sl, r4
 8005296:	d00b      	beq.n	80052b0 <_vfiprintf_r+0xa4>
 8005298:	465b      	mov	r3, fp
 800529a:	4622      	mov	r2, r4
 800529c:	4629      	mov	r1, r5
 800529e:	4630      	mov	r0, r6
 80052a0:	f7ff ffa1 	bl	80051e6 <__sfputs_r>
 80052a4:	3001      	adds	r0, #1
 80052a6:	f000 80a7 	beq.w	80053f8 <_vfiprintf_r+0x1ec>
 80052aa:	9a09      	ldr	r2, [sp, #36]	@ 0x24
 80052ac:	445a      	add	r2, fp
 80052ae:	9209      	str	r2, [sp, #36]	@ 0x24
 80052b0:	f89a 3000 	ldrb.w	r3, [sl]
 80052b4:	2b00      	cmp	r3, #0
 80052b6:	f000 809f 	beq.w	80053f8 <_vfiprintf_r+0x1ec>
 80052ba:	2300      	movs	r3, #0
 80052bc:	f04f 32ff 	mov.w	r2, #4294967295
 80052c0:	e9cd 2305 	strd	r2, r3, [sp, #20]
 80052c4:	f10a 0a01 	add.w	sl, sl, #1
 80052c8:	9304      	str	r3, [sp, #16]
 80052ca:	9307      	str	r3, [sp, #28]
 80052cc:	f88d 3053 	strb.w	r3, [sp, #83]	@ 0x53
 80052d0:	931a      	str	r3, [sp, #104]	@ 0x68
 80052d2:	4654      	mov	r4, sl
 80052d4:	2205      	movs	r2, #5
 80052d6:	f814 1b01 	ldrb.w	r1, [r4], #1
 80052da:	4853      	ldr	r0, [pc, #332]	@ (8005428 <_vfiprintf_r+0x21c>)
 80052dc:	f000 fba6 	bl	8005a2c <memchr>
 80052e0:	9a04      	ldr	r2, [sp, #16]
 80052e2:	b9d8      	cbnz	r0, 800531c <_vfiprintf_r+0x110>
 80052e4:	06d1      	lsls	r1, r2, #27
 80052e6:	bf44      	itt	mi
 80052e8:	2320      	movmi	r3, #32
 80052ea:	f88d 3053 	strbmi.w	r3, [sp, #83]	@ 0x53
 80052ee:	0713      	lsls	r3, r2, #28
 80052f0:	bf44      	itt	mi
 80052f2:	232b      	movmi	r3, #43	@ 0x2b
 80052f4:	f88d 3053 	strbmi.w	r3, [sp, #83]	@ 0x53
 80052f8:	f89a 3000 	ldrb.w	r3, [sl]
 80052fc:	2b2a      	cmp	r3, #42	@ 0x2a
 80052fe:	d015      	beq.n	800532c <_vfiprintf_r+0x120>
 8005300:	4654      	mov	r4, sl
 8005302:	2000      	movs	r0, #0
 8005304:	f04f 0c0a 	mov.w	ip, #10
 8005308:	9a07      	ldr	r2, [sp, #28]
 800530a:	4621      	mov	r1, r4
 800530c:	f811 3b01 	ldrb.w	r3, [r1], #1
 8005310:	3b30      	subs	r3, #48	@ 0x30
 8005312:	2b09      	cmp	r3, #9
 8005314:	d94b      	bls.n	80053ae <_vfiprintf_r+0x1a2>
 8005316:	b1b0      	cbz	r0, 8005346 <_vfiprintf_r+0x13a>
 8005318:	9207      	str	r2, [sp, #28]
 800531a:	e014      	b.n	8005346 <_vfiprintf_r+0x13a>
 800531c:	eba0 0308 	sub.w	r3, r0, r8
 8005320:	fa09 f303 	lsl.w	r3, r9, r3
 8005324:	4313      	orrs	r3, r2
 8005326:	46a2      	mov	sl, r4
 8005328:	9304      	str	r3, [sp, #16]
 800532a:	e7d2      	b.n	80052d2 <_vfiprintf_r+0xc6>
 800532c:	9b03      	ldr	r3, [sp, #12]
 800532e:	1d19      	adds	r1, r3, #4
 8005330:	681b      	ldr	r3, [r3, #0]
 8005332:	9103      	str	r1, [sp, #12]
 8005334:	2b00      	cmp	r3, #0
 8005336:	bfbb      	ittet	lt
 8005338:	425b      	neglt	r3, r3
 800533a:	f042 0202 	orrlt.w	r2, r2, #2
 800533e:	9307      	strge	r3, [sp, #28]
 8005340:	9307      	strlt	r3, [sp, #28]
 8005342:	bfb8      	it	lt
 8005344:	9204      	strlt	r2, [sp, #16]
 8005346:	7823      	ldrb	r3, [r4, #0]
 8005348:	2b2e      	cmp	r3, #46	@ 0x2e
 800534a:	d10a      	bne.n	8005362 <_vfiprintf_r+0x156>
 800534c:	7863      	ldrb	r3, [r4, #1]
 800534e:	2b2a      	cmp	r3, #42	@ 0x2a
 8005350:	d132      	bne.n	80053b8 <_vfiprintf_r+0x1ac>
 8005352:	9b03      	ldr	r3, [sp, #12]
 8005354:	3402      	adds	r4, #2
 8005356:	1d1a      	adds	r2, r3, #4
 8005358:	681b      	ldr	r3, [r3, #0]
 800535a:	9203      	str	r2, [sp, #12]
 800535c:	ea43 73e3 	orr.w	r3, r3, r3, asr #31
 8005360:	9305      	str	r3, [sp, #20]
 8005362:	f8df a0c8 	ldr.w	sl, [pc, #200]	@ 800542c <_vfiprintf_r+0x220>
 8005366:	2203      	movs	r2, #3
 8005368:	4650      	mov	r0, sl
 800536a:	7821      	ldrb	r1, [r4, #0]
 800536c:	f000 fb5e 	bl	8005a2c <memchr>
 8005370:	b138      	cbz	r0, 8005382 <_vfiprintf_r+0x176>
 8005372:	2240      	movs	r2, #64	@ 0x40
 8005374:	9b04      	ldr	r3, [sp, #16]
 8005376:	eba0 000a 	sub.w	r0, r0, sl
 800537a:	4082      	lsls	r2, r0
 800537c:	4313      	orrs	r3, r2
 800537e:	3401      	adds	r4, #1
 8005380:	9304      	str	r3, [sp, #16]
 8005382:	f814 1b01 	ldrb.w	r1, [r4], #1
 8005386:	2206      	movs	r2, #6
 8005388:	4829      	ldr	r0, [pc, #164]	@ (8005430 <_vfiprintf_r+0x224>)
 800538a:	f88d 1028 	strb.w	r1, [sp, #40]	@ 0x28
 800538e:	f000 fb4d 	bl	8005a2c <memchr>
 8005392:	2800      	cmp	r0, #0
 8005394:	d03f      	beq.n	8005416 <_vfiprintf_r+0x20a>
 8005396:	4b27      	ldr	r3, [pc, #156]	@ (8005434 <_vfiprintf_r+0x228>)
 8005398:	bb1b      	cbnz	r3, 80053e2 <_vfiprintf_r+0x1d6>
 800539a:	9b03      	ldr	r3, [sp, #12]
 800539c:	3307      	adds	r3, #7
 800539e:	f023 0307 	bic.w	r3, r3, #7
 80053a2:	3308      	adds	r3, #8
 80053a4:	9303      	str	r3, [sp, #12]
 80053a6:	9b09      	ldr	r3, [sp, #36]	@ 0x24
 80053a8:	443b      	add	r3, r7
 80053aa:	9309      	str	r3, [sp, #36]	@ 0x24
 80053ac:	e76a      	b.n	8005284 <_vfiprintf_r+0x78>
 80053ae:	460c      	mov	r4, r1
 80053b0:	2001      	movs	r0, #1
 80053b2:	fb0c 3202 	mla	r2, ip, r2, r3
 80053b6:	e7a8      	b.n	800530a <_vfiprintf_r+0xfe>
 80053b8:	2300      	movs	r3, #0
 80053ba:	f04f 0c0a 	mov.w	ip, #10
 80053be:	4619      	mov	r1, r3
 80053c0:	3401      	adds	r4, #1
 80053c2:	9305      	str	r3, [sp, #20]
 80053c4:	4620      	mov	r0, r4
 80053c6:	f810 2b01 	ldrb.w	r2, [r0], #1
 80053ca:	3a30      	subs	r2, #48	@ 0x30
 80053cc:	2a09      	cmp	r2, #9
 80053ce:	d903      	bls.n	80053d8 <_vfiprintf_r+0x1cc>
 80053d0:	2b00      	cmp	r3, #0
 80053d2:	d0c6      	beq.n	8005362 <_vfiprintf_r+0x156>
 80053d4:	9105      	str	r1, [sp, #20]
 80053d6:	e7c4      	b.n	8005362 <_vfiprintf_r+0x156>
 80053d8:	4604      	mov	r4, r0
 80053da:	2301      	movs	r3, #1
 80053dc:	fb0c 2101 	mla	r1, ip, r1, r2
 80053e0:	e7f0      	b.n	80053c4 <_vfiprintf_r+0x1b8>
 80053e2:	ab03      	add	r3, sp, #12
 80053e4:	9300      	str	r3, [sp, #0]
 80053e6:	462a      	mov	r2, r5
 80053e8:	4630      	mov	r0, r6
 80053ea:	4b13      	ldr	r3, [pc, #76]	@ (8005438 <_vfiprintf_r+0x22c>)
 80053ec:	a904      	add	r1, sp, #16
 80053ee:	f3af 8000 	nop.w
 80053f2:	4607      	mov	r7, r0
 80053f4:	1c78      	adds	r0, r7, #1
 80053f6:	d1d6      	bne.n	80053a6 <_vfiprintf_r+0x19a>
 80053f8:	6e6b      	ldr	r3, [r5, #100]	@ 0x64
 80053fa:	07d9      	lsls	r1, r3, #31
 80053fc:	d405      	bmi.n	800540a <_vfiprintf_r+0x1fe>
 80053fe:	89ab      	ldrh	r3, [r5, #12]
 8005400:	059a      	lsls	r2, r3, #22
 8005402:	d402      	bmi.n	800540a <_vfiprintf_r+0x1fe>
 8005404:	6da8      	ldr	r0, [r5, #88]	@ 0x58
 8005406:	f7ff fc89 	bl	8004d1c <__retarget_lock_release_recursive>
 800540a:	89ab      	ldrh	r3, [r5, #12]
 800540c:	065b      	lsls	r3, r3, #25
 800540e:	f53f af1f 	bmi.w	8005250 <_vfiprintf_r+0x44>
 8005412:	9809      	ldr	r0, [sp, #36]	@ 0x24
 8005414:	e71e      	b.n	8005254 <_vfiprintf_r+0x48>
 8005416:	ab03      	add	r3, sp, #12
 8005418:	9300      	str	r3, [sp, #0]
 800541a:	462a      	mov	r2, r5
 800541c:	4630      	mov	r0, r6
 800541e:	4b06      	ldr	r3, [pc, #24]	@ (8005438 <_vfiprintf_r+0x22c>)
 8005420:	a904      	add	r1, sp, #16
 8005422:	f000 f87d 	bl	8005520 <_printf_i>
 8005426:	e7e4      	b.n	80053f2 <_vfiprintf_r+0x1e6>
 8005428:	08007482 	.word	0x08007482
 800542c:	08007488 	.word	0x08007488
 8005430:	0800748c 	.word	0x0800748c
 8005434:	00000000 	.word	0x00000000
 8005438:	080051e7 	.word	0x080051e7

0800543c <_printf_common>:
 800543c:	e92d 47f0 	stmdb	sp!, {r4, r5, r6, r7, r8, r9, sl, lr}
 8005440:	4616      	mov	r6, r2
 8005442:	4698      	mov	r8, r3
 8005444:	688a      	ldr	r2, [r1, #8]
 8005446:	690b      	ldr	r3, [r1, #16]
 8005448:	4607      	mov	r7, r0
 800544a:	4293      	cmp	r3, r2
 800544c:	bfb8      	it	lt
 800544e:	4613      	movlt	r3, r2
 8005450:	6033      	str	r3, [r6, #0]
 8005452:	f891 2043 	ldrb.w	r2, [r1, #67]	@ 0x43
 8005456:	460c      	mov	r4, r1
 8005458:	f8dd 9020 	ldr.w	r9, [sp, #32]
 800545c:	b10a      	cbz	r2, 8005462 <_printf_common+0x26>
 800545e:	3301      	adds	r3, #1
 8005460:	6033      	str	r3, [r6, #0]
 8005462:	6823      	ldr	r3, [r4, #0]
 8005464:	0699      	lsls	r1, r3, #26
 8005466:	bf42      	ittt	mi
 8005468:	6833      	ldrmi	r3, [r6, #0]
 800546a:	3302      	addmi	r3, #2
 800546c:	6033      	strmi	r3, [r6, #0]
 800546e:	6825      	ldr	r5, [r4, #0]
 8005470:	f015 0506 	ands.w	r5, r5, #6
 8005474:	d106      	bne.n	8005484 <_printf_common+0x48>
 8005476:	f104 0a19 	add.w	sl, r4, #25
 800547a:	68e3      	ldr	r3, [r4, #12]
 800547c:	6832      	ldr	r2, [r6, #0]
 800547e:	1a9b      	subs	r3, r3, r2
 8005480:	42ab      	cmp	r3, r5
 8005482:	dc2b      	bgt.n	80054dc <_printf_common+0xa0>
 8005484:	f894 3043 	ldrb.w	r3, [r4, #67]	@ 0x43
 8005488:	6822      	ldr	r2, [r4, #0]
 800548a:	3b00      	subs	r3, #0
 800548c:	bf18      	it	ne
 800548e:	2301      	movne	r3, #1
 8005490:	0692      	lsls	r2, r2, #26
 8005492:	d430      	bmi.n	80054f6 <_printf_common+0xba>
 8005494:	4641      	mov	r1, r8
 8005496:	4638      	mov	r0, r7
 8005498:	f104 0243 	add.w	r2, r4, #67	@ 0x43
 800549c:	47c8      	blx	r9
 800549e:	3001      	adds	r0, #1
 80054a0:	d023      	beq.n	80054ea <_printf_common+0xae>
 80054a2:	6823      	ldr	r3, [r4, #0]
 80054a4:	6922      	ldr	r2, [r4, #16]
 80054a6:	f003 0306 	and.w	r3, r3, #6
 80054aa:	2b04      	cmp	r3, #4
 80054ac:	bf14      	ite	ne
 80054ae:	2500      	movne	r5, #0
 80054b0:	6833      	ldreq	r3, [r6, #0]
 80054b2:	f04f 0600 	mov.w	r6, #0
 80054b6:	bf08      	it	eq
 80054b8:	68e5      	ldreq	r5, [r4, #12]
 80054ba:	f104 041a 	add.w	r4, r4, #26
 80054be:	bf08      	it	eq
 80054c0:	1aed      	subeq	r5, r5, r3
 80054c2:	f854 3c12 	ldr.w	r3, [r4, #-18]
 80054c6:	bf08      	it	eq
 80054c8:	ea25 75e5 	biceq.w	r5, r5, r5, asr #31
 80054cc:	4293      	cmp	r3, r2
 80054ce:	bfc4      	itt	gt
 80054d0:	1a9b      	subgt	r3, r3, r2
 80054d2:	18ed      	addgt	r5, r5, r3
 80054d4:	42b5      	cmp	r5, r6
 80054d6:	d11a      	bne.n	800550e <_printf_common+0xd2>
 80054d8:	2000      	movs	r0, #0
 80054da:	e008      	b.n	80054ee <_printf_common+0xb2>
 80054dc:	2301      	movs	r3, #1
 80054de:	4652      	mov	r2, sl
 80054e0:	4641      	mov	r1, r8
 80054e2:	4638      	mov	r0, r7
 80054e4:	47c8      	blx	r9
 80054e6:	3001      	adds	r0, #1
 80054e8:	d103      	bne.n	80054f2 <_printf_common+0xb6>
 80054ea:	f04f 30ff 	mov.w	r0, #4294967295
 80054ee:	e8bd 87f0 	ldmia.w	sp!, {r4, r5, r6, r7, r8, r9, sl, pc}
 80054f2:	3501      	adds	r5, #1
 80054f4:	e7c1      	b.n	800547a <_printf_common+0x3e>
 80054f6:	2030      	movs	r0, #48	@ 0x30
 80054f8:	18e1      	adds	r1, r4, r3
 80054fa:	f881 0043 	strb.w	r0, [r1, #67]	@ 0x43
 80054fe:	1c5a      	adds	r2, r3, #1
 8005500:	f894 1045 	ldrb.w	r1, [r4, #69]	@ 0x45
 8005504:	4422      	add	r2, r4
 8005506:	3302      	adds	r3, #2
 8005508:	f882 1043 	strb.w	r1, [r2, #67]	@ 0x43
 800550c:	e7c2      	b.n	8005494 <_printf_common+0x58>
 800550e:	2301      	movs	r3, #1
 8005510:	4622      	mov	r2, r4
 8005512:	4641      	mov	r1, r8
 8005514:	4638      	mov	r0, r7
 8005516:	47c8      	blx	r9
 8005518:	3001      	adds	r0, #1
 800551a:	d0e6      	beq.n	80054ea <_printf_common+0xae>
 800551c:	3601      	adds	r6, #1
 800551e:	e7d9      	b.n	80054d4 <_printf_common+0x98>

08005520 <_printf_i>:
 8005520:	e92d 47ff 	stmdb	sp!, {r0, r1, r2, r3, r4, r5, r6, r7, r8, r9, sl, lr}
 8005524:	7e0f      	ldrb	r7, [r1, #24]
 8005526:	4691      	mov	r9, r2
 8005528:	2f78      	cmp	r7, #120	@ 0x78
 800552a:	4680      	mov	r8, r0
 800552c:	460c      	mov	r4, r1
 800552e:	469a      	mov	sl, r3
 8005530:	9e0c      	ldr	r6, [sp, #48]	@ 0x30
 8005532:	f101 0243 	add.w	r2, r1, #67	@ 0x43
 8005536:	d807      	bhi.n	8005548 <_printf_i+0x28>
 8005538:	2f62      	cmp	r7, #98	@ 0x62
 800553a:	d80a      	bhi.n	8005552 <_printf_i+0x32>
 800553c:	2f00      	cmp	r7, #0
 800553e:	f000 80d3 	beq.w	80056e8 <_printf_i+0x1c8>
 8005542:	2f58      	cmp	r7, #88	@ 0x58
 8005544:	f000 80ba 	beq.w	80056bc <_printf_i+0x19c>
 8005548:	f104 0642 	add.w	r6, r4, #66	@ 0x42
 800554c:	f884 7042 	strb.w	r7, [r4, #66]	@ 0x42
 8005550:	e03a      	b.n	80055c8 <_printf_i+0xa8>
 8005552:	f1a7 0363 	sub.w	r3, r7, #99	@ 0x63
 8005556:	2b15      	cmp	r3, #21
 8005558:	d8f6      	bhi.n	8005548 <_printf_i+0x28>
 800555a:	a101      	add	r1, pc, #4	@ (adr r1, 8005560 <_printf_i+0x40>)
 800555c:	f851 f023 	ldr.w	pc, [r1, r3, lsl #2]
 8005560:	080055b9 	.word	0x080055b9
 8005564:	080055cd 	.word	0x080055cd
 8005568:	08005549 	.word	0x08005549
 800556c:	08005549 	.word	0x08005549
 8005570:	08005549 	.word	0x08005549
 8005574:	08005549 	.word	0x08005549
 8005578:	080055cd 	.word	0x080055cd
 800557c:	08005549 	.word	0x08005549
 8005580:	08005549 	.word	0x08005549
 8005584:	08005549 	.word	0x08005549
 8005588:	08005549 	.word	0x08005549
 800558c:	080056cf 	.word	0x080056cf
 8005590:	080055f7 	.word	0x080055f7
 8005594:	08005689 	.word	0x08005689
 8005598:	08005549 	.word	0x08005549
 800559c:	08005549 	.word	0x08005549
 80055a0:	080056f1 	.word	0x080056f1
 80055a4:	08005549 	.word	0x08005549
 80055a8:	080055f7 	.word	0x080055f7
 80055ac:	08005549 	.word	0x08005549
 80055b0:	08005549 	.word	0x08005549
 80055b4:	08005691 	.word	0x08005691
 80055b8:	6833      	ldr	r3, [r6, #0]
 80055ba:	1d1a      	adds	r2, r3, #4
 80055bc:	681b      	ldr	r3, [r3, #0]
 80055be:	6032      	str	r2, [r6, #0]
 80055c0:	f104 0642 	add.w	r6, r4, #66	@ 0x42
 80055c4:	f884 3042 	strb.w	r3, [r4, #66]	@ 0x42
 80055c8:	2301      	movs	r3, #1
 80055ca:	e09e      	b.n	800570a <_printf_i+0x1ea>
 80055cc:	6833      	ldr	r3, [r6, #0]
 80055ce:	6820      	ldr	r0, [r4, #0]
 80055d0:	1d19      	adds	r1, r3, #4
 80055d2:	6031      	str	r1, [r6, #0]
 80055d4:	0606      	lsls	r6, r0, #24
 80055d6:	d501      	bpl.n	80055dc <_printf_i+0xbc>
 80055d8:	681d      	ldr	r5, [r3, #0]
 80055da:	e003      	b.n	80055e4 <_printf_i+0xc4>
 80055dc:	0645      	lsls	r5, r0, #25
 80055de:	d5fb      	bpl.n	80055d8 <_printf_i+0xb8>
 80055e0:	f9b3 5000 	ldrsh.w	r5, [r3]
 80055e4:	2d00      	cmp	r5, #0
 80055e6:	da03      	bge.n	80055f0 <_printf_i+0xd0>
 80055e8:	232d      	movs	r3, #45	@ 0x2d
 80055ea:	426d      	negs	r5, r5
 80055ec:	f884 3043 	strb.w	r3, [r4, #67]	@ 0x43
 80055f0:	230a      	movs	r3, #10
 80055f2:	4859      	ldr	r0, [pc, #356]	@ (8005758 <_printf_i+0x238>)
 80055f4:	e011      	b.n	800561a <_printf_i+0xfa>
 80055f6:	6821      	ldr	r1, [r4, #0]
 80055f8:	6833      	ldr	r3, [r6, #0]
 80055fa:	0608      	lsls	r0, r1, #24
 80055fc:	f853 5b04 	ldr.w	r5, [r3], #4
 8005600:	d402      	bmi.n	8005608 <_printf_i+0xe8>
 8005602:	0649      	lsls	r1, r1, #25
 8005604:	bf48      	it	mi
 8005606:	b2ad      	uxthmi	r5, r5
 8005608:	2f6f      	cmp	r7, #111	@ 0x6f
 800560a:	6033      	str	r3, [r6, #0]
 800560c:	bf14      	ite	ne
 800560e:	230a      	movne	r3, #10
 8005610:	2308      	moveq	r3, #8
 8005612:	4851      	ldr	r0, [pc, #324]	@ (8005758 <_printf_i+0x238>)
 8005614:	2100      	movs	r1, #0
 8005616:	f884 1043 	strb.w	r1, [r4, #67]	@ 0x43
 800561a:	6866      	ldr	r6, [r4, #4]
 800561c:	2e00      	cmp	r6, #0
 800561e:	bfa8      	it	ge
 8005620:	6821      	ldrge	r1, [r4, #0]
 8005622:	60a6      	str	r6, [r4, #8]
 8005624:	bfa4      	itt	ge
 8005626:	f021 0104 	bicge.w	r1, r1, #4
 800562a:	6021      	strge	r1, [r4, #0]
 800562c:	b90d      	cbnz	r5, 8005632 <_printf_i+0x112>
 800562e:	2e00      	cmp	r6, #0
 8005630:	d04b      	beq.n	80056ca <_printf_i+0x1aa>
 8005632:	4616      	mov	r6, r2
 8005634:	fbb5 f1f3 	udiv	r1, r5, r3
 8005638:	fb03 5711 	mls	r7, r3, r1, r5
 800563c:	5dc7      	ldrb	r7, [r0, r7]
 800563e:	f806 7d01 	strb.w	r7, [r6, #-1]!
 8005642:	462f      	mov	r7, r5
 8005644:	42bb      	cmp	r3, r7
 8005646:	460d      	mov	r5, r1
 8005648:	d9f4      	bls.n	8005634 <_printf_i+0x114>
 800564a:	2b08      	cmp	r3, #8
 800564c:	d10b      	bne.n	8005666 <_printf_i+0x146>
 800564e:	6823      	ldr	r3, [r4, #0]
 8005650:	07df      	lsls	r7, r3, #31
 8005652:	d508      	bpl.n	8005666 <_printf_i+0x146>
 8005654:	6923      	ldr	r3, [r4, #16]
 8005656:	6861      	ldr	r1, [r4, #4]
 8005658:	4299      	cmp	r1, r3
 800565a:	bfde      	ittt	le
 800565c:	2330      	movle	r3, #48	@ 0x30
 800565e:	f806 3c01 	strble.w	r3, [r6, #-1]
 8005662:	f106 36ff 	addle.w	r6, r6, #4294967295
 8005666:	1b92      	subs	r2, r2, r6
 8005668:	6122      	str	r2, [r4, #16]
 800566a:	464b      	mov	r3, r9
 800566c:	4621      	mov	r1, r4
 800566e:	4640      	mov	r0, r8
 8005670:	f8cd a000 	str.w	sl, [sp]
 8005674:	aa03      	add	r2, sp, #12
 8005676:	f7ff fee1 	bl	800543c <_printf_common>
 800567a:	3001      	adds	r0, #1
 800567c:	d14a      	bne.n	8005714 <_printf_i+0x1f4>
 800567e:	f04f 30ff 	mov.w	r0, #4294967295
 8005682:	b004      	add	sp, #16
 8005684:	e8bd 87f0 	ldmia.w	sp!, {r4, r5, r6, r7, r8, r9, sl, pc}
 8005688:	6823      	ldr	r3, [r4, #0]
 800568a:	f043 0320 	orr.w	r3, r3, #32
 800568e:	6023      	str	r3, [r4, #0]
 8005690:	2778      	movs	r7, #120	@ 0x78
 8005692:	4832      	ldr	r0, [pc, #200]	@ (800575c <_printf_i+0x23c>)
 8005694:	f884 7045 	strb.w	r7, [r4, #69]	@ 0x45
 8005698:	6823      	ldr	r3, [r4, #0]
 800569a:	6831      	ldr	r1, [r6, #0]
 800569c:	061f      	lsls	r7, r3, #24
 800569e:	f851 5b04 	ldr.w	r5, [r1], #4
 80056a2:	d402      	bmi.n	80056aa <_printf_i+0x18a>
 80056a4:	065f      	lsls	r7, r3, #25
 80056a6:	bf48      	it	mi
 80056a8:	b2ad      	uxthmi	r5, r5
 80056aa:	6031      	str	r1, [r6, #0]
 80056ac:	07d9      	lsls	r1, r3, #31
 80056ae:	bf44      	itt	mi
 80056b0:	f043 0320 	orrmi.w	r3, r3, #32
 80056b4:	6023      	strmi	r3, [r4, #0]
 80056b6:	b11d      	cbz	r5, 80056c0 <_printf_i+0x1a0>
 80056b8:	2310      	movs	r3, #16
 80056ba:	e7ab      	b.n	8005614 <_printf_i+0xf4>
 80056bc:	4826      	ldr	r0, [pc, #152]	@ (8005758 <_printf_i+0x238>)
 80056be:	e7e9      	b.n	8005694 <_printf_i+0x174>
 80056c0:	6823      	ldr	r3, [r4, #0]
 80056c2:	f023 0320 	bic.w	r3, r3, #32
 80056c6:	6023      	str	r3, [r4, #0]
 80056c8:	e7f6      	b.n	80056b8 <_printf_i+0x198>
 80056ca:	4616      	mov	r6, r2
 80056cc:	e7bd      	b.n	800564a <_printf_i+0x12a>
 80056ce:	6833      	ldr	r3, [r6, #0]
 80056d0:	6825      	ldr	r5, [r4, #0]
 80056d2:	1d18      	adds	r0, r3, #4
 80056d4:	6961      	ldr	r1, [r4, #20]
 80056d6:	6030      	str	r0, [r6, #0]
 80056d8:	062e      	lsls	r6, r5, #24
 80056da:	681b      	ldr	r3, [r3, #0]
 80056dc:	d501      	bpl.n	80056e2 <_printf_i+0x1c2>
 80056de:	6019      	str	r1, [r3, #0]
 80056e0:	e002      	b.n	80056e8 <_printf_i+0x1c8>
 80056e2:	0668      	lsls	r0, r5, #25
 80056e4:	d5fb      	bpl.n	80056de <_printf_i+0x1be>
 80056e6:	8019      	strh	r1, [r3, #0]
 80056e8:	2300      	movs	r3, #0
 80056ea:	4616      	mov	r6, r2
 80056ec:	6123      	str	r3, [r4, #16]
 80056ee:	e7bc      	b.n	800566a <_printf_i+0x14a>
 80056f0:	6833      	ldr	r3, [r6, #0]
 80056f2:	2100      	movs	r1, #0
 80056f4:	1d1a      	adds	r2, r3, #4
 80056f6:	6032      	str	r2, [r6, #0]
 80056f8:	681e      	ldr	r6, [r3, #0]
 80056fa:	6862      	ldr	r2, [r4, #4]
 80056fc:	4630      	mov	r0, r6
 80056fe:	f000 f995 	bl	8005a2c <memchr>
 8005702:	b108      	cbz	r0, 8005708 <_printf_i+0x1e8>
 8005704:	1b80      	subs	r0, r0, r6
 8005706:	6060      	str	r0, [r4, #4]
 8005708:	6863      	ldr	r3, [r4, #4]
 800570a:	6123      	str	r3, [r4, #16]
 800570c:	2300      	movs	r3, #0
 800570e:	f884 3043 	strb.w	r3, [r4, #67]	@ 0x43
 8005712:	e7aa      	b.n	800566a <_printf_i+0x14a>
 8005714:	4632      	mov	r2, r6
 8005716:	4649      	mov	r1, r9
 8005718:	4640      	mov	r0, r8
 800571a:	6923      	ldr	r3, [r4, #16]
 800571c:	47d0      	blx	sl
 800571e:	3001      	adds	r0, #1
 8005720:	d0ad      	beq.n	800567e <_printf_i+0x15e>
 8005722:	6823      	ldr	r3, [r4, #0]
 8005724:	079b      	lsls	r3, r3, #30
 8005726:	d413      	bmi.n	8005750 <_printf_i+0x230>
 8005728:	68e0      	ldr	r0, [r4, #12]
 800572a:	9b03      	ldr	r3, [sp, #12]
 800572c:	4298      	cmp	r0, r3
 800572e:	bfb8      	it	lt
 8005730:	4618      	movlt	r0, r3
 8005732:	e7a6      	b.n	8005682 <_printf_i+0x162>
 8005734:	2301      	movs	r3, #1
 8005736:	4632      	mov	r2, r6
 8005738:	4649      	mov	r1, r9
 800573a:	4640      	mov	r0, r8
 800573c:	47d0      	blx	sl
 800573e:	3001      	adds	r0, #1
 8005740:	d09d      	beq.n	800567e <_printf_i+0x15e>
 8005742:	3501      	adds	r5, #1
 8005744:	68e3      	ldr	r3, [r4, #12]
 8005746:	9903      	ldr	r1, [sp, #12]
 8005748:	1a5b      	subs	r3, r3, r1
 800574a:	42ab      	cmp	r3, r5
 800574c:	dcf2      	bgt.n	8005734 <_printf_i+0x214>
 800574e:	e7eb      	b.n	8005728 <_printf_i+0x208>
 8005750:	2500      	movs	r5, #0
 8005752:	f104 0619 	add.w	r6, r4, #25
 8005756:	e7f5      	b.n	8005744 <_printf_i+0x224>
 8005758:	08007493 	.word	0x08007493
 800575c:	080074a4 	.word	0x080074a4

08005760 <__sflush_r>:
 8005760:	f9b1 200c 	ldrsh.w	r2, [r1, #12]
 8005764:	b5f8      	push	{r3, r4, r5, r6, r7, lr}
 8005766:	0716      	lsls	r6, r2, #28
 8005768:	4605      	mov	r5, r0
 800576a:	460c      	mov	r4, r1
 800576c:	d454      	bmi.n	8005818 <__sflush_r+0xb8>
 800576e:	684b      	ldr	r3, [r1, #4]
 8005770:	2b00      	cmp	r3, #0
 8005772:	dc02      	bgt.n	800577a <__sflush_r+0x1a>
 8005774:	6c0b      	ldr	r3, [r1, #64]	@ 0x40
 8005776:	2b00      	cmp	r3, #0
 8005778:	dd48      	ble.n	800580c <__sflush_r+0xac>
 800577a:	6ae6      	ldr	r6, [r4, #44]	@ 0x2c
 800577c:	2e00      	cmp	r6, #0
 800577e:	d045      	beq.n	800580c <__sflush_r+0xac>
 8005780:	2300      	movs	r3, #0
 8005782:	f412 5280 	ands.w	r2, r2, #4096	@ 0x1000
 8005786:	682f      	ldr	r7, [r5, #0]
 8005788:	6a21      	ldr	r1, [r4, #32]
 800578a:	602b      	str	r3, [r5, #0]
 800578c:	d030      	beq.n	80057f0 <__sflush_r+0x90>
 800578e:	6d62      	ldr	r2, [r4, #84]	@ 0x54
 8005790:	89a3      	ldrh	r3, [r4, #12]
 8005792:	0759      	lsls	r1, r3, #29
 8005794:	d505      	bpl.n	80057a2 <__sflush_r+0x42>
 8005796:	6863      	ldr	r3, [r4, #4]
 8005798:	1ad2      	subs	r2, r2, r3
 800579a:	6b63      	ldr	r3, [r4, #52]	@ 0x34
 800579c:	b10b      	cbz	r3, 80057a2 <__sflush_r+0x42>
 800579e:	6c23      	ldr	r3, [r4, #64]	@ 0x40
 80057a0:	1ad2      	subs	r2, r2, r3
 80057a2:	2300      	movs	r3, #0
 80057a4:	4628      	mov	r0, r5
 80057a6:	6ae6      	ldr	r6, [r4, #44]	@ 0x2c
 80057a8:	6a21      	ldr	r1, [r4, #32]
 80057aa:	47b0      	blx	r6
 80057ac:	1c43      	adds	r3, r0, #1
 80057ae:	89a3      	ldrh	r3, [r4, #12]
 80057b0:	d106      	bne.n	80057c0 <__sflush_r+0x60>
 80057b2:	6829      	ldr	r1, [r5, #0]
 80057b4:	291d      	cmp	r1, #29
 80057b6:	d82b      	bhi.n	8005810 <__sflush_r+0xb0>
 80057b8:	4a28      	ldr	r2, [pc, #160]	@ (800585c <__sflush_r+0xfc>)
 80057ba:	410a      	asrs	r2, r1
 80057bc:	07d6      	lsls	r6, r2, #31
 80057be:	d427      	bmi.n	8005810 <__sflush_r+0xb0>
 80057c0:	2200      	movs	r2, #0
 80057c2:	6062      	str	r2, [r4, #4]
 80057c4:	6922      	ldr	r2, [r4, #16]
 80057c6:	04d9      	lsls	r1, r3, #19
 80057c8:	6022      	str	r2, [r4, #0]
 80057ca:	d504      	bpl.n	80057d6 <__sflush_r+0x76>
 80057cc:	1c42      	adds	r2, r0, #1
 80057ce:	d101      	bne.n	80057d4 <__sflush_r+0x74>
 80057d0:	682b      	ldr	r3, [r5, #0]
 80057d2:	b903      	cbnz	r3, 80057d6 <__sflush_r+0x76>
 80057d4:	6560      	str	r0, [r4, #84]	@ 0x54
 80057d6:	6b61      	ldr	r1, [r4, #52]	@ 0x34
 80057d8:	602f      	str	r7, [r5, #0]
 80057da:	b1b9      	cbz	r1, 800580c <__sflush_r+0xac>
 80057dc:	f104 0344 	add.w	r3, r4, #68	@ 0x44
 80057e0:	4299      	cmp	r1, r3
 80057e2:	d002      	beq.n	80057ea <__sflush_r+0x8a>
 80057e4:	4628      	mov	r0, r5
 80057e6:	f7ff fa9b 	bl	8004d20 <_free_r>
 80057ea:	2300      	movs	r3, #0
 80057ec:	6363      	str	r3, [r4, #52]	@ 0x34
 80057ee:	e00d      	b.n	800580c <__sflush_r+0xac>
 80057f0:	2301      	movs	r3, #1
 80057f2:	4628      	mov	r0, r5
 80057f4:	47b0      	blx	r6
 80057f6:	4602      	mov	r2, r0
 80057f8:	1c50      	adds	r0, r2, #1
 80057fa:	d1c9      	bne.n	8005790 <__sflush_r+0x30>
 80057fc:	682b      	ldr	r3, [r5, #0]
 80057fe:	2b00      	cmp	r3, #0
 8005800:	d0c6      	beq.n	8005790 <__sflush_r+0x30>
 8005802:	2b1d      	cmp	r3, #29
 8005804:	d001      	beq.n	800580a <__sflush_r+0xaa>
 8005806:	2b16      	cmp	r3, #22
 8005808:	d11d      	bne.n	8005846 <__sflush_r+0xe6>
 800580a:	602f      	str	r7, [r5, #0]
 800580c:	2000      	movs	r0, #0
 800580e:	e021      	b.n	8005854 <__sflush_r+0xf4>
 8005810:	f043 0340 	orr.w	r3, r3, #64	@ 0x40
 8005814:	b21b      	sxth	r3, r3
 8005816:	e01a      	b.n	800584e <__sflush_r+0xee>
 8005818:	690f      	ldr	r7, [r1, #16]
 800581a:	2f00      	cmp	r7, #0
 800581c:	d0f6      	beq.n	800580c <__sflush_r+0xac>
 800581e:	0793      	lsls	r3, r2, #30
 8005820:	bf18      	it	ne
 8005822:	2300      	movne	r3, #0
 8005824:	680e      	ldr	r6, [r1, #0]
 8005826:	bf08      	it	eq
 8005828:	694b      	ldreq	r3, [r1, #20]
 800582a:	1bf6      	subs	r6, r6, r7
 800582c:	600f      	str	r7, [r1, #0]
 800582e:	608b      	str	r3, [r1, #8]
 8005830:	2e00      	cmp	r6, #0
 8005832:	ddeb      	ble.n	800580c <__sflush_r+0xac>
 8005834:	4633      	mov	r3, r6
 8005836:	463a      	mov	r2, r7
 8005838:	4628      	mov	r0, r5
 800583a:	6a21      	ldr	r1, [r4, #32]
 800583c:	f8d4 c028 	ldr.w	ip, [r4, #40]	@ 0x28
 8005840:	47e0      	blx	ip
 8005842:	2800      	cmp	r0, #0
 8005844:	dc07      	bgt.n	8005856 <__sflush_r+0xf6>
 8005846:	f9b4 300c 	ldrsh.w	r3, [r4, #12]
 800584a:	f043 0340 	orr.w	r3, r3, #64	@ 0x40
 800584e:	f04f 30ff 	mov.w	r0, #4294967295
 8005852:	81a3      	strh	r3, [r4, #12]
 8005854:	bdf8      	pop	{r3, r4, r5, r6, r7, pc}
 8005856:	4407      	add	r7, r0
 8005858:	1a36      	subs	r6, r6, r0
 800585a:	e7e9      	b.n	8005830 <__sflush_r+0xd0>
 800585c:	dfbffffe 	.word	0xdfbffffe

08005860 <_fflush_r>:
 8005860:	b538      	push	{r3, r4, r5, lr}
 8005862:	690b      	ldr	r3, [r1, #16]
 8005864:	4605      	mov	r5, r0
 8005866:	460c      	mov	r4, r1
 8005868:	b913      	cbnz	r3, 8005870 <_fflush_r+0x10>
 800586a:	2500      	movs	r5, #0
 800586c:	4628      	mov	r0, r5
 800586e:	bd38      	pop	{r3, r4, r5, pc}
 8005870:	b118      	cbz	r0, 800587a <_fflush_r+0x1a>
 8005872:	6a03      	ldr	r3, [r0, #32]
 8005874:	b90b      	cbnz	r3, 800587a <_fflush_r+0x1a>
 8005876:	f7ff f917 	bl	8004aa8 <__sinit>
 800587a:	f9b4 300c 	ldrsh.w	r3, [r4, #12]
 800587e:	2b00      	cmp	r3, #0
 8005880:	d0f3      	beq.n	800586a <_fflush_r+0xa>
 8005882:	6e62      	ldr	r2, [r4, #100]	@ 0x64
 8005884:	07d0      	lsls	r0, r2, #31
 8005886:	d404      	bmi.n	8005892 <_fflush_r+0x32>
 8005888:	0599      	lsls	r1, r3, #22
 800588a:	d402      	bmi.n	8005892 <_fflush_r+0x32>
 800588c:	6da0      	ldr	r0, [r4, #88]	@ 0x58
 800588e:	f7ff fa44 	bl	8004d1a <__retarget_lock_acquire_recursive>
 8005892:	4628      	mov	r0, r5
 8005894:	4621      	mov	r1, r4
 8005896:	f7ff ff63 	bl	8005760 <__sflush_r>
 800589a:	6e63      	ldr	r3, [r4, #100]	@ 0x64
 800589c:	4605      	mov	r5, r0
 800589e:	07da      	lsls	r2, r3, #31
 80058a0:	d4e4      	bmi.n	800586c <_fflush_r+0xc>
 80058a2:	89a3      	ldrh	r3, [r4, #12]
 80058a4:	059b      	lsls	r3, r3, #22
 80058a6:	d4e1      	bmi.n	800586c <_fflush_r+0xc>
 80058a8:	6da0      	ldr	r0, [r4, #88]	@ 0x58
 80058aa:	f7ff fa37 	bl	8004d1c <__retarget_lock_release_recursive>
 80058ae:	e7dd      	b.n	800586c <_fflush_r+0xc>

080058b0 <__swbuf_r>:
 80058b0:	b5f8      	push	{r3, r4, r5, r6, r7, lr}
 80058b2:	460e      	mov	r6, r1
 80058b4:	4614      	mov	r4, r2
 80058b6:	4605      	mov	r5, r0
 80058b8:	b118      	cbz	r0, 80058c2 <__swbuf_r+0x12>
 80058ba:	6a03      	ldr	r3, [r0, #32]
 80058bc:	b90b      	cbnz	r3, 80058c2 <__swbuf_r+0x12>
 80058be:	f7ff f8f3 	bl	8004aa8 <__sinit>
 80058c2:	69a3      	ldr	r3, [r4, #24]
 80058c4:	60a3      	str	r3, [r4, #8]
 80058c6:	89a3      	ldrh	r3, [r4, #12]
 80058c8:	071a      	lsls	r2, r3, #28
 80058ca:	d501      	bpl.n	80058d0 <__swbuf_r+0x20>
 80058cc:	6923      	ldr	r3, [r4, #16]
 80058ce:	b943      	cbnz	r3, 80058e2 <__swbuf_r+0x32>
 80058d0:	4621      	mov	r1, r4
 80058d2:	4628      	mov	r0, r5
 80058d4:	f000 f82a 	bl	800592c <__swsetup_r>
 80058d8:	b118      	cbz	r0, 80058e2 <__swbuf_r+0x32>
 80058da:	f04f 37ff 	mov.w	r7, #4294967295
 80058de:	4638      	mov	r0, r7
 80058e0:	bdf8      	pop	{r3, r4, r5, r6, r7, pc}
 80058e2:	6823      	ldr	r3, [r4, #0]
 80058e4:	6922      	ldr	r2, [r4, #16]
 80058e6:	b2f6      	uxtb	r6, r6
 80058e8:	1a98      	subs	r0, r3, r2
 80058ea:	6963      	ldr	r3, [r4, #20]
 80058ec:	4637      	mov	r7, r6
 80058ee:	4283      	cmp	r3, r0
 80058f0:	dc05      	bgt.n	80058fe <__swbuf_r+0x4e>
 80058f2:	4621      	mov	r1, r4
 80058f4:	4628      	mov	r0, r5
 80058f6:	f7ff ffb3 	bl	8005860 <_fflush_r>
 80058fa:	2800      	cmp	r0, #0
 80058fc:	d1ed      	bne.n	80058da <__swbuf_r+0x2a>
 80058fe:	68a3      	ldr	r3, [r4, #8]
 8005900:	3b01      	subs	r3, #1
 8005902:	60a3      	str	r3, [r4, #8]
 8005904:	6823      	ldr	r3, [r4, #0]
 8005906:	1c5a      	adds	r2, r3, #1
 8005908:	6022      	str	r2, [r4, #0]
 800590a:	701e      	strb	r6, [r3, #0]
 800590c:	6962      	ldr	r2, [r4, #20]
 800590e:	1c43      	adds	r3, r0, #1
 8005910:	429a      	cmp	r2, r3
 8005912:	d004      	beq.n	800591e <__swbuf_r+0x6e>
 8005914:	89a3      	ldrh	r3, [r4, #12]
 8005916:	07db      	lsls	r3, r3, #31
 8005918:	d5e1      	bpl.n	80058de <__swbuf_r+0x2e>
 800591a:	2e0a      	cmp	r6, #10
 800591c:	d1df      	bne.n	80058de <__swbuf_r+0x2e>
 800591e:	4621      	mov	r1, r4
 8005920:	4628      	mov	r0, r5
 8005922:	f7ff ff9d 	bl	8005860 <_fflush_r>
 8005926:	2800      	cmp	r0, #0
 8005928:	d0d9      	beq.n	80058de <__swbuf_r+0x2e>
 800592a:	e7d6      	b.n	80058da <__swbuf_r+0x2a>

0800592c <__swsetup_r>:
 800592c:	b538      	push	{r3, r4, r5, lr}
 800592e:	4b29      	ldr	r3, [pc, #164]	@ (80059d4 <__swsetup_r+0xa8>)
 8005930:	4605      	mov	r5, r0
 8005932:	6818      	ldr	r0, [r3, #0]
 8005934:	460c      	mov	r4, r1
 8005936:	b118      	cbz	r0, 8005940 <__swsetup_r+0x14>
 8005938:	6a03      	ldr	r3, [r0, #32]
 800593a:	b90b      	cbnz	r3, 8005940 <__swsetup_r+0x14>
 800593c:	f7ff f8b4 	bl	8004aa8 <__sinit>
 8005940:	f9b4 300c 	ldrsh.w	r3, [r4, #12]
 8005944:	0719      	lsls	r1, r3, #28
 8005946:	d422      	bmi.n	800598e <__swsetup_r+0x62>
 8005948:	06da      	lsls	r2, r3, #27
 800594a:	d407      	bmi.n	800595c <__swsetup_r+0x30>
 800594c:	2209      	movs	r2, #9
 800594e:	602a      	str	r2, [r5, #0]
 8005950:	f043 0340 	orr.w	r3, r3, #64	@ 0x40
 8005954:	f04f 30ff 	mov.w	r0, #4294967295
 8005958:	81a3      	strh	r3, [r4, #12]
 800595a:	e033      	b.n	80059c4 <__swsetup_r+0x98>
 800595c:	0758      	lsls	r0, r3, #29
 800595e:	d512      	bpl.n	8005986 <__swsetup_r+0x5a>
 8005960:	6b61      	ldr	r1, [r4, #52]	@ 0x34
 8005962:	b141      	cbz	r1, 8005976 <__swsetup_r+0x4a>
 8005964:	f104 0344 	add.w	r3, r4, #68	@ 0x44
 8005968:	4299      	cmp	r1, r3
 800596a:	d002      	beq.n	8005972 <__swsetup_r+0x46>
 800596c:	4628      	mov	r0, r5
 800596e:	f7ff f9d7 	bl	8004d20 <_free_r>
 8005972:	2300      	movs	r3, #0
 8005974:	6363      	str	r3, [r4, #52]	@ 0x34
 8005976:	89a3      	ldrh	r3, [r4, #12]
 8005978:	f023 0324 	bic.w	r3, r3, #36	@ 0x24
 800597c:	81a3      	strh	r3, [r4, #12]
 800597e:	2300      	movs	r3, #0
 8005980:	6063      	str	r3, [r4, #4]
 8005982:	6923      	ldr	r3, [r4, #16]
 8005984:	6023      	str	r3, [r4, #0]
 8005986:	89a3      	ldrh	r3, [r4, #12]
 8005988:	f043 0308 	orr.w	r3, r3, #8
 800598c:	81a3      	strh	r3, [r4, #12]
 800598e:	6923      	ldr	r3, [r4, #16]
 8005990:	b94b      	cbnz	r3, 80059a6 <__swsetup_r+0x7a>
 8005992:	89a3      	ldrh	r3, [r4, #12]
 8005994:	f403 7320 	and.w	r3, r3, #640	@ 0x280
 8005998:	f5b3 7f00 	cmp.w	r3, #512	@ 0x200
 800599c:	d003      	beq.n	80059a6 <__swsetup_r+0x7a>
 800599e:	4621      	mov	r1, r4
 80059a0:	4628      	mov	r0, r5
 80059a2:	f000 f8b2 	bl	8005b0a <__smakebuf_r>
 80059a6:	f9b4 300c 	ldrsh.w	r3, [r4, #12]
 80059aa:	f013 0201 	ands.w	r2, r3, #1
 80059ae:	d00a      	beq.n	80059c6 <__swsetup_r+0x9a>
 80059b0:	2200      	movs	r2, #0
 80059b2:	60a2      	str	r2, [r4, #8]
 80059b4:	6962      	ldr	r2, [r4, #20]
 80059b6:	4252      	negs	r2, r2
 80059b8:	61a2      	str	r2, [r4, #24]
 80059ba:	6922      	ldr	r2, [r4, #16]
 80059bc:	b942      	cbnz	r2, 80059d0 <__swsetup_r+0xa4>
 80059be:	f013 0080 	ands.w	r0, r3, #128	@ 0x80
 80059c2:	d1c5      	bne.n	8005950 <__swsetup_r+0x24>
 80059c4:	bd38      	pop	{r3, r4, r5, pc}
 80059c6:	0799      	lsls	r1, r3, #30
 80059c8:	bf58      	it	pl
 80059ca:	6962      	ldrpl	r2, [r4, #20]
 80059cc:	60a2      	str	r2, [r4, #8]
 80059ce:	e7f4      	b.n	80059ba <__swsetup_r+0x8e>
 80059d0:	2000      	movs	r0, #0
 80059d2:	e7f7      	b.n	80059c4 <__swsetup_r+0x98>
 80059d4:	20000030 	.word	0x20000030

080059d8 <memmove>:
 80059d8:	4288      	cmp	r0, r1
 80059da:	b510      	push	{r4, lr}
 80059dc:	eb01 0402 	add.w	r4, r1, r2
 80059e0:	d902      	bls.n	80059e8 <memmove+0x10>
 80059e2:	4284      	cmp	r4, r0
 80059e4:	4623      	mov	r3, r4
 80059e6:	d807      	bhi.n	80059f8 <memmove+0x20>
 80059e8:	1e43      	subs	r3, r0, #1
 80059ea:	42a1      	cmp	r1, r4
 80059ec:	d008      	beq.n	8005a00 <memmove+0x28>
 80059ee:	f811 2b01 	ldrb.w	r2, [r1], #1
 80059f2:	f803 2f01 	strb.w	r2, [r3, #1]!
 80059f6:	e7f8      	b.n	80059ea <memmove+0x12>
 80059f8:	4601      	mov	r1, r0
 80059fa:	4402      	add	r2, r0
 80059fc:	428a      	cmp	r2, r1
 80059fe:	d100      	bne.n	8005a02 <memmove+0x2a>
 8005a00:	bd10      	pop	{r4, pc}
 8005a02:	f813 4d01 	ldrb.w	r4, [r3, #-1]!
 8005a06:	f802 4d01 	strb.w	r4, [r2, #-1]!
 8005a0a:	e7f7      	b.n	80059fc <memmove+0x24>

08005a0c <_sbrk_r>:
 8005a0c:	b538      	push	{r3, r4, r5, lr}
 8005a0e:	2300      	movs	r3, #0
 8005a10:	4d05      	ldr	r5, [pc, #20]	@ (8005a28 <_sbrk_r+0x1c>)
 8005a12:	4604      	mov	r4, r0
 8005a14:	4608      	mov	r0, r1
 8005a16:	602b      	str	r3, [r5, #0]
 8005a18:	f7fb f8ec 	bl	8000bf4 <_sbrk>
 8005a1c:	1c43      	adds	r3, r0, #1
 8005a1e:	d102      	bne.n	8005a26 <_sbrk_r+0x1a>
 8005a20:	682b      	ldr	r3, [r5, #0]
 8005a22:	b103      	cbz	r3, 8005a26 <_sbrk_r+0x1a>
 8005a24:	6023      	str	r3, [r4, #0]
 8005a26:	bd38      	pop	{r3, r4, r5, pc}
 8005a28:	200006b0 	.word	0x200006b0

08005a2c <memchr>:
 8005a2c:	4603      	mov	r3, r0
 8005a2e:	b510      	push	{r4, lr}
 8005a30:	b2c9      	uxtb	r1, r1
 8005a32:	4402      	add	r2, r0
 8005a34:	4293      	cmp	r3, r2
 8005a36:	4618      	mov	r0, r3
 8005a38:	d101      	bne.n	8005a3e <memchr+0x12>
 8005a3a:	2000      	movs	r0, #0
 8005a3c:	e003      	b.n	8005a46 <memchr+0x1a>
 8005a3e:	7804      	ldrb	r4, [r0, #0]
 8005a40:	3301      	adds	r3, #1
 8005a42:	428c      	cmp	r4, r1
 8005a44:	d1f6      	bne.n	8005a34 <memchr+0x8>
 8005a46:	bd10      	pop	{r4, pc}

08005a48 <memcpy>:
 8005a48:	440a      	add	r2, r1
 8005a4a:	4291      	cmp	r1, r2
 8005a4c:	f100 33ff 	add.w	r3, r0, #4294967295
 8005a50:	d100      	bne.n	8005a54 <memcpy+0xc>
 8005a52:	4770      	bx	lr
 8005a54:	b510      	push	{r4, lr}
 8005a56:	f811 4b01 	ldrb.w	r4, [r1], #1
 8005a5a:	4291      	cmp	r1, r2
 8005a5c:	f803 4f01 	strb.w	r4, [r3, #1]!
 8005a60:	d1f9      	bne.n	8005a56 <memcpy+0xe>
 8005a62:	bd10      	pop	{r4, pc}

08005a64 <_realloc_r>:
 8005a64:	e92d 41f0 	stmdb	sp!, {r4, r5, r6, r7, r8, lr}
 8005a68:	4680      	mov	r8, r0
 8005a6a:	4615      	mov	r5, r2
 8005a6c:	460c      	mov	r4, r1
 8005a6e:	b921      	cbnz	r1, 8005a7a <_realloc_r+0x16>
 8005a70:	4611      	mov	r1, r2
 8005a72:	e8bd 41f0 	ldmia.w	sp!, {r4, r5, r6, r7, r8, lr}
 8005a76:	f7ff b9bd 	b.w	8004df4 <_malloc_r>
 8005a7a:	b92a      	cbnz	r2, 8005a88 <_realloc_r+0x24>
 8005a7c:	f7ff f950 	bl	8004d20 <_free_r>
 8005a80:	2400      	movs	r4, #0
 8005a82:	4620      	mov	r0, r4
 8005a84:	e8bd 81f0 	ldmia.w	sp!, {r4, r5, r6, r7, r8, pc}
 8005a88:	f000 f89e 	bl	8005bc8 <_malloc_usable_size_r>
 8005a8c:	4285      	cmp	r5, r0
 8005a8e:	4606      	mov	r6, r0
 8005a90:	d802      	bhi.n	8005a98 <_realloc_r+0x34>
 8005a92:	ebb5 0f50 	cmp.w	r5, r0, lsr #1
 8005a96:	d8f4      	bhi.n	8005a82 <_realloc_r+0x1e>
 8005a98:	4629      	mov	r1, r5
 8005a9a:	4640      	mov	r0, r8
 8005a9c:	f7ff f9aa 	bl	8004df4 <_malloc_r>
 8005aa0:	4607      	mov	r7, r0
 8005aa2:	2800      	cmp	r0, #0
 8005aa4:	d0ec      	beq.n	8005a80 <_realloc_r+0x1c>
 8005aa6:	42b5      	cmp	r5, r6
 8005aa8:	462a      	mov	r2, r5
 8005aaa:	4621      	mov	r1, r4
 8005aac:	bf28      	it	cs
 8005aae:	4632      	movcs	r2, r6
 8005ab0:	f7ff ffca 	bl	8005a48 <memcpy>
 8005ab4:	4621      	mov	r1, r4
 8005ab6:	4640      	mov	r0, r8
 8005ab8:	f7ff f932 	bl	8004d20 <_free_r>
 8005abc:	463c      	mov	r4, r7
 8005abe:	e7e0      	b.n	8005a82 <_realloc_r+0x1e>

08005ac0 <__swhatbuf_r>:
 8005ac0:	b570      	push	{r4, r5, r6, lr}
 8005ac2:	460c      	mov	r4, r1
 8005ac4:	f9b1 100e 	ldrsh.w	r1, [r1, #14]
 8005ac8:	4615      	mov	r5, r2
 8005aca:	2900      	cmp	r1, #0
 8005acc:	461e      	mov	r6, r3
 8005ace:	b096      	sub	sp, #88	@ 0x58
 8005ad0:	da0c      	bge.n	8005aec <__swhatbuf_r+0x2c>
 8005ad2:	89a3      	ldrh	r3, [r4, #12]
 8005ad4:	2100      	movs	r1, #0
 8005ad6:	f013 0f80 	tst.w	r3, #128	@ 0x80
 8005ada:	bf14      	ite	ne
 8005adc:	2340      	movne	r3, #64	@ 0x40
 8005ade:	f44f 6380 	moveq.w	r3, #1024	@ 0x400
 8005ae2:	2000      	movs	r0, #0
 8005ae4:	6031      	str	r1, [r6, #0]
 8005ae6:	602b      	str	r3, [r5, #0]
 8005ae8:	b016      	add	sp, #88	@ 0x58
 8005aea:	bd70      	pop	{r4, r5, r6, pc}
 8005aec:	466a      	mov	r2, sp
 8005aee:	f000 f849 	bl	8005b84 <_fstat_r>
 8005af2:	2800      	cmp	r0, #0
 8005af4:	dbed      	blt.n	8005ad2 <__swhatbuf_r+0x12>
 8005af6:	9901      	ldr	r1, [sp, #4]
 8005af8:	f401 4170 	and.w	r1, r1, #61440	@ 0xf000
 8005afc:	f5a1 5300 	sub.w	r3, r1, #8192	@ 0x2000
 8005b00:	4259      	negs	r1, r3
 8005b02:	4159      	adcs	r1, r3
 8005b04:	f44f 6380 	mov.w	r3, #1024	@ 0x400
 8005b08:	e7eb      	b.n	8005ae2 <__swhatbuf_r+0x22>

08005b0a <__smakebuf_r>:
 8005b0a:	898b      	ldrh	r3, [r1, #12]
 8005b0c:	b5f7      	push	{r0, r1, r2, r4, r5, r6, r7, lr}
 8005b0e:	079d      	lsls	r5, r3, #30
 8005b10:	4606      	mov	r6, r0
 8005b12:	460c      	mov	r4, r1
 8005b14:	d507      	bpl.n	8005b26 <__smakebuf_r+0x1c>
 8005b16:	f104 0347 	add.w	r3, r4, #71	@ 0x47
 8005b1a:	6023      	str	r3, [r4, #0]
 8005b1c:	6123      	str	r3, [r4, #16]
 8005b1e:	2301      	movs	r3, #1
 8005b20:	6163      	str	r3, [r4, #20]
 8005b22:	b003      	add	sp, #12
 8005b24:	bdf0      	pop	{r4, r5, r6, r7, pc}
 8005b26:	466a      	mov	r2, sp
 8005b28:	ab01      	add	r3, sp, #4
 8005b2a:	f7ff ffc9 	bl	8005ac0 <__swhatbuf_r>
 8005b2e:	9f00      	ldr	r7, [sp, #0]
 8005b30:	4605      	mov	r5, r0
 8005b32:	4639      	mov	r1, r7
 8005b34:	4630      	mov	r0, r6
 8005b36:	f7ff f95d 	bl	8004df4 <_malloc_r>
 8005b3a:	b948      	cbnz	r0, 8005b50 <__smakebuf_r+0x46>
 8005b3c:	f9b4 300c 	ldrsh.w	r3, [r4, #12]
 8005b40:	059a      	lsls	r2, r3, #22
 8005b42:	d4ee      	bmi.n	8005b22 <__smakebuf_r+0x18>
 8005b44:	f023 0303 	bic.w	r3, r3, #3
 8005b48:	f043 0302 	orr.w	r3, r3, #2
 8005b4c:	81a3      	strh	r3, [r4, #12]
 8005b4e:	e7e2      	b.n	8005b16 <__smakebuf_r+0xc>
 8005b50:	89a3      	ldrh	r3, [r4, #12]
 8005b52:	e9c4 0704 	strd	r0, r7, [r4, #16]
 8005b56:	f043 0380 	orr.w	r3, r3, #128	@ 0x80
 8005b5a:	81a3      	strh	r3, [r4, #12]
 8005b5c:	9b01      	ldr	r3, [sp, #4]
 8005b5e:	6020      	str	r0, [r4, #0]
 8005b60:	b15b      	cbz	r3, 8005b7a <__smakebuf_r+0x70>
 8005b62:	4630      	mov	r0, r6
 8005b64:	f9b4 100e 	ldrsh.w	r1, [r4, #14]
 8005b68:	f000 f81e 	bl	8005ba8 <_isatty_r>
 8005b6c:	b128      	cbz	r0, 8005b7a <__smakebuf_r+0x70>
 8005b6e:	89a3      	ldrh	r3, [r4, #12]
 8005b70:	f023 0303 	bic.w	r3, r3, #3
 8005b74:	f043 0301 	orr.w	r3, r3, #1
 8005b78:	81a3      	strh	r3, [r4, #12]
 8005b7a:	89a3      	ldrh	r3, [r4, #12]
 8005b7c:	431d      	orrs	r5, r3
 8005b7e:	81a5      	strh	r5, [r4, #12]
 8005b80:	e7cf      	b.n	8005b22 <__smakebuf_r+0x18>
	...

08005b84 <_fstat_r>:
 8005b84:	b538      	push	{r3, r4, r5, lr}
 8005b86:	2300      	movs	r3, #0
 8005b88:	4d06      	ldr	r5, [pc, #24]	@ (8005ba4 <_fstat_r+0x20>)
 8005b8a:	4604      	mov	r4, r0
 8005b8c:	4608      	mov	r0, r1
 8005b8e:	4611      	mov	r1, r2
 8005b90:	602b      	str	r3, [r5, #0]
 8005b92:	f7fb f809 	bl	8000ba8 <_fstat>
 8005b96:	1c43      	adds	r3, r0, #1
 8005b98:	d102      	bne.n	8005ba0 <_fstat_r+0x1c>
 8005b9a:	682b      	ldr	r3, [r5, #0]
 8005b9c:	b103      	cbz	r3, 8005ba0 <_fstat_r+0x1c>
 8005b9e:	6023      	str	r3, [r4, #0]
 8005ba0:	bd38      	pop	{r3, r4, r5, pc}
 8005ba2:	bf00      	nop
 8005ba4:	200006b0 	.word	0x200006b0

08005ba8 <_isatty_r>:
 8005ba8:	b538      	push	{r3, r4, r5, lr}
 8005baa:	2300      	movs	r3, #0
 8005bac:	4d05      	ldr	r5, [pc, #20]	@ (8005bc4 <_isatty_r+0x1c>)
 8005bae:	4604      	mov	r4, r0
 8005bb0:	4608      	mov	r0, r1
 8005bb2:	602b      	str	r3, [r5, #0]
 8005bb4:	f7fb f807 	bl	8000bc6 <_isatty>
 8005bb8:	1c43      	adds	r3, r0, #1
 8005bba:	d102      	bne.n	8005bc2 <_isatty_r+0x1a>
 8005bbc:	682b      	ldr	r3, [r5, #0]
 8005bbe:	b103      	cbz	r3, 8005bc2 <_isatty_r+0x1a>
 8005bc0:	6023      	str	r3, [r4, #0]
 8005bc2:	bd38      	pop	{r3, r4, r5, pc}
 8005bc4:	200006b0 	.word	0x200006b0

08005bc8 <_malloc_usable_size_r>:
 8005bc8:	f851 3c04 	ldr.w	r3, [r1, #-4]
 8005bcc:	1f18      	subs	r0, r3, #4
 8005bce:	2b00      	cmp	r3, #0
 8005bd0:	bfbc      	itt	lt
 8005bd2:	580b      	ldrlt	r3, [r1, r0]
 8005bd4:	18c0      	addlt	r0, r0, r3
 8005bd6:	4770      	bx	lr

08005bd8 <_init>:
 8005bd8:	b5f8      	push	{r3, r4, r5, r6, r7, lr}
 8005bda:	bf00      	nop
 8005bdc:	bcf8      	pop	{r3, r4, r5, r6, r7}
 8005bde:	bc08      	pop	{r3}
 8005be0:	469e      	mov	lr, r3
 8005be2:	4770      	bx	lr

08005be4 <_fini>:
 8005be4:	b5f8      	push	{r3, r4, r5, r6, r7, lr}
 8005be6:	bf00      	nop
 8005be8:	bcf8      	pop	{r3, r4, r5, r6, r7}
 8005bea:	bc08      	pop	{r3}
 8005bec:	469e      	mov	lr, r3
 8005bee:	4770      	bx	lr
